                              1 ;--------------------------------------------------------
                              2 ; File Created by SDCC : free open source ANSI-C Compiler
                              3 ; Version 2.9.0 #5416 (Mar 22 2009) (MINGW32)
                              4 ; This file was generated Mon Dec 28 02:24:58 2009
                              5 ;--------------------------------------------------------
                              6 	.module stateMachine_G4
                              7 	.optsdcc -mmcs51 --model-large
                              8 	
                              9 ;--------------------------------------------------------
                             10 ; Public variables in this module
                             11 ;--------------------------------------------------------
                             12 	.globl _callStateHandler
                             13 	.globl _responseTypes
                             14 	.globl _eventTypes
                             15 	.globl _callStateHandler_PARM_3
                             16 	.globl _callStateHandler_PARM_2
                             17 	.globl _stateMachines
                             18 	.globl _allocateStateMachineMemory
                             19 	.globl _deallocateStateMachineMemory
                             20 	.globl _registerStateMachine
                             21 	.globl _unregisterStateMachine
                             22 	.globl _iterateAllStateMachines
                             23 	.globl _iterateStateMachine
                             24 ;--------------------------------------------------------
                             25 ; special function registers
                             26 ;--------------------------------------------------------
                             27 	.area RSEG    (DATA)
                             28 ;--------------------------------------------------------
                             29 ; special function bits
                             30 ;--------------------------------------------------------
                             31 	.area RSEG    (DATA)
                             32 ;--------------------------------------------------------
                             33 ; overlayable register banks
                             34 ;--------------------------------------------------------
                             35 	.area REG_BANK_0	(REL,OVR,DATA)
   0000                      36 	.ds 8
                             37 ;--------------------------------------------------------
                             38 ; internal ram data
                             39 ;--------------------------------------------------------
                             40 	.area DSEG    (DATA)
   0000                      41 _callStateHandler_sloc0_1_0:
   0000                      42 	.ds 3
   0003                      43 _callStateHandler_sloc1_1_0:
   0003                      44 	.ds 3
   0006                      45 _iterateStateMachine_sloc0_1_0:
   0006                      46 	.ds 3
   0009                      47 _iterateStateMachine_sloc1_1_0:
   0009                      48 	.ds 3
   000C                      49 _iterateStateMachine_sloc2_1_0:
   000C                      50 	.ds 3
   000F                      51 _iterateStateMachine_sloc3_1_0:
   000F                      52 	.ds 3
   0012                      53 _iterateStateMachine_sloc4_1_0:
   0012                      54 	.ds 3
   0015                      55 _iterateStateMachine_sloc5_1_0:
   0015                      56 	.ds 3
   0018                      57 _iterateStateMachine_sloc6_1_0:
   0018                      58 	.ds 3
   001B                      59 _iterateStateMachine_sloc7_1_0:
   001B                      60 	.ds 3
   001E                      61 _iterateStateMachine_sloc8_1_0:
   001E                      62 	.ds 1
   001F                      63 _iterateStateMachine_sloc9_1_0:
   001F                      64 	.ds 3
   0022                      65 _iterateStateMachine_sloc10_1_0:
   0022                      66 	.ds 3
                             67 ;--------------------------------------------------------
                             68 ; overlayable items in internal ram 
                             69 ;--------------------------------------------------------
                             70 	.area OSEG    (OVR,DATA)
                             71 ;--------------------------------------------------------
                             72 ; indirectly addressable internal ram data
                             73 ;--------------------------------------------------------
                             74 	.area ISEG    (DATA)
                             75 ;--------------------------------------------------------
                             76 ; absolute internal ram data
                             77 ;--------------------------------------------------------
                             78 	.area IABS    (ABS,DATA)
                             79 	.area IABS    (ABS,DATA)
                             80 ;--------------------------------------------------------
                             81 ; bit data
                             82 ;--------------------------------------------------------
                             83 	.area BSEG    (BIT)
                             84 ;--------------------------------------------------------
                             85 ; paged external ram data
                             86 ;--------------------------------------------------------
                             87 	.area PSEG    (PAG,XDATA)
                             88 ;--------------------------------------------------------
                             89 ; external ram data
                             90 ;--------------------------------------------------------
                             91 	.area XSEG    (XDATA)
   0000                      92 _stateMachines::
   0000                      93 	.ds 150
   0096                      94 _allocateStateMachineMemory_sizeInBytes_1_1:
   0096                      95 	.ds 2
   0098                      96 _deallocateStateMachineMemory_instance_1_1:
   0098                      97 	.ds 3
   009B                      98 _registerStateMachine_sm_1_1:
   009B                      99 	.ds 3
   009E                     100 _unregisterStateMachine_sm_1_1:
   009E                     101 	.ds 3
   00A1                     102 _callStateHandler_PARM_2:
   00A1                     103 	.ds 3
   00A4                     104 _callStateHandler_PARM_3:
   00A4                     105 	.ds 3
   00A7                     106 _callStateHandler_sm_1_1:
   00A7                     107 	.ds 3
   00AA                     108 _iterateStateMachine_sm_1_1:
   00AA                     109 	.ds 3
   00AD                     110 _iterateStateMachine_initialTransitionEvent_1_1:
   00AD                     111 	.ds 1
   00AE                     112 _iterateStateMachine_enterEvent_1_1:
   00AE                     113 	.ds 1
   00AF                     114 _iterateStateMachine_exitEvent_1_1:
   00AF                     115 	.ds 1
   00B0                     116 _iterateStateMachine_iterationMax_1_1:
   00B0                     117 	.ds 2
   00B2                     118 _iterateStateMachine_stateBeingProcessed_2_3:
   00B2                     119 	.ds 3
   00B5                     120 _iterateStateMachine_sourceHierarchy_4_13:
   00B5                     121 	.ds 48
   00E5                     122 _iterateStateMachine_sourceIndex_4_13:
   00E5                     123 	.ds 1
   00E6                     124 _iterateStateMachine_targetHierarchy_4_13:
   00E6                     125 	.ds 48
   0116                     126 _iterateStateMachine_targetIndex_4_13:
   0116                     127 	.ds 1
   0117                     128 _iterateStateMachine_LCA_4_13:
   0117                     129 	.ds 3
   011A                     130 _iterateStateMachine_entryIndex_4_13:
   011A                     131 	.ds 1
                            132 ;--------------------------------------------------------
                            133 ; absolute external ram data
                            134 ;--------------------------------------------------------
                            135 	.area XABS    (ABS,XDATA)
                            136 ;--------------------------------------------------------
                            137 ; external initialized ram data
                            138 ;--------------------------------------------------------
                            139 	.area XISEG   (XDATA)
   0000                     140 _eventTypes::
   0000                     141 	.ds 12
   000C                     142 _responseTypes::
   000C                     143 	.ds 9
                            144 	.area HOME    (CODE)
                            145 	.area GSINIT0 (CODE)
                            146 	.area GSINIT1 (CODE)
                            147 	.area GSINIT2 (CODE)
                            148 	.area GSINIT3 (CODE)
                            149 	.area GSINIT4 (CODE)
                            150 	.area GSINIT5 (CODE)
                            151 	.area GSINIT  (CODE)
                            152 	.area GSFINAL (CODE)
                            153 	.area CSEG    (CODE)
                            154 ;--------------------------------------------------------
                            155 ; global & static initialisations
                            156 ;--------------------------------------------------------
                            157 	.area HOME    (CODE)
                            158 	.area GSINIT  (CODE)
                            159 	.area GSFINAL (CODE)
                            160 	.area GSINIT  (CODE)
                            161 ;------------------------------------------------------------
                            162 ;Allocation info for local variables in function 'iterateStateMachine'
                            163 ;------------------------------------------------------------
                            164 ;sloc0                     Allocated with name '_iterateStateMachine_sloc0_1_0'
                            165 ;sloc1                     Allocated with name '_iterateStateMachine_sloc1_1_0'
                            166 ;sloc2                     Allocated with name '_iterateStateMachine_sloc2_1_0'
                            167 ;sloc3                     Allocated with name '_iterateStateMachine_sloc3_1_0'
                            168 ;sloc4                     Allocated with name '_iterateStateMachine_sloc4_1_0'
                            169 ;sloc5                     Allocated with name '_iterateStateMachine_sloc5_1_0'
                            170 ;sloc6                     Allocated with name '_iterateStateMachine_sloc6_1_0'
                            171 ;sloc7                     Allocated with name '_iterateStateMachine_sloc7_1_0'
                            172 ;sloc8                     Allocated with name '_iterateStateMachine_sloc8_1_0'
                            173 ;sloc9                     Allocated with name '_iterateStateMachine_sloc9_1_0'
                            174 ;sloc10                    Allocated with name '_iterateStateMachine_sloc10_1_0'
                            175 ;sm                        Allocated with name '_iterateStateMachine_sm_1_1'
                            176 ;initialTransitionEvent    Allocated with name '_iterateStateMachine_initialTransitionEvent_1_1'
                            177 ;enterEvent                Allocated with name '_iterateStateMachine_enterEvent_1_1'
                            178 ;exitEvent                 Allocated with name '_iterateStateMachine_exitEvent_1_1'
                            179 ;iterationMax              Allocated with name '_iterateStateMachine_iterationMax_1_1'
                            180 ;eventToProcess            Allocated with name '_iterateStateMachine_eventToProcess_2_3'
                            181 ;stateBeingProcessed       Allocated with name '_iterateStateMachine_stateBeingProcessed_2_3'
                            182 ;action                    Allocated with name '_iterateStateMachine_action_2_3'
                            183 ;source                    Allocated with name '_iterateStateMachine_source_3_8'
                            184 ;target                    Allocated with name '_iterateStateMachine_target_3_8'
                            185 ;sourceHierarchy           Allocated with name '_iterateStateMachine_sourceHierarchy_4_13'
                            186 ;sourceIndex               Allocated with name '_iterateStateMachine_sourceIndex_4_13'
                            187 ;targetHierarchy           Allocated with name '_iterateStateMachine_targetHierarchy_4_13'
                            188 ;targetIndex               Allocated with name '_iterateStateMachine_targetIndex_4_13'
                            189 ;LCA                       Allocated with name '_iterateStateMachine_LCA_4_13'
                            190 ;entryIndex                Allocated with name '_iterateStateMachine_entryIndex_4_13'
                            191 ;exitIndex                 Allocated with name '_iterateStateMachine_exitIndex_4_13'
                            192 ;exitIndex                 Allocated with name '_iterateStateMachine_exitIndex_6_15'
                            193 ;LCAindex                  Allocated with name '_iterateStateMachine_LCAindex_5_21'
                            194 ;------------------------------------------------------------
                            195 ;	D:/EiqEnergy/Projects/Software/_SoftwareLibraries/StateMachines/stateMachine_G4.c:136: static event_t	initialTransitionEvent	= { SUBSTATE_INITIAL_TRANSITION } ;
   0000 90s00rAD            196 	mov	dptr,#_iterateStateMachine_initialTransitionEvent_1_1
   0003 74 02               197 	mov	a,#0x02
   0005 F0                  198 	movx	@dptr,a
                            199 ;	D:/EiqEnergy/Projects/Software/_SoftwareLibraries/StateMachines/stateMachine_G4.c:137: static event_t	enterEvent				= { SUBSTATE_ENTRY } ;
   0006 90s00rAE            200 	mov	dptr,#_iterateStateMachine_enterEvent_1_1
   0009 74 01               201 	mov	a,#0x01
   000B F0                  202 	movx	@dptr,a
                            203 ;	D:/EiqEnergy/Projects/Software/_SoftwareLibraries/StateMachines/stateMachine_G4.c:138: static event_t	exitEvent				= { SUBSTATE_EXIT } ;
   000C 90s00rAF            204 	mov	dptr,#_iterateStateMachine_exitEvent_1_1
   000F 74 03               205 	mov	a,#0x03
   0011 F0                  206 	movx	@dptr,a
                            207 ;	D:/EiqEnergy/Projects/Software/_SoftwareLibraries/StateMachines/stateMachine_G4.c:139: static int iterationMax = 10 ;
   0012 90s00rB0            208 	mov	dptr,#_iterateStateMachine_iterationMax_1_1
   0015 74 0A               209 	mov	a,#0x0A
   0017 F0                  210 	movx	@dptr,a
   0018 E4                  211 	clr	a
   0019 A3                  212 	inc	dptr
   001A F0                  213 	movx	@dptr,a
                            214 ;--------------------------------------------------------
                            215 ; Home
                            216 ;--------------------------------------------------------
                            217 	.area HOME    (CODE)
                            218 	.area HOME    (CODE)
                            219 ;--------------------------------------------------------
                            220 ; code
                            221 ;--------------------------------------------------------
                            222 	.area CSEG    (CODE)
                            223 ;------------------------------------------------------------
                            224 ;Allocation info for local variables in function 'allocateStateMachineMemory'
                            225 ;------------------------------------------------------------
                            226 ;sizeInBytes               Allocated with name '_allocateStateMachineMemory_sizeInBytes_1_1'
                            227 ;instance                  Allocated with name '_allocateStateMachineMemory_instance_1_1'
                            228 ;------------------------------------------------------------
                            229 ;	D:/EiqEnergy/Projects/Software/_SoftwareLibraries/StateMachines/stateMachine_G4.c:32: stateMachine_t* allocateStateMachineMemory(		uint16_t sizeInBytes)
                            230 ;	-----------------------------------------
                            231 ;	 function allocateStateMachineMemory
                            232 ;	-----------------------------------------
   0000                     233 _allocateStateMachineMemory:
                    0002    234 	ar2 = 0x02
                    0003    235 	ar3 = 0x03
                    0004    236 	ar4 = 0x04
                    0005    237 	ar5 = 0x05
                    0006    238 	ar6 = 0x06
                    0007    239 	ar7 = 0x07
                    0000    240 	ar0 = 0x00
                    0001    241 	ar1 = 0x01
   0000 AA 83               242 	mov	r2,dph
   0002 E5 82               243 	mov	a,dpl
   0004 90s00r96            244 	mov	dptr,#_allocateStateMachineMemory_sizeInBytes_1_1
   0007 F0                  245 	movx	@dptr,a
   0008 A3                  246 	inc	dptr
   0009 EA                  247 	mov	a,r2
   000A F0                  248 	movx	@dptr,a
                            249 ;	D:/EiqEnergy/Projects/Software/_SoftwareLibraries/StateMachines/stateMachine_G4.c:34: stateMachine_t*	instance = malloc(sizeInBytes) ;
   000B 90s00r96            250 	mov	dptr,#_allocateStateMachineMemory_sizeInBytes_1_1
   000E E0                  251 	movx	a,@dptr
   000F FA                  252 	mov	r2,a
   0010 A3                  253 	inc	dptr
   0011 E0                  254 	movx	a,@dptr
   0012 FB                  255 	mov	r3,a
   0013 8A 82               256 	mov	dpl,r2
   0015 8B 83               257 	mov	dph,r3
   0017 C0 02               258 	push	ar2
   0019 C0 03               259 	push	ar3
   001B 12s00r00            260 	lcall	_malloc
   001E AC 82               261 	mov	r4,dpl
   0020 AD 83               262 	mov	r5,dph
   0022 D0 03               263 	pop	ar3
   0024 D0 02               264 	pop	ar2
   0026 7E 00               265 	mov	r6,#0x00
                            266 ;	D:/EiqEnergy/Projects/Software/_SoftwareLibraries/StateMachines/stateMachine_G4.c:36: if(instance)
   0028 EC                  267 	mov	a,r4
   0029 4D                  268 	orl	a,r5
   002A 4E                  269 	orl	a,r6
   002B 60 22               270 	jz	00102$
                            271 ;	D:/EiqEnergy/Projects/Software/_SoftwareLibraries/StateMachines/stateMachine_G4.c:38: memset((char*)instance, 0, sizeInBytes) ;
   002D 90s00r00            272 	mov	dptr,#_memset_PARM_2
   0030 E4                  273 	clr	a
   0031 F0                  274 	movx	@dptr,a
   0032 90s00r00            275 	mov	dptr,#_memset_PARM_3
   0035 EA                  276 	mov	a,r2
   0036 F0                  277 	movx	@dptr,a
   0037 A3                  278 	inc	dptr
   0038 EB                  279 	mov	a,r3
   0039 F0                  280 	movx	@dptr,a
   003A 8C 82               281 	mov	dpl,r4
   003C 8D 83               282 	mov	dph,r5
   003E 8E F0               283 	mov	b,r6
   0040 C0 04               284 	push	ar4
   0042 C0 05               285 	push	ar5
   0044 C0 06               286 	push	ar6
   0046 12s00r00            287 	lcall	_memset
   0049 D0 06               288 	pop	ar6
   004B D0 05               289 	pop	ar5
   004D D0 04               290 	pop	ar4
   004F                     291 00102$:
                            292 ;	D:/EiqEnergy/Projects/Software/_SoftwareLibraries/StateMachines/stateMachine_G4.c:41: return instance ;
   004F 8C 82               293 	mov	dpl,r4
   0051 8D 83               294 	mov	dph,r5
   0053 8E F0               295 	mov	b,r6
   0055 22                  296 	ret
                            297 ;------------------------------------------------------------
                            298 ;Allocation info for local variables in function 'deallocateStateMachineMemory'
                            299 ;------------------------------------------------------------
                            300 ;instance                  Allocated with name '_deallocateStateMachineMemory_instance_1_1'
                            301 ;------------------------------------------------------------
                            302 ;	D:/EiqEnergy/Projects/Software/_SoftwareLibraries/StateMachines/stateMachine_G4.c:45: void deallocateStateMachineMemory(				stateMachine_t* instance)
                            303 ;	-----------------------------------------
                            304 ;	 function deallocateStateMachineMemory
                            305 ;	-----------------------------------------
   0056                     306 _deallocateStateMachineMemory:
   0056 AA F0               307 	mov	r2,b
   0058 AB 83               308 	mov	r3,dph
   005A E5 82               309 	mov	a,dpl
   005C 90s00r98            310 	mov	dptr,#_deallocateStateMachineMemory_instance_1_1
   005F F0                  311 	movx	@dptr,a
   0060 A3                  312 	inc	dptr
   0061 EB                  313 	mov	a,r3
   0062 F0                  314 	movx	@dptr,a
   0063 A3                  315 	inc	dptr
   0064 EA                  316 	mov	a,r2
   0065 F0                  317 	movx	@dptr,a
                            318 ;	D:/EiqEnergy/Projects/Software/_SoftwareLibraries/StateMachines/stateMachine_G4.c:47: if(instance != 0)
   0066 90s00r98            319 	mov	dptr,#_deallocateStateMachineMemory_instance_1_1
   0069 E0                  320 	movx	a,@dptr
   006A FA                  321 	mov	r2,a
   006B A3                  322 	inc	dptr
   006C E0                  323 	movx	a,@dptr
   006D FB                  324 	mov	r3,a
   006E A3                  325 	inc	dptr
   006F E0                  326 	movx	a,@dptr
   0070 FC                  327 	mov	r4,a
   0071 EA                  328 	mov	a,r2
   0072 4B                  329 	orl	a,r3
   0073 4C                  330 	orl	a,r4
   0074 60 09               331 	jz	00103$
                            332 ;	D:/EiqEnergy/Projects/Software/_SoftwareLibraries/StateMachines/stateMachine_G4.c:49: free((char*)instance) ;
   0076 8A 82               333 	mov	dpl,r2
   0078 8B 83               334 	mov	dph,r3
   007A 8C F0               335 	mov	b,r4
   007C 02s00r00            336 	ljmp	_free
   007F                     337 00103$:
   007F 22                  338 	ret
                            339 ;------------------------------------------------------------
                            340 ;Allocation info for local variables in function 'registerStateMachine'
                            341 ;------------------------------------------------------------
                            342 ;sm                        Allocated with name '_registerStateMachine_sm_1_1'
                            343 ;statetMachineIndex        Allocated with name '_registerStateMachine_statetMachineIndex_2_2'
                            344 ;------------------------------------------------------------
                            345 ;	D:/EiqEnergy/Projects/Software/_SoftwareLibraries/StateMachines/stateMachine_G4.c:54: bool registerStateMachine(			stateMachine_t* sm)
                            346 ;	-----------------------------------------
                            347 ;	 function registerStateMachine
                            348 ;	-----------------------------------------
   0080                     349 _registerStateMachine:
   0080 AA F0               350 	mov	r2,b
   0082 AB 83               351 	mov	r3,dph
   0084 E5 82               352 	mov	a,dpl
   0086 90s00r9B            353 	mov	dptr,#_registerStateMachine_sm_1_1
   0089 F0                  354 	movx	@dptr,a
   008A A3                  355 	inc	dptr
   008B EB                  356 	mov	a,r3
   008C F0                  357 	movx	@dptr,a
   008D A3                  358 	inc	dptr
   008E EA                  359 	mov	a,r2
   008F F0                  360 	movx	@dptr,a
                            361 ;	D:/EiqEnergy/Projects/Software/_SoftwareLibraries/StateMachines/stateMachine_G4.c:56: if(sm)
   0090 90s00r9B            362 	mov	dptr,#_registerStateMachine_sm_1_1
   0093 E0                  363 	movx	a,@dptr
   0094 FA                  364 	mov	r2,a
   0095 A3                  365 	inc	dptr
   0096 E0                  366 	movx	a,@dptr
   0097 FB                  367 	mov	r3,a
   0098 A3                  368 	inc	dptr
   0099 E0                  369 	movx	a,@dptr
   009A FC                  370 	mov	r4,a
   009B EA                  371 	mov	a,r2
   009C 4B                  372 	orl	a,r3
   009D 4C                  373 	orl	a,r4
   009E 60 44               374 	jz	00104$
                            375 ;	D:/EiqEnergy/Projects/Software/_SoftwareLibraries/StateMachines/stateMachine_G4.c:60: for( statetMachineIndex = 0 ; statetMachineIndex < configMAXIMUM_NUMBER_OF_STATE_MACHINES ; statetMachineIndex++ )
   00A0 7A 00               376 	mov	r2,#0x00
   00A2                     377 00105$:
   00A2 BA 32 00            378 	cjne	r2,#0x32,00116$
   00A5                     379 00116$:
   00A5 50 3D               380 	jnc	00104$
                            381 ;	D:/EiqEnergy/Projects/Software/_SoftwareLibraries/StateMachines/stateMachine_G4.c:62: if(stateMachines[statetMachineIndex] == NULL)
   00A7 EA                  382 	mov	a,r2
   00A8 75 F0 03            383 	mov	b,#0x03
   00AB A4                  384 	mul	ab
   00AC 24r00               385 	add	a,#_stateMachines
   00AE FB                  386 	mov	r3,a
   00AF E4                  387 	clr	a
   00B0 34s00               388 	addc	a,#(_stateMachines >> 8)
   00B2 FC                  389 	mov	r4,a
   00B3 8B 82               390 	mov	dpl,r3
   00B5 8C 83               391 	mov	dph,r4
   00B7 E0                  392 	movx	a,@dptr
   00B8 FD                  393 	mov	r5,a
   00B9 A3                  394 	inc	dptr
   00BA E0                  395 	movx	a,@dptr
   00BB FE                  396 	mov	r6,a
   00BC A3                  397 	inc	dptr
   00BD E0                  398 	movx	a,@dptr
   00BE FF                  399 	mov	r7,a
   00BF BD 00 1F            400 	cjne	r5,#0x00,00107$
   00C2 BE 00 1C            401 	cjne	r6,#0x00,00107$
   00C5 BF 00 19            402 	cjne	r7,#0x00,00107$
                            403 ;	D:/EiqEnergy/Projects/Software/_SoftwareLibraries/StateMachines/stateMachine_G4.c:64: stateMachines[statetMachineIndex] = sm ;
   00C8 90s00r9B            404 	mov	dptr,#_registerStateMachine_sm_1_1
   00CB E0                  405 	movx	a,@dptr
   00CC FD                  406 	mov	r5,a
   00CD A3                  407 	inc	dptr
   00CE E0                  408 	movx	a,@dptr
   00CF FE                  409 	mov	r6,a
   00D0 A3                  410 	inc	dptr
   00D1 E0                  411 	movx	a,@dptr
   00D2 FF                  412 	mov	r7,a
   00D3 8B 82               413 	mov	dpl,r3
   00D5 8C 83               414 	mov	dph,r4
   00D7 ED                  415 	mov	a,r5
   00D8 F0                  416 	movx	@dptr,a
   00D9 A3                  417 	inc	dptr
   00DA EE                  418 	mov	a,r6
   00DB F0                  419 	movx	@dptr,a
   00DC A3                  420 	inc	dptr
   00DD EF                  421 	mov	a,r7
   00DE F0                  422 	movx	@dptr,a
                            423 ;	D:/EiqEnergy/Projects/Software/_SoftwareLibraries/StateMachines/stateMachine_G4.c:66: return true ;
   00DF D3                  424 	setb	c
   00E0 22                  425 	ret
   00E1                     426 00107$:
                            427 ;	D:/EiqEnergy/Projects/Software/_SoftwareLibraries/StateMachines/stateMachine_G4.c:60: for( statetMachineIndex = 0 ; statetMachineIndex < configMAXIMUM_NUMBER_OF_STATE_MACHINES ; statetMachineIndex++ )
   00E1 0A                  428 	inc	r2
   00E2 80 BE               429 	sjmp	00105$
   00E4                     430 00104$:
                            431 ;	D:/EiqEnergy/Projects/Software/_SoftwareLibraries/StateMachines/stateMachine_G4.c:71: return false ;
   00E4 C3                  432 	clr	c
   00E5 22                  433 	ret
                            434 ;------------------------------------------------------------
                            435 ;Allocation info for local variables in function 'unregisterStateMachine'
                            436 ;------------------------------------------------------------
                            437 ;sm                        Allocated with name '_unregisterStateMachine_sm_1_1'
                            438 ;statetMachineIndex        Allocated with name '_unregisterStateMachine_statetMachineIndex_2_2'
                            439 ;------------------------------------------------------------
                            440 ;	D:/EiqEnergy/Projects/Software/_SoftwareLibraries/StateMachines/stateMachine_G4.c:74: bool unregisterStateMachine(		stateMachine_t* sm)
                            441 ;	-----------------------------------------
                            442 ;	 function unregisterStateMachine
                            443 ;	-----------------------------------------
   00E6                     444 _unregisterStateMachine:
   00E6 AA F0               445 	mov	r2,b
   00E8 AB 83               446 	mov	r3,dph
   00EA E5 82               447 	mov	a,dpl
   00EC 90s00r9E            448 	mov	dptr,#_unregisterStateMachine_sm_1_1
   00EF F0                  449 	movx	@dptr,a
   00F0 A3                  450 	inc	dptr
   00F1 EB                  451 	mov	a,r3
   00F2 F0                  452 	movx	@dptr,a
   00F3 A3                  453 	inc	dptr
   00F4 EA                  454 	mov	a,r2
   00F5 F0                  455 	movx	@dptr,a
                            456 ;	D:/EiqEnergy/Projects/Software/_SoftwareLibraries/StateMachines/stateMachine_G4.c:76: if(sm)
   00F6 90s00r9E            457 	mov	dptr,#_unregisterStateMachine_sm_1_1
   00F9 E0                  458 	movx	a,@dptr
   00FA FA                  459 	mov	r2,a
   00FB A3                  460 	inc	dptr
   00FC E0                  461 	movx	a,@dptr
   00FD FB                  462 	mov	r3,a
   00FE A3                  463 	inc	dptr
   00FF E0                  464 	movx	a,@dptr
   0100 FC                  465 	mov	r4,a
   0101 EA                  466 	mov	a,r2
   0102 4B                  467 	orl	a,r3
   0103 4C                  468 	orl	a,r4
   0104 60 44               469 	jz	00104$
                            470 ;	D:/EiqEnergy/Projects/Software/_SoftwareLibraries/StateMachines/stateMachine_G4.c:80: for( statetMachineIndex = 0 ; statetMachineIndex < configMAXIMUM_NUMBER_OF_STATE_MACHINES ; statetMachineIndex++ )
   0106 7D 00               471 	mov	r5,#0x00
   0108                     472 00105$:
   0108 BD 32 00            473 	cjne	r5,#0x32,00116$
   010B                     474 00116$:
   010B 50 3D               475 	jnc	00104$
                            476 ;	D:/EiqEnergy/Projects/Software/_SoftwareLibraries/StateMachines/stateMachine_G4.c:82: if(stateMachines[statetMachineIndex] == sm)
   010D ED                  477 	mov	a,r5
   010E 75 F0 03            478 	mov	b,#0x03
   0111 A4                  479 	mul	ab
   0112 24r00               480 	add	a,#_stateMachines
   0114 FE                  481 	mov	r6,a
   0115 E4                  482 	clr	a
   0116 34s00               483 	addc	a,#(_stateMachines >> 8)
   0118 FF                  484 	mov	r7,a
   0119 C0 05               485 	push	ar5
   011B 8E 82               486 	mov	dpl,r6
   011D 8F 83               487 	mov	dph,r7
   011F E0                  488 	movx	a,@dptr
   0120 F8                  489 	mov	r0,a
   0121 A3                  490 	inc	dptr
   0122 E0                  491 	movx	a,@dptr
   0123 F9                  492 	mov	r1,a
   0124 A3                  493 	inc	dptr
   0125 E0                  494 	movx	a,@dptr
   0126 FD                  495 	mov	r5,a
   0127 E8                  496 	mov	a,r0
   0128 B5 02 0A            497 	cjne	a,ar2,00118$
   012B E9                  498 	mov	a,r1
   012C B5 03 06            499 	cjne	a,ar3,00118$
   012F ED                  500 	mov	a,r5
   0130 B5 04 02            501 	cjne	a,ar4,00118$
   0133 80 04               502 	sjmp	00119$
   0135                     503 00118$:
   0135 D0 05               504 	pop	ar5
   0137 80 0E               505 	sjmp	00107$
   0139                     506 00119$:
   0139 D0 05               507 	pop	ar5
                            508 ;	D:/EiqEnergy/Projects/Software/_SoftwareLibraries/StateMachines/stateMachine_G4.c:84: stateMachines[statetMachineIndex] = NULL ;
   013B 8E 82               509 	mov	dpl,r6
   013D 8F 83               510 	mov	dph,r7
   013F E4                  511 	clr	a
   0140 F0                  512 	movx	@dptr,a
   0141 A3                  513 	inc	dptr
   0142 F0                  514 	movx	@dptr,a
   0143 A3                  515 	inc	dptr
   0144 F0                  516 	movx	@dptr,a
                            517 ;	D:/EiqEnergy/Projects/Software/_SoftwareLibraries/StateMachines/stateMachine_G4.c:86: return true ;
   0145 D3                  518 	setb	c
   0146 22                  519 	ret
   0147                     520 00107$:
                            521 ;	D:/EiqEnergy/Projects/Software/_SoftwareLibraries/StateMachines/stateMachine_G4.c:80: for( statetMachineIndex = 0 ; statetMachineIndex < configMAXIMUM_NUMBER_OF_STATE_MACHINES ; statetMachineIndex++ )
   0147 0D                  522 	inc	r5
   0148 80 BE               523 	sjmp	00105$
   014A                     524 00104$:
                            525 ;	D:/EiqEnergy/Projects/Software/_SoftwareLibraries/StateMachines/stateMachine_G4.c:91: return false ;
   014A C3                  526 	clr	c
   014B 22                  527 	ret
                            528 ;------------------------------------------------------------
                            529 ;Allocation info for local variables in function 'iterateAllStateMachines'
                            530 ;------------------------------------------------------------
                            531 ;statetMachineIndex        Allocated with name '_iterateAllStateMachines_statetMachineIndex_1_1'
                            532 ;------------------------------------------------------------
                            533 ;	D:/EiqEnergy/Projects/Software/_SoftwareLibraries/StateMachines/stateMachine_G4.c:95: void iterateAllStateMachines(	void)
                            534 ;	-----------------------------------------
                            535 ;	 function iterateAllStateMachines
                            536 ;	-----------------------------------------
   014C                     537 _iterateAllStateMachines:
                            538 ;	D:/EiqEnergy/Projects/Software/_SoftwareLibraries/StateMachines/stateMachine_G4.c:99: for( statetMachineIndex = 0 ; statetMachineIndex < configMAXIMUM_NUMBER_OF_STATE_MACHINES ; statetMachineIndex++ )
   014C 7A 00               539 	mov	r2,#0x00
   014E                     540 00103$:
   014E BA 32 00            541 	cjne	r2,#0x32,00113$
   0151                     542 00113$:
   0151 50 31               543 	jnc	00107$
                            544 ;	D:/EiqEnergy/Projects/Software/_SoftwareLibraries/StateMachines/stateMachine_G4.c:101: if(stateMachines[statetMachineIndex] != NULL)
   0153 EA                  545 	mov	a,r2
   0154 75 F0 03            546 	mov	b,#0x03
   0157 A4                  547 	mul	ab
   0158 24r00               548 	add	a,#_stateMachines
   015A F5 82               549 	mov	dpl,a
   015C E4                  550 	clr	a
   015D 34s00               551 	addc	a,#(_stateMachines >> 8)
   015F F5 83               552 	mov	dph,a
   0161 E0                  553 	movx	a,@dptr
   0162 FB                  554 	mov	r3,a
   0163 A3                  555 	inc	dptr
   0164 E0                  556 	movx	a,@dptr
   0165 FC                  557 	mov	r4,a
   0166 A3                  558 	inc	dptr
   0167 E0                  559 	movx	a,@dptr
   0168 FD                  560 	mov	r5,a
   0169 BB 00 08            561 	cjne	r3,#0x00,00115$
   016C BC 00 05            562 	cjne	r4,#0x00,00115$
   016F BD 00 02            563 	cjne	r5,#0x00,00115$
   0172 80 0D               564 	sjmp	00105$
   0174                     565 00115$:
                            566 ;	D:/EiqEnergy/Projects/Software/_SoftwareLibraries/StateMachines/stateMachine_G4.c:103: iterateStateMachine(stateMachines[statetMachineIndex]) ;
   0174 8B 82               567 	mov	dpl,r3
   0176 8C 83               568 	mov	dph,r4
   0178 8D F0               569 	mov	b,r5
   017A C0 02               570 	push	ar2
   017C 12s03r34            571 	lcall	_iterateStateMachine
   017F D0 02               572 	pop	ar2
   0181                     573 00105$:
                            574 ;	D:/EiqEnergy/Projects/Software/_SoftwareLibraries/StateMachines/stateMachine_G4.c:99: for( statetMachineIndex = 0 ; statetMachineIndex < configMAXIMUM_NUMBER_OF_STATE_MACHINES ; statetMachineIndex++ )
   0181 0A                  575 	inc	r2
   0182 80 CA               576 	sjmp	00103$
   0184                     577 00107$:
   0184 22                  578 	ret
                            579 ;------------------------------------------------------------
                            580 ;Allocation info for local variables in function 'callStateHandler'
                            581 ;------------------------------------------------------------
                            582 ;sloc0                     Allocated with name '_callStateHandler_sloc0_1_0'
                            583 ;sloc1                     Allocated with name '_callStateHandler_sloc1_1_0'
                            584 ;state                     Allocated with name '_callStateHandler_PARM_2'
                            585 ;event                     Allocated with name '_callStateHandler_PARM_3'
                            586 ;sm                        Allocated with name '_callStateHandler_sm_1_1'
                            587 ;response                  Allocated with name '_callStateHandler_response_1_1'
                            588 ;------------------------------------------------------------
                            589 ;	D:/EiqEnergy/Projects/Software/_SoftwareLibraries/StateMachines/stateMachine_G4.c:113: stateHandlerResponse_t callStateHandler(stateMachine_t* sm, state_t* state, event_t* event)
                            590 ;	-----------------------------------------
                            591 ;	 function callStateHandler
                            592 ;	-----------------------------------------
   0185                     593 _callStateHandler:
   0185 AA F0               594 	mov	r2,b
   0187 AB 83               595 	mov	r3,dph
   0189 E5 82               596 	mov	a,dpl
   018B 90s00rA7            597 	mov	dptr,#_callStateHandler_sm_1_1
   018E F0                  598 	movx	@dptr,a
   018F A3                  599 	inc	dptr
   0190 EB                  600 	mov	a,r3
   0191 F0                  601 	movx	@dptr,a
   0192 A3                  602 	inc	dptr
   0193 EA                  603 	mov	a,r2
   0194 F0                  604 	movx	@dptr,a
                            605 ;	D:/EiqEnergy/Projects/Software/_SoftwareLibraries/StateMachines/stateMachine_G4.c:117: printf("\t\t\tCalling state: %s, event: %s, ", state->stateName, event->eventType <= SUBSTATE_EXIT ? eventTypes[event->eventType] : "<USER_EVENT>") ;
   0195 90s00rA4            606 	mov	dptr,#_callStateHandler_PARM_3
   0198 E0                  607 	movx	a,@dptr
   0199 FA                  608 	mov	r2,a
   019A A3                  609 	inc	dptr
   019B E0                  610 	movx	a,@dptr
   019C FB                  611 	mov	r3,a
   019D A3                  612 	inc	dptr
   019E E0                  613 	movx	a,@dptr
   019F FC                  614 	mov	r4,a
   01A0 8A 82               615 	mov	dpl,r2
   01A2 8B 83               616 	mov	dph,r3
   01A4 8C F0               617 	mov	b,r4
   01A6 12s00r00            618 	lcall	__gptrget
   01A9 FD                  619 	mov	r5,a
   01AA C3                  620 	clr	c
   01AB 74 03               621 	mov	a,#0x03
   01AD 9D                  622 	subb	a,r5
   01AE B3                  623 	cpl	c
   01AF E4                  624 	clr	a
   01B0 33                  625 	rlc	a
   01B1 FE                  626 	mov	r6,a
   01B2 60 1B               627 	jz	00105$
   01B4 ED                  628 	mov	a,r5
   01B5 75 F0 03            629 	mov	b,#0x03
   01B8 A4                  630 	mul	ab
   01B9 24r00               631 	add	a,#_eventTypes
   01BB F5 82               632 	mov	dpl,a
   01BD E4                  633 	clr	a
   01BE 34s00               634 	addc	a,#(_eventTypes >> 8)
   01C0 F5 83               635 	mov	dph,a
   01C2 E0                  636 	movx	a,@dptr
   01C3 F5*00               637 	mov	_callStateHandler_sloc0_1_0,a
   01C5 A3                  638 	inc	dptr
   01C6 E0                  639 	movx	a,@dptr
   01C7 F5*01               640 	mov	(_callStateHandler_sloc0_1_0 + 1),a
   01C9 A3                  641 	inc	dptr
   01CA E0                  642 	movx	a,@dptr
   01CB F5*02               643 	mov	(_callStateHandler_sloc0_1_0 + 2),a
   01CD 80 09               644 	sjmp	00106$
   01CF                     645 00105$:
   01CF 75*00r22            646 	mov	_callStateHandler_sloc0_1_0,#__str_1
   01D2 75*01s00            647 	mov	(_callStateHandler_sloc0_1_0 + 1),#(__str_1 >> 8)
   01D5 75*02 80            648 	mov	(_callStateHandler_sloc0_1_0 + 2),#0x80
   01D8                     649 00106$:
   01D8 90s00rA1            650 	mov	dptr,#_callStateHandler_PARM_2
   01DB E0                  651 	movx	a,@dptr
   01DC F5*03               652 	mov	_callStateHandler_sloc1_1_0,a
   01DE A3                  653 	inc	dptr
   01DF E0                  654 	movx	a,@dptr
   01E0 F5*04               655 	mov	(_callStateHandler_sloc1_1_0 + 1),a
   01E2 A3                  656 	inc	dptr
   01E3 E0                  657 	movx	a,@dptr
   01E4 F5*05               658 	mov	(_callStateHandler_sloc1_1_0 + 2),a
   01E6 74 06               659 	mov	a,#0x06
   01E8 25*03               660 	add	a,_callStateHandler_sloc1_1_0
   01EA FE                  661 	mov	r6,a
   01EB E4                  662 	clr	a
   01EC 35*04               663 	addc	a,(_callStateHandler_sloc1_1_0 + 1)
   01EE FF                  664 	mov	r7,a
   01EF AD*05               665 	mov	r5,(_callStateHandler_sloc1_1_0 + 2)
   01F1 8E 82               666 	mov	dpl,r6
   01F3 8F 83               667 	mov	dph,r7
   01F5 8D F0               668 	mov	b,r5
   01F7 12s00r00            669 	lcall	__gptrget
   01FA FE                  670 	mov	r6,a
   01FB A3                  671 	inc	dptr
   01FC 12s00r00            672 	lcall	__gptrget
   01FF FF                  673 	mov	r7,a
   0200 A3                  674 	inc	dptr
   0201 12s00r00            675 	lcall	__gptrget
   0204 FD                  676 	mov	r5,a
   0205 C0 02               677 	push	ar2
   0207 C0 03               678 	push	ar3
   0209 C0 04               679 	push	ar4
   020B C0*00               680 	push	_callStateHandler_sloc0_1_0
   020D C0*01               681 	push	(_callStateHandler_sloc0_1_0 + 1)
   020F C0*02               682 	push	(_callStateHandler_sloc0_1_0 + 2)
   0211 C0 06               683 	push	ar6
   0213 C0 07               684 	push	ar7
   0215 C0 05               685 	push	ar5
   0217 74r00               686 	mov	a,#__str_0
   0219 C0 E0               687 	push	acc
   021B 74s00               688 	mov	a,#(__str_0 >> 8)
   021D C0 E0               689 	push	acc
   021F 74 80               690 	mov	a,#0x80
   0221 C0 E0               691 	push	acc
   0223 12s00r00            692 	lcall	_printf
   0226 E5 81               693 	mov	a,sp
   0228 24 F7               694 	add	a,#0xf7
   022A F5 81               695 	mov	sp,a
   022C D0 04               696 	pop	ar4
   022E D0 03               697 	pop	ar3
   0230 D0 02               698 	pop	ar2
                            699 ;	D:/EiqEnergy/Projects/Software/_SoftwareLibraries/StateMachines/stateMachine_G4.c:119: response = ((callStateHandler_t)(state->handler))(sm, event) ;
   0232 74 04               700 	mov	a,#0x04
   0234 25*03               701 	add	a,_callStateHandler_sloc1_1_0
   0236 FD                  702 	mov	r5,a
   0237 E4                  703 	clr	a
   0238 35*04               704 	addc	a,(_callStateHandler_sloc1_1_0 + 1)
   023A FE                  705 	mov	r6,a
   023B AF*05               706 	mov	r7,(_callStateHandler_sloc1_1_0 + 2)
   023D 8D 82               707 	mov	dpl,r5
   023F 8E 83               708 	mov	dph,r6
   0241 8F F0               709 	mov	b,r7
   0243 12s00r00            710 	lcall	__gptrget
   0246 FD                  711 	mov	r5,a
   0247 A3                  712 	inc	dptr
   0248 12s00r00            713 	lcall	__gptrget
   024B FE                  714 	mov	r6,a
   024C 90s00rA7            715 	mov	dptr,#_callStateHandler_sm_1_1
   024F E0                  716 	movx	a,@dptr
   0250 FF                  717 	mov	r7,a
   0251 A3                  718 	inc	dptr
   0252 E0                  719 	movx	a,@dptr
   0253 F8                  720 	mov	r0,a
   0254 A3                  721 	inc	dptr
   0255 E0                  722 	movx	a,@dptr
   0256 F9                  723 	mov	r1,a
   0257 C0 05               724 	push	ar5
   0259 C0 06               725 	push	ar6
   025B C0 02               726 	push	ar2
   025D C0 03               727 	push	ar3
   025F C0 04               728 	push	ar4
   0261 74r74               729 	mov	a,#00111$
   0263 C0 E0               730 	push	acc
   0265 74s02               731 	mov	a,#(00111$ >> 8)
   0267 C0 E0               732 	push	acc
   0269 C0 05               733 	push	ar5
   026B C0 06               734 	push	ar6
   026D 8F 82               735 	mov	dpl,r7
   026F 88 83               736 	mov	dph,r0
   0271 89 F0               737 	mov	b,r1
   0273 22                  738 	ret
   0274                     739 00111$:
   0274 AA 82               740 	mov	r2,dpl
   0276 15 81               741 	dec	sp
   0278 15 81               742 	dec	sp
   027A 15 81               743 	dec	sp
   027C D0 06               744 	pop	ar6
   027E D0 05               745 	pop	ar5
                            746 ;	D:/EiqEnergy/Projects/Software/_SoftwareLibraries/StateMachines/stateMachine_G4.c:121: printf("response: %s ", responseTypes[response]) ;
   0280 EA                  747 	mov	a,r2
   0281 75 F0 03            748 	mov	b,#0x03
   0284 A4                  749 	mul	ab
   0285 24r0C               750 	add	a,#_responseTypes
   0287 F5 82               751 	mov	dpl,a
   0289 E4                  752 	clr	a
   028A 34s00               753 	addc	a,#(_responseTypes >> 8)
   028C F5 83               754 	mov	dph,a
   028E E0                  755 	movx	a,@dptr
   028F FB                  756 	mov	r3,a
   0290 A3                  757 	inc	dptr
   0291 E0                  758 	movx	a,@dptr
   0292 FC                  759 	mov	r4,a
   0293 A3                  760 	inc	dptr
   0294 E0                  761 	movx	a,@dptr
   0295 FD                  762 	mov	r5,a
   0296 C0 02               763 	push	ar2
   0298 C0 03               764 	push	ar3
   029A C0 04               765 	push	ar4
   029C C0 05               766 	push	ar5
   029E 74r2F               767 	mov	a,#__str_2
   02A0 C0 E0               768 	push	acc
   02A2 74s00               769 	mov	a,#(__str_2 >> 8)
   02A4 C0 E0               770 	push	acc
   02A6 74 80               771 	mov	a,#0x80
   02A8 C0 E0               772 	push	acc
   02AA 12s00r00            773 	lcall	_printf
   02AD E5 81               774 	mov	a,sp
   02AF 24 FA               775 	add	a,#0xfa
   02B1 F5 81               776 	mov	sp,a
   02B3 D0 02               777 	pop	ar2
                            778 ;	D:/EiqEnergy/Projects/Software/_SoftwareLibraries/StateMachines/stateMachine_G4.c:123: if(response == TRANSITION)
   02B5 BA 02 60            779 	cjne	r2,#0x02,00102$
                            780 ;	D:/EiqEnergy/Projects/Software/_SoftwareLibraries/StateMachines/stateMachine_G4.c:125: printf("to %s ", ((state_t*)(sm->nextState))->stateName) ;
   02B8 90s00rA7            781 	mov	dptr,#_callStateHandler_sm_1_1
   02BB E0                  782 	movx	a,@dptr
   02BC FB                  783 	mov	r3,a
   02BD A3                  784 	inc	dptr
   02BE E0                  785 	movx	a,@dptr
   02BF FC                  786 	mov	r4,a
   02C0 A3                  787 	inc	dptr
   02C1 E0                  788 	movx	a,@dptr
   02C2 FD                  789 	mov	r5,a
   02C3 74 09               790 	mov	a,#0x09
   02C5 2B                  791 	add	a,r3
   02C6 FB                  792 	mov	r3,a
   02C7 E4                  793 	clr	a
   02C8 3C                  794 	addc	a,r4
   02C9 FC                  795 	mov	r4,a
   02CA 8B 82               796 	mov	dpl,r3
   02CC 8C 83               797 	mov	dph,r4
   02CE 8D F0               798 	mov	b,r5
   02D0 12s00r00            799 	lcall	__gptrget
   02D3 FB                  800 	mov	r3,a
   02D4 A3                  801 	inc	dptr
   02D5 12s00r00            802 	lcall	__gptrget
   02D8 FC                  803 	mov	r4,a
   02D9 A3                  804 	inc	dptr
   02DA 12s00r00            805 	lcall	__gptrget
   02DD FD                  806 	mov	r5,a
   02DE 74 06               807 	mov	a,#0x06
   02E0 2B                  808 	add	a,r3
   02E1 FB                  809 	mov	r3,a
   02E2 E4                  810 	clr	a
   02E3 3C                  811 	addc	a,r4
   02E4 FC                  812 	mov	r4,a
   02E5 8B 82               813 	mov	dpl,r3
   02E7 8C 83               814 	mov	dph,r4
   02E9 8D F0               815 	mov	b,r5
   02EB 12s00r00            816 	lcall	__gptrget
   02EE FB                  817 	mov	r3,a
   02EF A3                  818 	inc	dptr
   02F0 12s00r00            819 	lcall	__gptrget
   02F3 FC                  820 	mov	r4,a
   02F4 A3                  821 	inc	dptr
   02F5 12s00r00            822 	lcall	__gptrget
   02F8 FD                  823 	mov	r5,a
   02F9 C0 02               824 	push	ar2
   02FB C0 03               825 	push	ar3
   02FD C0 04               826 	push	ar4
   02FF C0 05               827 	push	ar5
   0301 74r3D               828 	mov	a,#__str_3
   0303 C0 E0               829 	push	acc
   0305 74s00               830 	mov	a,#(__str_3 >> 8)
   0307 C0 E0               831 	push	acc
   0309 74 80               832 	mov	a,#0x80
   030B C0 E0               833 	push	acc
   030D 12s00r00            834 	lcall	_printf
   0310 E5 81               835 	mov	a,sp
   0312 24 FA               836 	add	a,#0xfa
   0314 F5 81               837 	mov	sp,a
   0316 D0 02               838 	pop	ar2
   0318                     839 00102$:
                            840 ;	D:/EiqEnergy/Projects/Software/_SoftwareLibraries/StateMachines/stateMachine_G4.c:128: printf("\n") ;
   0318 C0 02               841 	push	ar2
   031A 74r44               842 	mov	a,#__str_4
   031C C0 E0               843 	push	acc
   031E 74s00               844 	mov	a,#(__str_4 >> 8)
   0320 C0 E0               845 	push	acc
   0322 74 80               846 	mov	a,#0x80
   0324 C0 E0               847 	push	acc
   0326 12s00r00            848 	lcall	_printf
   0329 15 81               849 	dec	sp
   032B 15 81               850 	dec	sp
   032D 15 81               851 	dec	sp
   032F D0 02               852 	pop	ar2
                            853 ;	D:/EiqEnergy/Projects/Software/_SoftwareLibraries/StateMachines/stateMachine_G4.c:130: return response ;
   0331 8A 82               854 	mov	dpl,r2
   0333 22                  855 	ret
                            856 ;------------------------------------------------------------
                            857 ;Allocation info for local variables in function 'iterateStateMachine'
                            858 ;------------------------------------------------------------
                            859 ;sloc0                     Allocated with name '_iterateStateMachine_sloc0_1_0'
                            860 ;sloc1                     Allocated with name '_iterateStateMachine_sloc1_1_0'
                            861 ;sloc2                     Allocated with name '_iterateStateMachine_sloc2_1_0'
                            862 ;sloc3                     Allocated with name '_iterateStateMachine_sloc3_1_0'
                            863 ;sloc4                     Allocated with name '_iterateStateMachine_sloc4_1_0'
                            864 ;sloc5                     Allocated with name '_iterateStateMachine_sloc5_1_0'
                            865 ;sloc6                     Allocated with name '_iterateStateMachine_sloc6_1_0'
                            866 ;sloc7                     Allocated with name '_iterateStateMachine_sloc7_1_0'
                            867 ;sloc8                     Allocated with name '_iterateStateMachine_sloc8_1_0'
                            868 ;sloc9                     Allocated with name '_iterateStateMachine_sloc9_1_0'
                            869 ;sloc10                    Allocated with name '_iterateStateMachine_sloc10_1_0'
                            870 ;sm                        Allocated with name '_iterateStateMachine_sm_1_1'
                            871 ;initialTransitionEvent    Allocated with name '_iterateStateMachine_initialTransitionEvent_1_1'
                            872 ;enterEvent                Allocated with name '_iterateStateMachine_enterEvent_1_1'
                            873 ;exitEvent                 Allocated with name '_iterateStateMachine_exitEvent_1_1'
                            874 ;iterationMax              Allocated with name '_iterateStateMachine_iterationMax_1_1'
                            875 ;eventToProcess            Allocated with name '_iterateStateMachine_eventToProcess_2_3'
                            876 ;stateBeingProcessed       Allocated with name '_iterateStateMachine_stateBeingProcessed_2_3'
                            877 ;action                    Allocated with name '_iterateStateMachine_action_2_3'
                            878 ;source                    Allocated with name '_iterateStateMachine_source_3_8'
                            879 ;target                    Allocated with name '_iterateStateMachine_target_3_8'
                            880 ;sourceHierarchy           Allocated with name '_iterateStateMachine_sourceHierarchy_4_13'
                            881 ;sourceIndex               Allocated with name '_iterateStateMachine_sourceIndex_4_13'
                            882 ;targetHierarchy           Allocated with name '_iterateStateMachine_targetHierarchy_4_13'
                            883 ;targetIndex               Allocated with name '_iterateStateMachine_targetIndex_4_13'
                            884 ;LCA                       Allocated with name '_iterateStateMachine_LCA_4_13'
                            885 ;entryIndex                Allocated with name '_iterateStateMachine_entryIndex_4_13'
                            886 ;exitIndex                 Allocated with name '_iterateStateMachine_exitIndex_4_13'
                            887 ;exitIndex                 Allocated with name '_iterateStateMachine_exitIndex_6_15'
                            888 ;LCAindex                  Allocated with name '_iterateStateMachine_LCAindex_5_21'
                            889 ;------------------------------------------------------------
                            890 ;	D:/EiqEnergy/Projects/Software/_SoftwareLibraries/StateMachines/stateMachine_G4.c:134: void iterateStateMachine(	stateMachine_t* sm)
                            891 ;	-----------------------------------------
                            892 ;	 function iterateStateMachine
                            893 ;	-----------------------------------------
   0334                     894 _iterateStateMachine:
   0334 AA F0               895 	mov	r2,b
   0336 AB 83               896 	mov	r3,dph
   0338 E5 82               897 	mov	a,dpl
   033A 90s00rAA            898 	mov	dptr,#_iterateStateMachine_sm_1_1
   033D F0                  899 	movx	@dptr,a
   033E A3                  900 	inc	dptr
   033F EB                  901 	mov	a,r3
   0340 F0                  902 	movx	@dptr,a
   0341 A3                  903 	inc	dptr
   0342 EA                  904 	mov	a,r2
   0343 F0                  905 	movx	@dptr,a
                            906 ;	D:/EiqEnergy/Projects/Software/_SoftwareLibraries/StateMachines/stateMachine_G4.c:141: printf("\titerating %s\n", sm->stateMachineName) ;
   0344 90s00rAA            907 	mov	dptr,#_iterateStateMachine_sm_1_1
   0347 E0                  908 	movx	a,@dptr
   0348 FA                  909 	mov	r2,a
   0349 A3                  910 	inc	dptr
   034A E0                  911 	movx	a,@dptr
   034B FB                  912 	mov	r3,a
   034C A3                  913 	inc	dptr
   034D E0                  914 	movx	a,@dptr
   034E FC                  915 	mov	r4,a
   034F 74 03               916 	mov	a,#0x03
   0351 2A                  917 	add	a,r2
   0352 FD                  918 	mov	r5,a
   0353 E4                  919 	clr	a
   0354 3B                  920 	addc	a,r3
   0355 FE                  921 	mov	r6,a
   0356 8C 07               922 	mov	ar7,r4
   0358 8D 82               923 	mov	dpl,r5
   035A 8E 83               924 	mov	dph,r6
   035C 8F F0               925 	mov	b,r7
   035E 12s00r00            926 	lcall	__gptrget
   0361 FD                  927 	mov	r5,a
   0362 A3                  928 	inc	dptr
   0363 12s00r00            929 	lcall	__gptrget
   0366 FE                  930 	mov	r6,a
   0367 A3                  931 	inc	dptr
   0368 12s00r00            932 	lcall	__gptrget
   036B FF                  933 	mov	r7,a
   036C C0 02               934 	push	ar2
   036E C0 03               935 	push	ar3
   0370 C0 04               936 	push	ar4
   0372 C0 05               937 	push	ar5
   0374 C0 06               938 	push	ar6
   0376 C0 07               939 	push	ar7
   0378 74r46               940 	mov	a,#__str_5
   037A C0 E0               941 	push	acc
   037C 74s00               942 	mov	a,#(__str_5 >> 8)
   037E C0 E0               943 	push	acc
   0380 74 80               944 	mov	a,#0x80
   0382 C0 E0               945 	push	acc
   0384 12s00r00            946 	lcall	_printf
   0387 E5 81               947 	mov	a,sp
   0389 24 FA               948 	add	a,#0xfa
   038B F5 81               949 	mov	sp,a
   038D D0 04               950 	pop	ar4
   038F D0 03               951 	pop	ar3
   0391 D0 02               952 	pop	ar2
                            953 ;	D:/EiqEnergy/Projects/Software/_SoftwareLibraries/StateMachines/stateMachine_G4.c:145: if(!sm->stateMachineInitialized)
   0393 74 13               954 	mov	a,#0x13
   0395 2A                  955 	add	a,r2
   0396 F5*06               956 	mov	_iterateStateMachine_sloc0_1_0,a
   0398 E4                  957 	clr	a
   0399 3B                  958 	addc	a,r3
   039A F5*07               959 	mov	(_iterateStateMachine_sloc0_1_0 + 1),a
   039C 8C*08               960 	mov	(_iterateStateMachine_sloc0_1_0 + 2),r4
   039E 85*06 82            961 	mov	dpl,_iterateStateMachine_sloc0_1_0
   03A1 85*07 83            962 	mov	dph,(_iterateStateMachine_sloc0_1_0 + 1)
   03A4 85*08 F0            963 	mov	b,(_iterateStateMachine_sloc0_1_0 + 2)
   03A7 12s00r00            964 	lcall	__gptrget
   03AA 60 03               965 	jz	00196$
   03AC 02s04r62            966 	ljmp	00169$
   03AF                     967 00196$:
                            968 ;	D:/EiqEnergy/Projects/Software/_SoftwareLibraries/StateMachines/stateMachine_G4.c:147: printf("\t\tinitializing...\n") ;
   03AF C0 02               969 	push	ar2
   03B1 C0 03               970 	push	ar3
   03B3 C0 04               971 	push	ar4
   03B5 74r55               972 	mov	a,#__str_6
   03B7 C0 E0               973 	push	acc
   03B9 74s00               974 	mov	a,#(__str_6 >> 8)
   03BB C0 E0               975 	push	acc
   03BD 74 80               976 	mov	a,#0x80
   03BF C0 E0               977 	push	acc
   03C1 12s00r00            978 	lcall	_printf
   03C4 15 81               979 	dec	sp
   03C6 15 81               980 	dec	sp
   03C8 15 81               981 	dec	sp
   03CA D0 04               982 	pop	ar4
   03CC D0 03               983 	pop	ar3
   03CE D0 02               984 	pop	ar2
                            985 ;	D:/EiqEnergy/Projects/Software/_SoftwareLibraries/StateMachines/stateMachine_G4.c:149: NormalInsert(&sm->eventQueue, &enterEvent) ;
   03D0 74 0C               986 	mov	a,#0x0C
   03D2 2A                  987 	add	a,r2
   03D3 F8                  988 	mov	r0,a
   03D4 E4                  989 	clr	a
   03D5 3B                  990 	addc	a,r3
   03D6 F9                  991 	mov	r1,a
   03D7 8C 05               992 	mov	ar5,r4
   03D9 90s00r00            993 	mov	dptr,#_NormalInsert_PARM_2
   03DC 74rAE               994 	mov	a,#_iterateStateMachine_enterEvent_1_1
   03DE F0                  995 	movx	@dptr,a
   03DF A3                  996 	inc	dptr
   03E0 74s00               997 	mov	a,#(_iterateStateMachine_enterEvent_1_1 >> 8)
   03E2 F0                  998 	movx	@dptr,a
   03E3 A3                  999 	inc	dptr
   03E4 E4                 1000 	clr	a
   03E5 F0                 1001 	movx	@dptr,a
   03E6 88 82              1002 	mov	dpl,r0
   03E8 89 83              1003 	mov	dph,r1
   03EA 8D F0              1004 	mov	b,r5
   03EC C0 02              1005 	push	ar2
   03EE C0 03              1006 	push	ar3
   03F0 C0 04              1007 	push	ar4
   03F2 12s00r00           1008 	lcall	_NormalInsert
   03F5 D0 04              1009 	pop	ar4
   03F7 D0 03              1010 	pop	ar3
   03F9 D0 02              1011 	pop	ar2
                           1012 ;	D:/EiqEnergy/Projects/Software/_SoftwareLibraries/StateMachines/stateMachine_G4.c:150: NormalInsert(&sm->eventQueue, &initialTransitionEvent) ;
   03FB 74 0C              1013 	mov	a,#0x0C
   03FD 2A                 1014 	add	a,r2
   03FE FD                 1015 	mov	r5,a
   03FF E4                 1016 	clr	a
   0400 3B                 1017 	addc	a,r3
   0401 FE                 1018 	mov	r6,a
   0402 8C 07              1019 	mov	ar7,r4
   0404 90s00r00           1020 	mov	dptr,#_NormalInsert_PARM_2
   0407 74rAD              1021 	mov	a,#_iterateStateMachine_initialTransitionEvent_1_1
   0409 F0                 1022 	movx	@dptr,a
   040A A3                 1023 	inc	dptr
   040B 74s00              1024 	mov	a,#(_iterateStateMachine_initialTransitionEvent_1_1 >> 8)
   040D F0                 1025 	movx	@dptr,a
   040E A3                 1026 	inc	dptr
   040F E4                 1027 	clr	a
   0410 F0                 1028 	movx	@dptr,a
   0411 8D 82              1029 	mov	dpl,r5
   0413 8E 83              1030 	mov	dph,r6
   0415 8F F0              1031 	mov	b,r7
   0417 C0 02              1032 	push	ar2
   0419 C0 03              1033 	push	ar3
   041B C0 04              1034 	push	ar4
   041D 12s00r00           1035 	lcall	_NormalInsert
   0420 D0 04              1036 	pop	ar4
   0422 D0 03              1037 	pop	ar3
   0424 D0 02              1038 	pop	ar2
                           1039 ;	D:/EiqEnergy/Projects/Software/_SoftwareLibraries/StateMachines/stateMachine_G4.c:152: sm->currentState			= (state_t*)sm->topState ;
   0426 74 06              1040 	mov	a,#0x06
   0428 2A                 1041 	add	a,r2
   0429 FD                 1042 	mov	r5,a
   042A E4                 1043 	clr	a
   042B 3B                 1044 	addc	a,r3
   042C FE                 1045 	mov	r6,a
   042D 8C 07              1046 	mov	ar7,r4
   042F 8A 82              1047 	mov	dpl,r2
   0431 8B 83              1048 	mov	dph,r3
   0433 8C F0              1049 	mov	b,r4
   0435 12s00r00           1050 	lcall	__gptrget
   0438 FA                 1051 	mov	r2,a
   0439 A3                 1052 	inc	dptr
   043A 12s00r00           1053 	lcall	__gptrget
   043D FB                 1054 	mov	r3,a
   043E 7C 80              1055 	mov	r4,#0x80
   0440 8D 82              1056 	mov	dpl,r5
   0442 8E 83              1057 	mov	dph,r6
   0444 8F F0              1058 	mov	b,r7
   0446 EA                 1059 	mov	a,r2
   0447 12s00r00           1060 	lcall	__gptrput
   044A A3                 1061 	inc	dptr
   044B EB                 1062 	mov	a,r3
   044C 12s00r00           1063 	lcall	__gptrput
   044F A3                 1064 	inc	dptr
   0450 EC                 1065 	mov	a,r4
   0451 12s00r00           1066 	lcall	__gptrput
                           1067 ;	D:/EiqEnergy/Projects/Software/_SoftwareLibraries/StateMachines/stateMachine_G4.c:153: sm->stateMachineInitialized	= true ;
   0454 85*06 82           1068 	mov	dpl,_iterateStateMachine_sloc0_1_0
   0457 85*07 83           1069 	mov	dph,(_iterateStateMachine_sloc0_1_0 + 1)
   045A 85*08 F0           1070 	mov	b,(_iterateStateMachine_sloc0_1_0 + 2)
   045D 74 01              1071 	mov	a,#0x01
   045F 12s00r00           1072 	lcall	__gptrput
                           1073 ;	D:/EiqEnergy/Projects/Software/_SoftwareLibraries/StateMachines/stateMachine_G4.c:158: while(!isEmpty(&sm->eventQueue))
   0462                    1074 00169$:
   0462 90s00rAA           1075 	mov	dptr,#_iterateStateMachine_sm_1_1
   0465 E0                 1076 	movx	a,@dptr
   0466 F5*1B              1077 	mov	_iterateStateMachine_sloc7_1_0,a
   0468 A3                 1078 	inc	dptr
   0469 E0                 1079 	movx	a,@dptr
   046A F5*1C              1080 	mov	(_iterateStateMachine_sloc7_1_0 + 1),a
   046C A3                 1081 	inc	dptr
   046D E0                 1082 	movx	a,@dptr
   046E F5*1D              1083 	mov	(_iterateStateMachine_sloc7_1_0 + 2),a
   0470 AD*1B              1084 	mov	r5,_iterateStateMachine_sloc7_1_0
   0472 AE*1C              1085 	mov	r6,(_iterateStateMachine_sloc7_1_0 + 1)
   0474 AF*1D              1086 	mov	r7,(_iterateStateMachine_sloc7_1_0 + 2)
   0476 74 09              1087 	mov	a,#0x09
   0478 25*1B              1088 	add	a,_iterateStateMachine_sloc7_1_0
   047A F5*06              1089 	mov	_iterateStateMachine_sloc0_1_0,a
   047C E4                 1090 	clr	a
   047D 35*1C              1091 	addc	a,(_iterateStateMachine_sloc7_1_0 + 1)
   047F F5*07              1092 	mov	(_iterateStateMachine_sloc0_1_0 + 1),a
   0481 85*1D*08           1093 	mov	(_iterateStateMachine_sloc0_1_0 + 2),(_iterateStateMachine_sloc7_1_0 + 2)
   0484 85*1B*09           1094 	mov	_iterateStateMachine_sloc1_1_0,_iterateStateMachine_sloc7_1_0
   0487 85*1C*0A           1095 	mov	(_iterateStateMachine_sloc1_1_0 + 1),(_iterateStateMachine_sloc7_1_0 + 1)
   048A 85*1D*0B           1096 	mov	(_iterateStateMachine_sloc1_1_0 + 2),(_iterateStateMachine_sloc7_1_0 + 2)
   048D 85*1B*0C           1097 	mov	_iterateStateMachine_sloc2_1_0,_iterateStateMachine_sloc7_1_0
   0490 85*1C*0D           1098 	mov	(_iterateStateMachine_sloc2_1_0 + 1),(_iterateStateMachine_sloc7_1_0 + 1)
   0493 85*1D*0E           1099 	mov	(_iterateStateMachine_sloc2_1_0 + 2),(_iterateStateMachine_sloc7_1_0 + 2)
   0496 74 06              1100 	mov	a,#0x06
   0498 25*1B              1101 	add	a,_iterateStateMachine_sloc7_1_0
   049A F5*0F              1102 	mov	_iterateStateMachine_sloc3_1_0,a
   049C E4                 1103 	clr	a
   049D 35*1C              1104 	addc	a,(_iterateStateMachine_sloc7_1_0 + 1)
   049F F5*10              1105 	mov	(_iterateStateMachine_sloc3_1_0 + 1),a
   04A1 85*1D*11           1106 	mov	(_iterateStateMachine_sloc3_1_0 + 2),(_iterateStateMachine_sloc7_1_0 + 2)
   04A4 85*1B*12           1107 	mov	_iterateStateMachine_sloc4_1_0,_iterateStateMachine_sloc7_1_0
   04A7 85*1C*13           1108 	mov	(_iterateStateMachine_sloc4_1_0 + 1),(_iterateStateMachine_sloc7_1_0 + 1)
   04AA 85*1D*14           1109 	mov	(_iterateStateMachine_sloc4_1_0 + 2),(_iterateStateMachine_sloc7_1_0 + 2)
   04AD 85*1B*15           1110 	mov	_iterateStateMachine_sloc5_1_0,_iterateStateMachine_sloc7_1_0
   04B0 85*1C*16           1111 	mov	(_iterateStateMachine_sloc5_1_0 + 1),(_iterateStateMachine_sloc7_1_0 + 1)
   04B3 85*1D*17           1112 	mov	(_iterateStateMachine_sloc5_1_0 + 2),(_iterateStateMachine_sloc7_1_0 + 2)
   04B6                    1113 00155$:
   04B6 C0 05              1114 	push	ar5
   04B8 C0 06              1115 	push	ar6
   04BA C0 07              1116 	push	ar7
   04BC 74 0C              1117 	mov	a,#0x0C
   04BE 25*1B              1118 	add	a,_iterateStateMachine_sloc7_1_0
   04C0 F8                 1119 	mov	r0,a
   04C1 E4                 1120 	clr	a
   04C2 35*1C              1121 	addc	a,(_iterateStateMachine_sloc7_1_0 + 1)
   04C4 F9                 1122 	mov	r1,a
   04C5 AD*1D              1123 	mov	r5,(_iterateStateMachine_sloc7_1_0 + 2)
   04C7 88 82              1124 	mov	dpl,r0
   04C9 89 83              1125 	mov	dph,r1
   04CB 8D F0              1126 	mov	b,r5
   04CD C0 05              1127 	push	ar5
   04CF C0 06              1128 	push	ar6
   04D1 C0 07              1129 	push	ar7
   04D3 12s00r00           1130 	lcall	_isEmpty
   04D6 E5 82              1131 	mov	a,dpl
   04D8 D0 07              1132 	pop	ar7
   04DA D0 06              1133 	pop	ar6
   04DC D0 05              1134 	pop	ar5
   04DE D0 07              1135 	pop	ar7
   04E0 D0 06              1136 	pop	ar6
   04E2 D0 05              1137 	pop	ar5
   04E4 60 03              1138 	jz	00197$
   04E6 02s11rE9           1139 	ljmp	00157$
   04E9                    1140 00197$:
                           1141 ;	D:/EiqEnergy/Projects/Software/_SoftwareLibraries/StateMachines/stateMachine_G4.c:160: event_t*				eventToProcess		= Remove(&sm->eventQueue) ;
   04E9 C0 05              1142 	push	ar5
   04EB C0 06              1143 	push	ar6
   04ED C0 07              1144 	push	ar7
   04EF 74 0C              1145 	mov	a,#0x0C
   04F1 25*1B              1146 	add	a,_iterateStateMachine_sloc7_1_0
   04F3 F8                 1147 	mov	r0,a
   04F4 E4                 1148 	clr	a
   04F5 35*1C              1149 	addc	a,(_iterateStateMachine_sloc7_1_0 + 1)
   04F7 F9                 1150 	mov	r1,a
   04F8 AD*1D              1151 	mov	r5,(_iterateStateMachine_sloc7_1_0 + 2)
   04FA 88 82              1152 	mov	dpl,r0
   04FC 89 83              1153 	mov	dph,r1
   04FE 8D F0              1154 	mov	b,r5
   0500 C0 05              1155 	push	ar5
   0502 C0 06              1156 	push	ar6
   0504 C0 07              1157 	push	ar7
   0506 12s00r00           1158 	lcall	_Remove
   0509 85 82*18           1159 	mov	_iterateStateMachine_sloc6_1_0,dpl
   050C 85 83*19           1160 	mov	(_iterateStateMachine_sloc6_1_0 + 1),dph
   050F 85 F0*1A           1161 	mov	(_iterateStateMachine_sloc6_1_0 + 2),b
   0512 D0 07              1162 	pop	ar7
   0514 D0 06              1163 	pop	ar6
   0516 D0 05              1164 	pop	ar5
                           1165 ;	D:/EiqEnergy/Projects/Software/_SoftwareLibraries/StateMachines/stateMachine_G4.c:161: state_t*				stateBeingProcessed	= sm->currentState ;
   0518 85*0F 82           1166 	mov	dpl,_iterateStateMachine_sloc3_1_0
   051B 85*10 83           1167 	mov	dph,(_iterateStateMachine_sloc3_1_0 + 1)
   051E 85*11 F0           1168 	mov	b,(_iterateStateMachine_sloc3_1_0 + 2)
   0521 12s00r00           1169 	lcall	__gptrget
   0524 FD                 1170 	mov	r5,a
   0525 A3                 1171 	inc	dptr
   0526 12s00r00           1172 	lcall	__gptrget
   0529 FE                 1173 	mov	r6,a
   052A A3                 1174 	inc	dptr
   052B 12s00r00           1175 	lcall	__gptrget
   052E FF                 1176 	mov	r7,a
   052F 90s00rB2           1177 	mov	dptr,#_iterateStateMachine_stateBeingProcessed_2_3
   0532 ED                 1178 	mov	a,r5
   0533 F0                 1179 	movx	@dptr,a
   0534 A3                 1180 	inc	dptr
   0535 EE                 1181 	mov	a,r6
   0536 F0                 1182 	movx	@dptr,a
   0537 A3                 1183 	inc	dptr
   0538 EF                 1184 	mov	a,r7
   0539 F0                 1185 	movx	@dptr,a
                           1186 ;	D:/EiqEnergy/Projects/Software/_SoftwareLibraries/StateMachines/stateMachine_G4.c:164: sm->nextState = (state_t*)0 ;	// just a little housecleaning
   053A 74 09              1187 	mov	a,#0x09
   053C 25*1B              1188 	add	a,_iterateStateMachine_sloc7_1_0
   053E FD                 1189 	mov	r5,a
   053F E4                 1190 	clr	a
   0540 35*1C              1191 	addc	a,(_iterateStateMachine_sloc7_1_0 + 1)
   0542 FE                 1192 	mov	r6,a
   0543 AF*1D              1193 	mov	r7,(_iterateStateMachine_sloc7_1_0 + 2)
   0545 8D 82              1194 	mov	dpl,r5
   0547 8E 83              1195 	mov	dph,r6
   0549 8F F0              1196 	mov	b,r7
   054B E4                 1197 	clr	a
   054C 12s00r00           1198 	lcall	__gptrput
   054F A3                 1199 	inc	dptr
   0550 E4                 1200 	clr	a
   0551 12s00r00           1201 	lcall	__gptrput
   0554 A3                 1202 	inc	dptr
   0555 E4                 1203 	clr	a
   0556 12s00r00           1204 	lcall	__gptrput
                           1205 ;	D:/EiqEnergy/Projects/Software/_SoftwareLibraries/StateMachines/stateMachine_G4.c:166: if(iterationMax-- == 0)
   0559 90s00rB0           1206 	mov	dptr,#_iterateStateMachine_iterationMax_1_1
   055C E0                 1207 	movx	a,@dptr
   055D FD                 1208 	mov	r5,a
   055E A3                 1209 	inc	dptr
   055F E0                 1210 	movx	a,@dptr
   0560 FE                 1211 	mov	r6,a
   0561 ED                 1212 	mov	a,r5
   0562 24 FF              1213 	add	a,#0xff
   0564 FF                 1214 	mov	r7,a
   0565 EE                 1215 	mov	a,r6
   0566 34 FF              1216 	addc	a,#0xff
   0568 F8                 1217 	mov	r0,a
   0569 90s00rB0           1218 	mov	dptr,#_iterateStateMachine_iterationMax_1_1
   056C EF                 1219 	mov	a,r7
   056D F0                 1220 	movx	@dptr,a
   056E A3                 1221 	inc	dptr
   056F E8                 1222 	mov	a,r0
   0570 F0                 1223 	movx	@dptr,a
   0571 ED                 1224 	mov	a,r5
   0572 4E                 1225 	orl	a,r6
   0573 D0 07              1226 	pop	ar7
   0575 D0 06              1227 	pop	ar6
   0577 D0 05              1228 	pop	ar5
   0579 70 03              1229 	jnz	00198$
   057B 02s11rE9           1230 	ljmp	00157$
   057E                    1231 00198$:
                           1232 ;	D:/EiqEnergy/Projects/Software/_SoftwareLibraries/StateMachines/stateMachine_G4.c:171: printf("\t\tProcessing event...\n") ;
   057E C0 05              1233 	push	ar5
   0580 C0 06              1234 	push	ar6
   0582 C0 07              1235 	push	ar7
   0584 74r68              1236 	mov	a,#__str_7
   0586 C0 E0              1237 	push	acc
   0588 74s00              1238 	mov	a,#(__str_7 >> 8)
   058A C0 E0              1239 	push	acc
   058C 74 80              1240 	mov	a,#0x80
   058E C0 E0              1241 	push	acc
   0590 12s00r00           1242 	lcall	_printf
   0593 15 81              1243 	dec	sp
   0595 15 81              1244 	dec	sp
   0597 15 81              1245 	dec	sp
   0599 D0 07              1246 	pop	ar7
   059B D0 06              1247 	pop	ar6
   059D D0 05              1248 	pop	ar5
                           1249 ;	D:/EiqEnergy/Projects/Software/_SoftwareLibraries/StateMachines/stateMachine_G4.c:183: do
   059F                    1250 00109$:
                           1251 ;	D:/EiqEnergy/Projects/Software/_SoftwareLibraries/StateMachines/stateMachine_G4.c:185: action = callStateHandler(sm, stateBeingProcessed, eventToProcess) ;
   059F C0 05              1252 	push	ar5
   05A1 C0 06              1253 	push	ar6
   05A3 C0 07              1254 	push	ar7
   05A5 90s00rAA           1255 	mov	dptr,#_iterateStateMachine_sm_1_1
   05A8 E0                 1256 	movx	a,@dptr
   05A9 F8                 1257 	mov	r0,a
   05AA A3                 1258 	inc	dptr
   05AB E0                 1259 	movx	a,@dptr
   05AC F9                 1260 	mov	r1,a
   05AD A3                 1261 	inc	dptr
   05AE E0                 1262 	movx	a,@dptr
   05AF FD                 1263 	mov	r5,a
   05B0 90s00rB2           1264 	mov	dptr,#_iterateStateMachine_stateBeingProcessed_2_3
   05B3 E0                 1265 	movx	a,@dptr
   05B4 FE                 1266 	mov	r6,a
   05B5 A3                 1267 	inc	dptr
   05B6 E0                 1268 	movx	a,@dptr
   05B7 FF                 1269 	mov	r7,a
   05B8 A3                 1270 	inc	dptr
   05B9 E0                 1271 	movx	a,@dptr
   05BA FA                 1272 	mov	r2,a
   05BB 90s00rA1           1273 	mov	dptr,#_callStateHandler_PARM_2
   05BE EE                 1274 	mov	a,r6
   05BF F0                 1275 	movx	@dptr,a
   05C0 A3                 1276 	inc	dptr
   05C1 EF                 1277 	mov	a,r7
   05C2 F0                 1278 	movx	@dptr,a
   05C3 A3                 1279 	inc	dptr
   05C4 EA                 1280 	mov	a,r2
   05C5 F0                 1281 	movx	@dptr,a
   05C6 90s00rA4           1282 	mov	dptr,#_callStateHandler_PARM_3
   05C9 E5*18              1283 	mov	a,_iterateStateMachine_sloc6_1_0
   05CB F0                 1284 	movx	@dptr,a
   05CC A3                 1285 	inc	dptr
   05CD E5*19              1286 	mov	a,(_iterateStateMachine_sloc6_1_0 + 1)
   05CF F0                 1287 	movx	@dptr,a
   05D0 A3                 1288 	inc	dptr
   05D1 E5*1A              1289 	mov	a,(_iterateStateMachine_sloc6_1_0 + 2)
   05D3 F0                 1290 	movx	@dptr,a
   05D4 88 82              1291 	mov	dpl,r0
   05D6 89 83              1292 	mov	dph,r1
   05D8 8D F0              1293 	mov	b,r5
   05DA C0 05              1294 	push	ar5
   05DC C0 06              1295 	push	ar6
   05DE C0 07              1296 	push	ar7
   05E0 12s01r85           1297 	lcall	_callStateHandler
   05E3 85 82*1E           1298 	mov	_iterateStateMachine_sloc8_1_0,dpl
   05E6 D0 07              1299 	pop	ar7
   05E8 D0 06              1300 	pop	ar6
   05EA D0 05              1301 	pop	ar5
                           1302 ;	D:/EiqEnergy/Projects/Software/_SoftwareLibraries/StateMachines/stateMachine_G4.c:187: if((action == IGNORED) && (eventToProcess->eventType > SUBSTATE_EXIT))
   05EC D0 07              1303 	pop	ar7
   05EE D0 06              1304 	pop	ar6
   05F0 D0 05              1305 	pop	ar5
   05F2 E5*1E              1306 	mov	a,_iterateStateMachine_sloc8_1_0
   05F4 60 03              1307 	jz	00199$
   05F6 02s06rA4           1308 	ljmp	00111$
   05F9                    1309 00199$:
   05F9 85*18 82           1310 	mov	dpl,_iterateStateMachine_sloc6_1_0
   05FC 85*19 83           1311 	mov	dph,(_iterateStateMachine_sloc6_1_0 + 1)
   05FF 85*1A F0           1312 	mov	b,(_iterateStateMachine_sloc6_1_0 + 2)
   0602 12s00r00           1313 	lcall	__gptrget
   0605 FA                 1314 	mov  r2,a
   0606 24 FC              1315 	add	a,#0xff - 0x03
   0608 40 03              1316 	jc	00200$
   060A 02s06rA4           1317 	ljmp	00111$
   060D                    1318 00200$:
                           1319 ;	D:/EiqEnergy/Projects/Software/_SoftwareLibraries/StateMachines/stateMachine_G4.c:189: stateBeingProcessed = stateBeingProcessed->parent ;
   060D 90s00rB2           1320 	mov	dptr,#_iterateStateMachine_stateBeingProcessed_2_3
   0610 E0                 1321 	movx	a,@dptr
   0611 FA                 1322 	mov	r2,a
   0612 A3                 1323 	inc	dptr
   0613 E0                 1324 	movx	a,@dptr
   0614 FB                 1325 	mov	r3,a
   0615 A3                 1326 	inc	dptr
   0616 E0                 1327 	movx	a,@dptr
   0617 FC                 1328 	mov	r4,a
   0618 8A 82              1329 	mov	dpl,r2
   061A 8B 83              1330 	mov	dph,r3
   061C 8C F0              1331 	mov	b,r4
   061E 12s00r00           1332 	lcall	__gptrget
   0621 FA                 1333 	mov	r2,a
   0622 A3                 1334 	inc	dptr
   0623 12s00r00           1335 	lcall	__gptrget
   0626 FB                 1336 	mov	r3,a
   0627 A3                 1337 	inc	dptr
   0628 12s00r00           1338 	lcall	__gptrget
   062B FC                 1339 	mov	r4,a
   062C 90s00rB2           1340 	mov	dptr,#_iterateStateMachine_stateBeingProcessed_2_3
   062F EA                 1341 	mov	a,r2
   0630 F0                 1342 	movx	@dptr,a
   0631 A3                 1343 	inc	dptr
   0632 EB                 1344 	mov	a,r3
   0633 F0                 1345 	movx	@dptr,a
   0634 A3                 1346 	inc	dptr
   0635 EC                 1347 	mov	a,r4
   0636 F0                 1348 	movx	@dptr,a
                           1349 ;	D:/EiqEnergy/Projects/Software/_SoftwareLibraries/StateMachines/stateMachine_G4.c:191: printf("\t\t\t\t\t\t\tmoving to parent: %s\n", stateBeingProcessed ? stateBeingProcessed->stateName : "<root>") ;
   0637 90s00rB2           1350 	mov	dptr,#_iterateStateMachine_stateBeingProcessed_2_3
   063A E0                 1351 	movx	a,@dptr
   063B FA                 1352 	mov	r2,a
   063C A3                 1353 	inc	dptr
   063D E0                 1354 	movx	a,@dptr
   063E FB                 1355 	mov	r3,a
   063F A3                 1356 	inc	dptr
   0640 E0                 1357 	movx	a,@dptr
   0641 FC                 1358 	mov	r4,a
   0642 EA                 1359 	mov	a,r2
   0643 4B                 1360 	orl	a,r3
   0644 4C                 1361 	orl	a,r4
   0645 60 1D              1362 	jz	00160$
   0647 74 06              1363 	mov	a,#0x06
   0649 2A                 1364 	add	a,r2
   064A FA                 1365 	mov	r2,a
   064B E4                 1366 	clr	a
   064C 3B                 1367 	addc	a,r3
   064D FB                 1368 	mov	r3,a
   064E 8A 82              1369 	mov	dpl,r2
   0650 8B 83              1370 	mov	dph,r3
   0652 8C F0              1371 	mov	b,r4
   0654 12s00r00           1372 	lcall	__gptrget
   0657 FA                 1373 	mov	r2,a
   0658 A3                 1374 	inc	dptr
   0659 12s00r00           1375 	lcall	__gptrget
   065C FB                 1376 	mov	r3,a
   065D A3                 1377 	inc	dptr
   065E 12s00r00           1378 	lcall	__gptrget
   0661 FC                 1379 	mov	r4,a
   0662 80 06              1380 	sjmp	00161$
   0664                    1381 00160$:
   0664 7Ar9C              1382 	mov	r2,#__str_9
   0666 7Bs00              1383 	mov	r3,#(__str_9 >> 8)
   0668 7C 80              1384 	mov	r4,#0x80
   066A                    1385 00161$:
   066A C0 05              1386 	push	ar5
   066C C0 06              1387 	push	ar6
   066E C0 07              1388 	push	ar7
   0670 C0 02              1389 	push	ar2
   0672 C0 03              1390 	push	ar3
   0674 C0 04              1391 	push	ar4
   0676 74r7F              1392 	mov	a,#__str_8
   0678 C0 E0              1393 	push	acc
   067A 74s00              1394 	mov	a,#(__str_8 >> 8)
   067C C0 E0              1395 	push	acc
   067E 74 80              1396 	mov	a,#0x80
   0680 C0 E0              1397 	push	acc
   0682 12s00r00           1398 	lcall	_printf
   0685 E5 81              1399 	mov	a,sp
   0687 24 FA              1400 	add	a,#0xfa
   0689 F5 81              1401 	mov	sp,a
   068B D0 07              1402 	pop	ar7
   068D D0 06              1403 	pop	ar6
   068F D0 05              1404 	pop	ar5
                           1405 ;	D:/EiqEnergy/Projects/Software/_SoftwareLibraries/StateMachines/stateMachine_G4.c:200: } while(stateBeingProcessed) ;
   0691 90s00rB2           1406 	mov	dptr,#_iterateStateMachine_stateBeingProcessed_2_3
   0694 E0                 1407 	movx	a,@dptr
   0695 FA                 1408 	mov	r2,a
   0696 A3                 1409 	inc	dptr
   0697 E0                 1410 	movx	a,@dptr
   0698 FB                 1411 	mov	r3,a
   0699 A3                 1412 	inc	dptr
   069A E0                 1413 	movx	a,@dptr
   069B FC                 1414 	mov	r4,a
   069C EA                 1415 	mov	a,r2
   069D 4B                 1416 	orl	a,r3
   069E 4C                 1417 	orl	a,r4
   069F 60 03              1418 	jz	00202$
   06A1 02s05r9F           1419 	ljmp	00109$
   06A4                    1420 00202$:
   06A4                    1421 00111$:
                           1422 ;	D:/EiqEnergy/Projects/Software/_SoftwareLibraries/StateMachines/stateMachine_G4.c:204: if(action == TRANSITION)
   06A4 74 02              1423 	mov	a,#0x02
   06A6 B5*1E 02           1424 	cjne	a,_iterateStateMachine_sloc8_1_0,00203$
   06A9 80 03              1425 	sjmp	00204$
   06AB                    1426 00203$:
   06AB 02s04rB6           1427 	ljmp	00155$
   06AE                    1428 00204$:
                           1429 ;	D:/EiqEnergy/Projects/Software/_SoftwareLibraries/StateMachines/stateMachine_G4.c:206: state_t*	source	= sm->currentState ;
   06AE 74 06              1430 	mov	a,#0x06
   06B0 2D                 1431 	add	a,r5
   06B1 FA                 1432 	mov	r2,a
   06B2 E4                 1433 	clr	a
   06B3 3E                 1434 	addc	a,r6
   06B4 FB                 1435 	mov	r3,a
   06B5 8F 04              1436 	mov	ar4,r7
   06B7 8A 82              1437 	mov	dpl,r2
   06B9 8B 83              1438 	mov	dph,r3
   06BB 8C F0              1439 	mov	b,r4
   06BD 12s00r00           1440 	lcall	__gptrget
   06C0 F5*18              1441 	mov	_iterateStateMachine_sloc6_1_0,a
   06C2 A3                 1442 	inc	dptr
   06C3 12s00r00           1443 	lcall	__gptrget
   06C6 F5*19              1444 	mov	(_iterateStateMachine_sloc6_1_0 + 1),a
   06C8 A3                 1445 	inc	dptr
   06C9 12s00r00           1446 	lcall	__gptrget
   06CC F5*1A              1447 	mov	(_iterateStateMachine_sloc6_1_0 + 2),a
                           1448 ;	D:/EiqEnergy/Projects/Software/_SoftwareLibraries/StateMachines/stateMachine_G4.c:207: state_t*	target	= sm->nextState ;
   06CE 85*06 82           1449 	mov	dpl,_iterateStateMachine_sloc0_1_0
   06D1 85*07 83           1450 	mov	dph,(_iterateStateMachine_sloc0_1_0 + 1)
   06D4 85*08 F0           1451 	mov	b,(_iterateStateMachine_sloc0_1_0 + 2)
   06D7 12s00r00           1452 	lcall	__gptrget
   06DA F5*1F              1453 	mov	_iterateStateMachine_sloc9_1_0,a
   06DC A3                 1454 	inc	dptr
   06DD 12s00r00           1455 	lcall	__gptrget
   06E0 F5*20              1456 	mov	(_iterateStateMachine_sloc9_1_0 + 1),a
   06E2 A3                 1457 	inc	dptr
   06E3 12s00r00           1458 	lcall	__gptrget
   06E6 F5*21              1459 	mov	(_iterateStateMachine_sloc9_1_0 + 2),a
                           1460 ;	D:/EiqEnergy/Projects/Software/_SoftwareLibraries/StateMachines/stateMachine_G4.c:213: if(source == target)
   06E8 E5*1F              1461 	mov	a,_iterateStateMachine_sloc9_1_0
   06EA B5*18 0C           1462 	cjne	a,_iterateStateMachine_sloc6_1_0,00205$
   06ED E5*20              1463 	mov	a,(_iterateStateMachine_sloc9_1_0 + 1)
   06EF B5*19 07           1464 	cjne	a,(_iterateStateMachine_sloc6_1_0 + 1),00205$
   06F2 E5*21              1465 	mov	a,(_iterateStateMachine_sloc9_1_0 + 2)
   06F4 B5*1A 02           1466 	cjne	a,(_iterateStateMachine_sloc6_1_0 + 2),00205$
   06F7 80 03              1467 	sjmp	00206$
   06F9                    1468 00205$:
   06F9 02s07rB3           1469 	ljmp	00151$
   06FC                    1470 00206$:
                           1471 ;	D:/EiqEnergy/Projects/Software/_SoftwareLibraries/StateMachines/stateMachine_G4.c:215: printf("\t\t\t\tSelf transition.\n") ;
   06FC C0 05              1472 	push	ar5
   06FE C0 06              1473 	push	ar6
   0700 C0 07              1474 	push	ar7
   0702 74rA3              1475 	mov	a,#__str_10
   0704 C0 E0              1476 	push	acc
   0706 74s00              1477 	mov	a,#(__str_10 >> 8)
   0708 C0 E0              1478 	push	acc
   070A 74 80              1479 	mov	a,#0x80
   070C C0 E0              1480 	push	acc
   070E 12s00r00           1481 	lcall	_printf
   0711 15 81              1482 	dec	sp
   0713 15 81              1483 	dec	sp
   0715 15 81              1484 	dec	sp
   0717 D0 07              1485 	pop	ar7
   0719 D0 06              1486 	pop	ar6
   071B D0 05              1487 	pop	ar5
                           1488 ;	D:/EiqEnergy/Projects/Software/_SoftwareLibraries/StateMachines/stateMachine_G4.c:219: callStateHandler(sm, source, &exitEvent) ;
   071D 90s00rA1           1489 	mov	dptr,#_callStateHandler_PARM_2
   0720 E5*18              1490 	mov	a,_iterateStateMachine_sloc6_1_0
   0722 F0                 1491 	movx	@dptr,a
   0723 A3                 1492 	inc	dptr
   0724 E5*19              1493 	mov	a,(_iterateStateMachine_sloc6_1_0 + 1)
   0726 F0                 1494 	movx	@dptr,a
   0727 A3                 1495 	inc	dptr
   0728 E5*1A              1496 	mov	a,(_iterateStateMachine_sloc6_1_0 + 2)
   072A F0                 1497 	movx	@dptr,a
   072B 90s00rA4           1498 	mov	dptr,#_callStateHandler_PARM_3
   072E 74rAF              1499 	mov	a,#_iterateStateMachine_exitEvent_1_1
   0730 F0                 1500 	movx	@dptr,a
   0731 A3                 1501 	inc	dptr
   0732 74s00              1502 	mov	a,#(_iterateStateMachine_exitEvent_1_1 >> 8)
   0734 F0                 1503 	movx	@dptr,a
   0735 A3                 1504 	inc	dptr
   0736 E4                 1505 	clr	a
   0737 F0                 1506 	movx	@dptr,a
   0738 8D 82              1507 	mov	dpl,r5
   073A 8E 83              1508 	mov	dph,r6
   073C 8F F0              1509 	mov	b,r7
   073E C0 05              1510 	push	ar5
   0740 C0 06              1511 	push	ar6
   0742 C0 07              1512 	push	ar7
   0744 12s01r85           1513 	lcall	_callStateHandler
                           1514 ;	D:/EiqEnergy/Projects/Software/_SoftwareLibraries/StateMachines/stateMachine_G4.c:220: sm->currentState = target ;
   0747 90s00rAA           1515 	mov	dptr,#_iterateStateMachine_sm_1_1
   074A E0                 1516 	movx	a,@dptr
   074B F5*22              1517 	mov	_iterateStateMachine_sloc10_1_0,a
   074D A3                 1518 	inc	dptr
   074E E0                 1519 	movx	a,@dptr
   074F F5*23              1520 	mov	(_iterateStateMachine_sloc10_1_0 + 1),a
   0751 A3                 1521 	inc	dptr
   0752 E0                 1522 	movx	a,@dptr
   0753 F5*24              1523 	mov	(_iterateStateMachine_sloc10_1_0 + 2),a
   0755 74 06              1524 	mov	a,#0x06
   0757 25*22              1525 	add	a,_iterateStateMachine_sloc10_1_0
   0759 FE                 1526 	mov	r6,a
   075A E4                 1527 	clr	a
   075B 35*23              1528 	addc	a,(_iterateStateMachine_sloc10_1_0 + 1)
   075D FF                 1529 	mov	r7,a
   075E AD*24              1530 	mov	r5,(_iterateStateMachine_sloc10_1_0 + 2)
   0760 8E 82              1531 	mov	dpl,r6
   0762 8F 83              1532 	mov	dph,r7
   0764 8D F0              1533 	mov	b,r5
   0766 E5*1F              1534 	mov	a,_iterateStateMachine_sloc9_1_0
   0768 12s00r00           1535 	lcall	__gptrput
   076B A3                 1536 	inc	dptr
   076C E5*20              1537 	mov	a,(_iterateStateMachine_sloc9_1_0 + 1)
   076E 12s00r00           1538 	lcall	__gptrput
   0771 A3                 1539 	inc	dptr
   0772 E5*21              1540 	mov	a,(_iterateStateMachine_sloc9_1_0 + 2)
   0774 12s00r00           1541 	lcall	__gptrput
                           1542 ;	D:/EiqEnergy/Projects/Software/_SoftwareLibraries/StateMachines/stateMachine_G4.c:221: callStateHandler(sm, target, &enterEvent) ;
   0777 90s00rA1           1543 	mov	dptr,#_callStateHandler_PARM_2
   077A E5*1F              1544 	mov	a,_iterateStateMachine_sloc9_1_0
   077C F0                 1545 	movx	@dptr,a
   077D A3                 1546 	inc	dptr
   077E E5*20              1547 	mov	a,(_iterateStateMachine_sloc9_1_0 + 1)
   0780 F0                 1548 	movx	@dptr,a
   0781 A3                 1549 	inc	dptr
   0782 E5*21              1550 	mov	a,(_iterateStateMachine_sloc9_1_0 + 2)
   0784 F0                 1551 	movx	@dptr,a
   0785 90s00rA4           1552 	mov	dptr,#_callStateHandler_PARM_3
   0788 74rAE              1553 	mov	a,#_iterateStateMachine_enterEvent_1_1
   078A F0                 1554 	movx	@dptr,a
   078B A3                 1555 	inc	dptr
   078C 74s00              1556 	mov	a,#(_iterateStateMachine_enterEvent_1_1 >> 8)
   078E F0                 1557 	movx	@dptr,a
   078F A3                 1558 	inc	dptr
   0790 E4                 1559 	clr	a
   0791 F0                 1560 	movx	@dptr,a
   0792 85*22 82           1561 	mov	dpl,_iterateStateMachine_sloc10_1_0
   0795 85*23 83           1562 	mov	dph,(_iterateStateMachine_sloc10_1_0 + 1)
   0798 85*24 F0           1563 	mov	b,(_iterateStateMachine_sloc10_1_0 + 2)
   079B C0 05              1564 	push	ar5
   079D C0 06              1565 	push	ar6
   079F C0 07              1566 	push	ar7
   07A1 12s01r85           1567 	lcall	_callStateHandler
   07A4 D0 07              1568 	pop	ar7
   07A6 D0 06              1569 	pop	ar6
   07A8 D0 05              1570 	pop	ar5
   07AA D0 07              1571 	pop	ar7
   07AC D0 06              1572 	pop	ar6
   07AE D0 05              1573 	pop	ar5
   07B0 02s11rB9           1574 	ljmp	00152$
   07B3                    1575 00151$:
                           1576 ;	D:/EiqEnergy/Projects/Software/_SoftwareLibraries/StateMachines/stateMachine_G4.c:223: else if(source == (state_t*)(target->parent))
   07B3 C0 02              1577 	push	ar2
   07B5 C0 03              1578 	push	ar3
   07B7 C0 04              1579 	push	ar4
   07B9 85*1F 82           1580 	mov	dpl,_iterateStateMachine_sloc9_1_0
   07BC 85*20 83           1581 	mov	dph,(_iterateStateMachine_sloc9_1_0 + 1)
   07BF 85*21 F0           1582 	mov	b,(_iterateStateMachine_sloc9_1_0 + 2)
   07C2 12s00r00           1583 	lcall	__gptrget
   07C5 F8                 1584 	mov	r0,a
   07C6 A3                 1585 	inc	dptr
   07C7 12s00r00           1586 	lcall	__gptrget
   07CA F9                 1587 	mov	r1,a
   07CB A3                 1588 	inc	dptr
   07CC 12s00r00           1589 	lcall	__gptrget
   07CF FA                 1590 	mov	r2,a
   07D0 E8                 1591 	mov	a,r0
   07D1 B5*18 0A           1592 	cjne	a,_iterateStateMachine_sloc6_1_0,00207$
   07D4 E9                 1593 	mov	a,r1
   07D5 B5*19 06           1594 	cjne	a,(_iterateStateMachine_sloc6_1_0 + 1),00207$
   07D8 EA                 1595 	mov	a,r2
   07D9 B5*1A 02           1596 	cjne	a,(_iterateStateMachine_sloc6_1_0 + 2),00207$
   07DC 80 08              1597 	sjmp	00208$
   07DE                    1598 00207$:
   07DE D0 04              1599 	pop	ar4
   07E0 D0 03              1600 	pop	ar3
   07E2 D0 02              1601 	pop	ar2
   07E4 80 71              1602 	sjmp	00148$
   07E6                    1603 00208$:
                           1604 ;	D:/EiqEnergy/Projects/Software/_SoftwareLibraries/StateMachines/stateMachine_G4.c:225: printf("\t\t\t\tTransition to direct child.\n") ;
   07E6 C0 05              1605 	push	ar5
   07E8 C0 06              1606 	push	ar6
   07EA C0 07              1607 	push	ar7
   07EC 74rB9              1608 	mov	a,#__str_11
   07EE C0 E0              1609 	push	acc
   07F0 74s00              1610 	mov	a,#(__str_11 >> 8)
   07F2 C0 E0              1611 	push	acc
   07F4 74 80              1612 	mov	a,#0x80
   07F6 C0 E0              1613 	push	acc
   07F8 12s00r00           1614 	lcall	_printf
   07FB 15 81              1615 	dec	sp
   07FD 15 81              1616 	dec	sp
   07FF 15 81              1617 	dec	sp
   0801 D0 07              1618 	pop	ar7
   0803 D0 06              1619 	pop	ar6
   0805 D0 05              1620 	pop	ar5
   0807 D0 04              1621 	pop	ar4
   0809 D0 03              1622 	pop	ar3
   080B D0 02              1623 	pop	ar2
                           1624 ;	D:/EiqEnergy/Projects/Software/_SoftwareLibraries/StateMachines/stateMachine_G4.c:230: sm->currentState = target ;
   080D 8A 82              1625 	mov	dpl,r2
   080F 8B 83              1626 	mov	dph,r3
   0811 8C F0              1627 	mov	b,r4
   0813 E5*1F              1628 	mov	a,_iterateStateMachine_sloc9_1_0
   0815 12s00r00           1629 	lcall	__gptrput
   0818 A3                 1630 	inc	dptr
   0819 E5*20              1631 	mov	a,(_iterateStateMachine_sloc9_1_0 + 1)
   081B 12s00r00           1632 	lcall	__gptrput
   081E A3                 1633 	inc	dptr
   081F E5*21              1634 	mov	a,(_iterateStateMachine_sloc9_1_0 + 2)
   0821 12s00r00           1635 	lcall	__gptrput
                           1636 ;	D:/EiqEnergy/Projects/Software/_SoftwareLibraries/StateMachines/stateMachine_G4.c:231: callStateHandler(sm, target, &enterEvent) ;
   0824 90s00rA1           1637 	mov	dptr,#_callStateHandler_PARM_2
   0827 E5*1F              1638 	mov	a,_iterateStateMachine_sloc9_1_0
   0829 F0                 1639 	movx	@dptr,a
   082A A3                 1640 	inc	dptr
   082B E5*20              1641 	mov	a,(_iterateStateMachine_sloc9_1_0 + 1)
   082D F0                 1642 	movx	@dptr,a
   082E A3                 1643 	inc	dptr
   082F E5*21              1644 	mov	a,(_iterateStateMachine_sloc9_1_0 + 2)
   0831 F0                 1645 	movx	@dptr,a
   0832 90s00rA4           1646 	mov	dptr,#_callStateHandler_PARM_3
   0835 74rAE              1647 	mov	a,#_iterateStateMachine_enterEvent_1_1
   0837 F0                 1648 	movx	@dptr,a
   0838 A3                 1649 	inc	dptr
   0839 74s00              1650 	mov	a,#(_iterateStateMachine_enterEvent_1_1 >> 8)
   083B F0                 1651 	movx	@dptr,a
   083C A3                 1652 	inc	dptr
   083D E4                 1653 	clr	a
   083E F0                 1654 	movx	@dptr,a
   083F 8D 82              1655 	mov	dpl,r5
   0841 8E 83              1656 	mov	dph,r6
   0843 8F F0              1657 	mov	b,r7
   0845 C0 05              1658 	push	ar5
   0847 C0 06              1659 	push	ar6
   0849 C0 07              1660 	push	ar7
   084B 12s01r85           1661 	lcall	_callStateHandler
   084E D0 07              1662 	pop	ar7
   0850 D0 06              1663 	pop	ar6
   0852 D0 05              1664 	pop	ar5
   0854 02s11rB9           1665 	ljmp	00152$
   0857                    1666 00148$:
                           1667 ;	D:/EiqEnergy/Projects/Software/_SoftwareLibraries/StateMachines/stateMachine_G4.c:233: else if((state_t*)(source->parent) == (state_t*)(target->parent))
   0857 C0 02              1668 	push	ar2
   0859 C0 03              1669 	push	ar3
   085B C0 04              1670 	push	ar4
   085D 85*18 82           1671 	mov	dpl,_iterateStateMachine_sloc6_1_0
   0860 85*19 83           1672 	mov	dph,(_iterateStateMachine_sloc6_1_0 + 1)
   0863 85*1A F0           1673 	mov	b,(_iterateStateMachine_sloc6_1_0 + 2)
   0866 12s00r00           1674 	lcall	__gptrget
   0869 F5*22              1675 	mov	_iterateStateMachine_sloc10_1_0,a
   086B A3                 1676 	inc	dptr
   086C 12s00r00           1677 	lcall	__gptrget
   086F F5*23              1678 	mov	(_iterateStateMachine_sloc10_1_0 + 1),a
   0871 A3                 1679 	inc	dptr
   0872 12s00r00           1680 	lcall	__gptrget
   0875 F5*24              1681 	mov	(_iterateStateMachine_sloc10_1_0 + 2),a
   0877 85*1F 82           1682 	mov	dpl,_iterateStateMachine_sloc9_1_0
   087A 85*20 83           1683 	mov	dph,(_iterateStateMachine_sloc9_1_0 + 1)
   087D 85*21 F0           1684 	mov	b,(_iterateStateMachine_sloc9_1_0 + 2)
   0880 12s00r00           1685 	lcall	__gptrget
   0883 FB                 1686 	mov	r3,a
   0884 A3                 1687 	inc	dptr
   0885 12s00r00           1688 	lcall	__gptrget
   0888 FC                 1689 	mov	r4,a
   0889 A3                 1690 	inc	dptr
   088A 12s00r00           1691 	lcall	__gptrget
   088D FA                 1692 	mov	r2,a
   088E EB                 1693 	mov	a,r3
   088F B5*22 0A           1694 	cjne	a,_iterateStateMachine_sloc10_1_0,00209$
   0892 EC                 1695 	mov	a,r4
   0893 B5*23 06           1696 	cjne	a,(_iterateStateMachine_sloc10_1_0 + 1),00209$
   0896 EA                 1697 	mov	a,r2
   0897 B5*24 02           1698 	cjne	a,(_iterateStateMachine_sloc10_1_0 + 2),00209$
   089A 80 09              1699 	sjmp	00210$
   089C                    1700 00209$:
   089C D0 04              1701 	pop	ar4
   089E D0 03              1702 	pop	ar3
   08A0 D0 02              1703 	pop	ar2
   08A2 02s09r62           1704 	ljmp	00145$
   08A5                    1705 00210$:
   08A5 D0 04              1706 	pop	ar4
   08A7 D0 03              1707 	pop	ar3
   08A9 D0 02              1708 	pop	ar2
                           1709 ;	D:/EiqEnergy/Projects/Software/_SoftwareLibraries/StateMachines/stateMachine_G4.c:235: printf("\t\t\t\tTransition to direct peer.\n") ;
   08AB C0 05              1710 	push	ar5
   08AD C0 06              1711 	push	ar6
   08AF C0 07              1712 	push	ar7
   08B1 74rDA              1713 	mov	a,#__str_12
   08B3 C0 E0              1714 	push	acc
   08B5 74s00              1715 	mov	a,#(__str_12 >> 8)
   08B7 C0 E0              1716 	push	acc
   08B9 74 80              1717 	mov	a,#0x80
   08BB C0 E0              1718 	push	acc
   08BD 12s00r00           1719 	lcall	_printf
   08C0 15 81              1720 	dec	sp
   08C2 15 81              1721 	dec	sp
   08C4 15 81              1722 	dec	sp
   08C6 D0 07              1723 	pop	ar7
   08C8 D0 06              1724 	pop	ar6
   08CA D0 05              1725 	pop	ar5
                           1726 ;	D:/EiqEnergy/Projects/Software/_SoftwareLibraries/StateMachines/stateMachine_G4.c:240: callStateHandler(sm, source, &exitEvent) ;
   08CC 90s00rA1           1727 	mov	dptr,#_callStateHandler_PARM_2
   08CF E5*18              1728 	mov	a,_iterateStateMachine_sloc6_1_0
   08D1 F0                 1729 	movx	@dptr,a
   08D2 A3                 1730 	inc	dptr
   08D3 E5*19              1731 	mov	a,(_iterateStateMachine_sloc6_1_0 + 1)
   08D5 F0                 1732 	movx	@dptr,a
   08D6 A3                 1733 	inc	dptr
   08D7 E5*1A              1734 	mov	a,(_iterateStateMachine_sloc6_1_0 + 2)
   08D9 F0                 1735 	movx	@dptr,a
   08DA 90s00rA4           1736 	mov	dptr,#_callStateHandler_PARM_3
   08DD 74rAF              1737 	mov	a,#_iterateStateMachine_exitEvent_1_1
   08DF F0                 1738 	movx	@dptr,a
   08E0 A3                 1739 	inc	dptr
   08E1 74s00              1740 	mov	a,#(_iterateStateMachine_exitEvent_1_1 >> 8)
   08E3 F0                 1741 	movx	@dptr,a
   08E4 A3                 1742 	inc	dptr
   08E5 E4                 1743 	clr	a
   08E6 F0                 1744 	movx	@dptr,a
   08E7 8D 82              1745 	mov	dpl,r5
   08E9 8E 83              1746 	mov	dph,r6
   08EB 8F F0              1747 	mov	b,r7
   08ED C0 05              1748 	push	ar5
   08EF C0 06              1749 	push	ar6
   08F1 C0 07              1750 	push	ar7
   08F3 12s01r85           1751 	lcall	_callStateHandler
                           1752 ;	D:/EiqEnergy/Projects/Software/_SoftwareLibraries/StateMachines/stateMachine_G4.c:241: sm->currentState = target ;
   08F6 90s00rAA           1753 	mov	dptr,#_iterateStateMachine_sm_1_1
   08F9 E0                 1754 	movx	a,@dptr
   08FA F5*22              1755 	mov	_iterateStateMachine_sloc10_1_0,a
   08FC A3                 1756 	inc	dptr
   08FD E0                 1757 	movx	a,@dptr
   08FE F5*23              1758 	mov	(_iterateStateMachine_sloc10_1_0 + 1),a
   0900 A3                 1759 	inc	dptr
   0901 E0                 1760 	movx	a,@dptr
   0902 F5*24              1761 	mov	(_iterateStateMachine_sloc10_1_0 + 2),a
   0904 74 06              1762 	mov	a,#0x06
   0906 25*22              1763 	add	a,_iterateStateMachine_sloc10_1_0
   0908 FE                 1764 	mov	r6,a
   0909 E4                 1765 	clr	a
   090A 35*23              1766 	addc	a,(_iterateStateMachine_sloc10_1_0 + 1)
   090C FF                 1767 	mov	r7,a
   090D AD*24              1768 	mov	r5,(_iterateStateMachine_sloc10_1_0 + 2)
   090F 8E 82              1769 	mov	dpl,r6
   0911 8F 83              1770 	mov	dph,r7
   0913 8D F0              1771 	mov	b,r5
   0915 E5*1F              1772 	mov	a,_iterateStateMachine_sloc9_1_0
   0917 12s00r00           1773 	lcall	__gptrput
   091A A3                 1774 	inc	dptr
   091B E5*20              1775 	mov	a,(_iterateStateMachine_sloc9_1_0 + 1)
   091D 12s00r00           1776 	lcall	__gptrput
   0920 A3                 1777 	inc	dptr
   0921 E5*21              1778 	mov	a,(_iterateStateMachine_sloc9_1_0 + 2)
   0923 12s00r00           1779 	lcall	__gptrput
                           1780 ;	D:/EiqEnergy/Projects/Software/_SoftwareLibraries/StateMachines/stateMachine_G4.c:242: callStateHandler(sm, target, &enterEvent) ;
   0926 90s00rA1           1781 	mov	dptr,#_callStateHandler_PARM_2
   0929 E5*1F              1782 	mov	a,_iterateStateMachine_sloc9_1_0
   092B F0                 1783 	movx	@dptr,a
   092C A3                 1784 	inc	dptr
   092D E5*20              1785 	mov	a,(_iterateStateMachine_sloc9_1_0 + 1)
   092F F0                 1786 	movx	@dptr,a
   0930 A3                 1787 	inc	dptr
   0931 E5*21              1788 	mov	a,(_iterateStateMachine_sloc9_1_0 + 2)
   0933 F0                 1789 	movx	@dptr,a
   0934 90s00rA4           1790 	mov	dptr,#_callStateHandler_PARM_3
   0937 74rAE              1791 	mov	a,#_iterateStateMachine_enterEvent_1_1
   0939 F0                 1792 	movx	@dptr,a
   093A A3                 1793 	inc	dptr
   093B 74s00              1794 	mov	a,#(_iterateStateMachine_enterEvent_1_1 >> 8)
   093D F0                 1795 	movx	@dptr,a
   093E A3                 1796 	inc	dptr
   093F E4                 1797 	clr	a
   0940 F0                 1798 	movx	@dptr,a
   0941 85*22 82           1799 	mov	dpl,_iterateStateMachine_sloc10_1_0
   0944 85*23 83           1800 	mov	dph,(_iterateStateMachine_sloc10_1_0 + 1)
   0947 85*24 F0           1801 	mov	b,(_iterateStateMachine_sloc10_1_0 + 2)
   094A C0 05              1802 	push	ar5
   094C C0 06              1803 	push	ar6
   094E C0 07              1804 	push	ar7
   0950 12s01r85           1805 	lcall	_callStateHandler
   0953 D0 07              1806 	pop	ar7
   0955 D0 06              1807 	pop	ar6
   0957 D0 05              1808 	pop	ar5
   0959 D0 07              1809 	pop	ar7
   095B D0 06              1810 	pop	ar6
   095D D0 05              1811 	pop	ar5
   095F 02s11rB9           1812 	ljmp	00152$
   0962                    1813 00145$:
                           1814 ;	D:/EiqEnergy/Projects/Software/_SoftwareLibraries/StateMachines/stateMachine_G4.c:244: else if((state_t*)(source->parent) == target)
   0962 C0 02              1815 	push	ar2
   0964 C0 03              1816 	push	ar3
   0966 C0 04              1817 	push	ar4
   0968 85*18 82           1818 	mov	dpl,_iterateStateMachine_sloc6_1_0
   096B 85*19 83           1819 	mov	dph,(_iterateStateMachine_sloc6_1_0 + 1)
   096E 85*1A F0           1820 	mov	b,(_iterateStateMachine_sloc6_1_0 + 2)
   0971 12s00r00           1821 	lcall	__gptrget
   0974 F8                 1822 	mov	r0,a
   0975 A3                 1823 	inc	dptr
   0976 12s00r00           1824 	lcall	__gptrget
   0979 F9                 1825 	mov	r1,a
   097A A3                 1826 	inc	dptr
   097B 12s00r00           1827 	lcall	__gptrget
   097E FA                 1828 	mov	r2,a
   097F E8                 1829 	mov	a,r0
   0980 B5*1F 0A           1830 	cjne	a,_iterateStateMachine_sloc9_1_0,00211$
   0983 E9                 1831 	mov	a,r1
   0984 B5*20 06           1832 	cjne	a,(_iterateStateMachine_sloc9_1_0 + 1),00211$
   0987 EA                 1833 	mov	a,r2
   0988 B5*21 02           1834 	cjne	a,(_iterateStateMachine_sloc9_1_0 + 2),00211$
   098B 80 08              1835 	sjmp	00212$
   098D                    1836 00211$:
   098D D0 04              1837 	pop	ar4
   098F D0 03              1838 	pop	ar3
   0991 D0 02              1839 	pop	ar2
   0993 80 71              1840 	sjmp	00142$
   0995                    1841 00212$:
                           1842 ;	D:/EiqEnergy/Projects/Software/_SoftwareLibraries/StateMachines/stateMachine_G4.c:246: printf("\t\t\t\tTransition to direct parent.\n") ;
   0995 C0 05              1843 	push	ar5
   0997 C0 06              1844 	push	ar6
   0999 C0 07              1845 	push	ar7
   099B 74rFA              1846 	mov	a,#__str_13
   099D C0 E0              1847 	push	acc
   099F 74s00              1848 	mov	a,#(__str_13 >> 8)
   09A1 C0 E0              1849 	push	acc
   09A3 74 80              1850 	mov	a,#0x80
   09A5 C0 E0              1851 	push	acc
   09A7 12s00r00           1852 	lcall	_printf
   09AA 15 81              1853 	dec	sp
   09AC 15 81              1854 	dec	sp
   09AE 15 81              1855 	dec	sp
   09B0 D0 07              1856 	pop	ar7
   09B2 D0 06              1857 	pop	ar6
   09B4 D0 05              1858 	pop	ar5
   09B6 D0 04              1859 	pop	ar4
   09B8 D0 03              1860 	pop	ar3
   09BA D0 02              1861 	pop	ar2
                           1862 ;	D:/EiqEnergy/Projects/Software/_SoftwareLibraries/StateMachines/stateMachine_G4.c:252: sm->currentState = target ;
   09BC 8A 82              1863 	mov	dpl,r2
   09BE 8B 83              1864 	mov	dph,r3
   09C0 8C F0              1865 	mov	b,r4
   09C2 E5*1F              1866 	mov	a,_iterateStateMachine_sloc9_1_0
   09C4 12s00r00           1867 	lcall	__gptrput
   09C7 A3                 1868 	inc	dptr
   09C8 E5*20              1869 	mov	a,(_iterateStateMachine_sloc9_1_0 + 1)
   09CA 12s00r00           1870 	lcall	__gptrput
   09CD A3                 1871 	inc	dptr
   09CE E5*21              1872 	mov	a,(_iterateStateMachine_sloc9_1_0 + 2)
   09D0 12s00r00           1873 	lcall	__gptrput
                           1874 ;	D:/EiqEnergy/Projects/Software/_SoftwareLibraries/StateMachines/stateMachine_G4.c:253: callStateHandler(sm, source, &exitEvent) ;
   09D3 90s00rA1           1875 	mov	dptr,#_callStateHandler_PARM_2
   09D6 E5*18              1876 	mov	a,_iterateStateMachine_sloc6_1_0
   09D8 F0                 1877 	movx	@dptr,a
   09D9 A3                 1878 	inc	dptr
   09DA E5*19              1879 	mov	a,(_iterateStateMachine_sloc6_1_0 + 1)
   09DC F0                 1880 	movx	@dptr,a
   09DD A3                 1881 	inc	dptr
   09DE E5*1A              1882 	mov	a,(_iterateStateMachine_sloc6_1_0 + 2)
   09E0 F0                 1883 	movx	@dptr,a
   09E1 90s00rA4           1884 	mov	dptr,#_callStateHandler_PARM_3
   09E4 74rAF              1885 	mov	a,#_iterateStateMachine_exitEvent_1_1
   09E6 F0                 1886 	movx	@dptr,a
   09E7 A3                 1887 	inc	dptr
   09E8 74s00              1888 	mov	a,#(_iterateStateMachine_exitEvent_1_1 >> 8)
   09EA F0                 1889 	movx	@dptr,a
   09EB A3                 1890 	inc	dptr
   09EC E4                 1891 	clr	a
   09ED F0                 1892 	movx	@dptr,a
   09EE 8D 82              1893 	mov	dpl,r5
   09F0 8E 83              1894 	mov	dph,r6
   09F2 8F F0              1895 	mov	b,r7
   09F4 C0 05              1896 	push	ar5
   09F6 C0 06              1897 	push	ar6
   09F8 C0 07              1898 	push	ar7
   09FA 12s01r85           1899 	lcall	_callStateHandler
   09FD D0 07              1900 	pop	ar7
   09FF D0 06              1901 	pop	ar6
   0A01 D0 05              1902 	pop	ar5
   0A03 02s11rB9           1903 	ljmp	00152$
   0A06                    1904 00142$:
                           1905 ;	D:/EiqEnergy/Projects/Software/_SoftwareLibraries/StateMachines/stateMachine_G4.c:267: printf("\t\t\t\tScanning source hierarchy...\n") ;
   0A06 C0 05              1906 	push	ar5
   0A08 C0 06              1907 	push	ar6
   0A0A C0 07              1908 	push	ar7
   0A0C 74r1C              1909 	mov	a,#__str_14
   0A0E C0 E0              1910 	push	acc
   0A10 74s01              1911 	mov	a,#(__str_14 >> 8)
   0A12 C0 E0              1912 	push	acc
   0A14 74 80              1913 	mov	a,#0x80
   0A16 C0 E0              1914 	push	acc
   0A18 12s00r00           1915 	lcall	_printf
   0A1B 15 81              1916 	dec	sp
   0A1D 15 81              1917 	dec	sp
   0A1F 15 81              1918 	dec	sp
   0A21 D0 07              1919 	pop	ar7
   0A23 D0 06              1920 	pop	ar6
   0A25 D0 05              1921 	pop	ar5
                           1922 ;	D:/EiqEnergy/Projects/Software/_SoftwareLibraries/StateMachines/stateMachine_G4.c:270: targetIndex			= 0 ;
   0A27 90s01r16           1923 	mov	dptr,#_iterateStateMachine_targetIndex_4_13
   0A2A E4                 1924 	clr	a
   0A2B F0                 1925 	movx	@dptr,a
                           1926 ;	D:/EiqEnergy/Projects/Software/_SoftwareLibraries/StateMachines/stateMachine_G4.c:271: stateBeingProcessed	= source ;
   0A2C 90s00rB2           1927 	mov	dptr,#_iterateStateMachine_stateBeingProcessed_2_3
   0A2F E5*18              1928 	mov	a,_iterateStateMachine_sloc6_1_0
   0A31 F0                 1929 	movx	@dptr,a
   0A32 A3                 1930 	inc	dptr
   0A33 E5*19              1931 	mov	a,(_iterateStateMachine_sloc6_1_0 + 1)
   0A35 F0                 1932 	movx	@dptr,a
   0A36 A3                 1933 	inc	dptr
   0A37 E5*1A              1934 	mov	a,(_iterateStateMachine_sloc6_1_0 + 2)
   0A39 F0                 1935 	movx	@dptr,a
                           1936 ;	D:/EiqEnergy/Projects/Software/_SoftwareLibraries/StateMachines/stateMachine_G4.c:273: do
   0A3A 7A 00              1937 	mov	r2,#0x00
   0A3C                    1938 00117$:
                           1939 ;	D:/EiqEnergy/Projects/Software/_SoftwareLibraries/StateMachines/stateMachine_G4.c:275: sourceHierarchy[sourceIndex++] = stateBeingProcessed ;
   0A3C C0 05              1940 	push	ar5
   0A3E C0 06              1941 	push	ar6
   0A40 C0 07              1942 	push	ar7
   0A42 8A 03              1943 	mov	ar3,r2
   0A44 0A                 1944 	inc	r2
   0A45 90s00rE5           1945 	mov	dptr,#_iterateStateMachine_sourceIndex_4_13
   0A48 EA                 1946 	mov	a,r2
   0A49 F0                 1947 	movx	@dptr,a
   0A4A EB                 1948 	mov	a,r3
   0A4B 75 F0 03           1949 	mov	b,#0x03
   0A4E A4                 1950 	mul	ab
   0A4F 24rB5              1951 	add	a,#_iterateStateMachine_sourceHierarchy_4_13
   0A51 FB                 1952 	mov	r3,a
   0A52 E4                 1953 	clr	a
   0A53 34s00              1954 	addc	a,#(_iterateStateMachine_sourceHierarchy_4_13 >> 8)
   0A55 FC                 1955 	mov	r4,a
   0A56 90s00rB2           1956 	mov	dptr,#_iterateStateMachine_stateBeingProcessed_2_3
   0A59 E0                 1957 	movx	a,@dptr
   0A5A F5*22              1958 	mov	_iterateStateMachine_sloc10_1_0,a
   0A5C A3                 1959 	inc	dptr
   0A5D E0                 1960 	movx	a,@dptr
   0A5E F5*23              1961 	mov	(_iterateStateMachine_sloc10_1_0 + 1),a
   0A60 A3                 1962 	inc	dptr
   0A61 E0                 1963 	movx	a,@dptr
   0A62 F5*24              1964 	mov	(_iterateStateMachine_sloc10_1_0 + 2),a
   0A64 8B 82              1965 	mov	dpl,r3
   0A66 8C 83              1966 	mov	dph,r4
   0A68 E5*22              1967 	mov	a,_iterateStateMachine_sloc10_1_0
   0A6A F0                 1968 	movx	@dptr,a
   0A6B A3                 1969 	inc	dptr
   0A6C E5*23              1970 	mov	a,(_iterateStateMachine_sloc10_1_0 + 1)
   0A6E F0                 1971 	movx	@dptr,a
   0A6F A3                 1972 	inc	dptr
   0A70 E5*24              1973 	mov	a,(_iterateStateMachine_sloc10_1_0 + 2)
   0A72 F0                 1974 	movx	@dptr,a
                           1975 ;	D:/EiqEnergy/Projects/Software/_SoftwareLibraries/StateMachines/stateMachine_G4.c:277: printf("\t\t\t\t\tsourceHierarchy[%d] = %s\n", sourceIndex - 1, stateBeingProcessed->stateName) ;
   0A73 74 06              1976 	mov	a,#0x06
   0A75 25*22              1977 	add	a,_iterateStateMachine_sloc10_1_0
   0A77 FB                 1978 	mov	r3,a
   0A78 E4                 1979 	clr	a
   0A79 35*23              1980 	addc	a,(_iterateStateMachine_sloc10_1_0 + 1)
   0A7B FC                 1981 	mov	r4,a
   0A7C A8*24              1982 	mov	r0,(_iterateStateMachine_sloc10_1_0 + 2)
   0A7E 8B 82              1983 	mov	dpl,r3
   0A80 8C 83              1984 	mov	dph,r4
   0A82 88 F0              1985 	mov	b,r0
   0A84 12s00r00           1986 	lcall	__gptrget
   0A87 FB                 1987 	mov	r3,a
   0A88 A3                 1988 	inc	dptr
   0A89 12s00r00           1989 	lcall	__gptrget
   0A8C FC                 1990 	mov	r4,a
   0A8D A3                 1991 	inc	dptr
   0A8E 12s00r00           1992 	lcall	__gptrget
   0A91 F8                 1993 	mov	r0,a
   0A92 8A 01              1994 	mov	ar1,r2
   0A94 7D 00              1995 	mov	r5,#0x00
   0A96 19                 1996 	dec	r1
   0A97 B9 FF 01           1997 	cjne	r1,#0xff,00213$
   0A9A 1D                 1998 	dec	r5
   0A9B                    1999 00213$:
   0A9B C0 02              2000 	push	ar2
   0A9D C0 05              2001 	push	ar5
   0A9F C0 06              2002 	push	ar6
   0AA1 C0 07              2003 	push	ar7
   0AA3 C0 03              2004 	push	ar3
   0AA5 C0 04              2005 	push	ar4
   0AA7 C0 00              2006 	push	ar0
   0AA9 C0 01              2007 	push	ar1
   0AAB C0 05              2008 	push	ar5
   0AAD 74r3E              2009 	mov	a,#__str_15
   0AAF C0 E0              2010 	push	acc
   0AB1 74s01              2011 	mov	a,#(__str_15 >> 8)
   0AB3 C0 E0              2012 	push	acc
   0AB5 74 80              2013 	mov	a,#0x80
   0AB7 C0 E0              2014 	push	acc
   0AB9 12s00r00           2015 	lcall	_printf
   0ABC E5 81              2016 	mov	a,sp
   0ABE 24 F8              2017 	add	a,#0xf8
   0AC0 F5 81              2018 	mov	sp,a
   0AC2 D0 07              2019 	pop	ar7
   0AC4 D0 06              2020 	pop	ar6
   0AC6 D0 05              2021 	pop	ar5
   0AC8 D0 02              2022 	pop	ar2
                           2023 ;	D:/EiqEnergy/Projects/Software/_SoftwareLibraries/StateMachines/stateMachine_G4.c:279: if(stateBeingProcessed == target)
   0ACA E5*1F              2024 	mov	a,_iterateStateMachine_sloc9_1_0
   0ACC B5*22 0C           2025 	cjne	a,_iterateStateMachine_sloc10_1_0,00214$
   0ACF E5*20              2026 	mov	a,(_iterateStateMachine_sloc9_1_0 + 1)
   0AD1 B5*23 07           2027 	cjne	a,(_iterateStateMachine_sloc10_1_0 + 1),00214$
   0AD4 E5*21              2028 	mov	a,(_iterateStateMachine_sloc9_1_0 + 2)
   0AD6 B5*24 02           2029 	cjne	a,(_iterateStateMachine_sloc10_1_0 + 2),00214$
   0AD9 80 09              2030 	sjmp	00215$
   0ADB                    2031 00214$:
   0ADB D0 07              2032 	pop	ar7
   0ADD D0 06              2033 	pop	ar6
   0ADF D0 05              2034 	pop	ar5
   0AE1 02s0BrCE           2035 	ljmp	00116$
   0AE4                    2036 00215$:
   0AE4 D0 07              2037 	pop	ar7
   0AE6 D0 06              2038 	pop	ar6
   0AE8 D0 05              2039 	pop	ar5
                           2040 ;	D:/EiqEnergy/Projects/Software/_SoftwareLibraries/StateMachines/stateMachine_G4.c:283: printf("\t\t\t\t\t\tFound target as ancestor of source\n") ;
   0AEA C0 02              2041 	push	ar2
   0AEC C0 05              2042 	push	ar5
   0AEE C0 06              2043 	push	ar6
   0AF0 C0 07              2044 	push	ar7
   0AF2 74r5D              2045 	mov	a,#__str_16
   0AF4 C0 E0              2046 	push	acc
   0AF6 74s01              2047 	mov	a,#(__str_16 >> 8)
   0AF8 C0 E0              2048 	push	acc
   0AFA 74 80              2049 	mov	a,#0x80
   0AFC C0 E0              2050 	push	acc
   0AFE 12s00r00           2051 	lcall	_printf
   0B01 15 81              2052 	dec	sp
   0B03 15 81              2053 	dec	sp
   0B05 15 81              2054 	dec	sp
   0B07 D0 07              2055 	pop	ar7
   0B09 D0 06              2056 	pop	ar6
   0B0B D0 05              2057 	pop	ar5
   0B0D D0 02              2058 	pop	ar2
                           2059 ;	D:/EiqEnergy/Projects/Software/_SoftwareLibraries/StateMachines/stateMachine_G4.c:285: sourceIndex-- ;
   0B0F EA                 2060 	mov	a,r2
   0B10 14                 2061 	dec	a
   0B11 FB                 2062 	mov	r3,a
   0B12 90s00rE5           2063 	mov	dptr,#_iterateStateMachine_sourceIndex_4_13
   0B15 F0                 2064 	movx	@dptr,a
                           2065 ;	D:/EiqEnergy/Projects/Software/_SoftwareLibraries/StateMachines/stateMachine_G4.c:287: while(exitIndex < sourceIndex)
   0B16 8B*1E              2066 	mov	_iterateStateMachine_sloc8_1_0,r3
   0B18 7C 00              2067 	mov	r4,#0x00
   0B1A                    2068 00112$:
   0B1A C3                 2069 	clr	c
   0B1B EC                 2070 	mov	a,r4
   0B1C 95*1E              2071 	subb	a,_iterateStateMachine_sloc8_1_0
   0B1E 40 03              2072 	jc	00216$
   0B20 02s0BrAA           2073 	ljmp	00114$
   0B23                    2074 00216$:
                           2075 ;	D:/EiqEnergy/Projects/Software/_SoftwareLibraries/StateMachines/stateMachine_G4.c:289: printf("\t\t\t\t") ;
   0B23 C0 05              2076 	push	ar5
   0B25 C0 06              2077 	push	ar6
   0B27 C0 07              2078 	push	ar7
   0B29 C0 04              2079 	push	ar4
   0B2B C0 05              2080 	push	ar5
   0B2D C0 06              2081 	push	ar6
   0B2F C0 07              2082 	push	ar7
   0B31 74r87              2083 	mov	a,#__str_17
   0B33 C0 E0              2084 	push	acc
   0B35 74s01              2085 	mov	a,#(__str_17 >> 8)
   0B37 C0 E0              2086 	push	acc
   0B39 74 80              2087 	mov	a,#0x80
   0B3B C0 E0              2088 	push	acc
   0B3D 12s00r00           2089 	lcall	_printf
   0B40 15 81              2090 	dec	sp
   0B42 15 81              2091 	dec	sp
   0B44 15 81              2092 	dec	sp
   0B46 D0 07              2093 	pop	ar7
   0B48 D0 06              2094 	pop	ar6
   0B4A D0 05              2095 	pop	ar5
   0B4C D0 04              2096 	pop	ar4
                           2097 ;	D:/EiqEnergy/Projects/Software/_SoftwareLibraries/StateMachines/stateMachine_G4.c:291: callStateHandler(sm, sourceHierarchy[exitIndex], &exitEvent) ;
   0B4E 90s00rAA           2098 	mov	dptr,#_iterateStateMachine_sm_1_1
   0B51 E0                 2099 	movx	a,@dptr
   0B52 F8                 2100 	mov	r0,a
   0B53 A3                 2101 	inc	dptr
   0B54 E0                 2102 	movx	a,@dptr
   0B55 F9                 2103 	mov	r1,a
   0B56 A3                 2104 	inc	dptr
   0B57 E0                 2105 	movx	a,@dptr
   0B58 FD                 2106 	mov	r5,a
   0B59 EC                 2107 	mov	a,r4
   0B5A 75 F0 03           2108 	mov	b,#0x03
   0B5D A4                 2109 	mul	ab
   0B5E 24rB5              2110 	add	a,#_iterateStateMachine_sourceHierarchy_4_13
   0B60 F5 82              2111 	mov	dpl,a
   0B62 E4                 2112 	clr	a
   0B63 34s00              2113 	addc	a,#(_iterateStateMachine_sourceHierarchy_4_13 >> 8)
   0B65 F5 83              2114 	mov	dph,a
   0B67 E0                 2115 	movx	a,@dptr
   0B68 FE                 2116 	mov	r6,a
   0B69 A3                 2117 	inc	dptr
   0B6A E0                 2118 	movx	a,@dptr
   0B6B FF                 2119 	mov	r7,a
   0B6C A3                 2120 	inc	dptr
   0B6D E0                 2121 	movx	a,@dptr
   0B6E FB                 2122 	mov	r3,a
   0B6F 90s00rA1           2123 	mov	dptr,#_callStateHandler_PARM_2
   0B72 EE                 2124 	mov	a,r6
   0B73 F0                 2125 	movx	@dptr,a
   0B74 A3                 2126 	inc	dptr
   0B75 EF                 2127 	mov	a,r7
   0B76 F0                 2128 	movx	@dptr,a
   0B77 A3                 2129 	inc	dptr
   0B78 EB                 2130 	mov	a,r3
   0B79 F0                 2131 	movx	@dptr,a
   0B7A 90s00rA4           2132 	mov	dptr,#_callStateHandler_PARM_3
   0B7D 74rAF              2133 	mov	a,#_iterateStateMachine_exitEvent_1_1
   0B7F F0                 2134 	movx	@dptr,a
   0B80 A3                 2135 	inc	dptr
   0B81 74s00              2136 	mov	a,#(_iterateStateMachine_exitEvent_1_1 >> 8)
   0B83 F0                 2137 	movx	@dptr,a
   0B84 A3                 2138 	inc	dptr
   0B85 E4                 2139 	clr	a
   0B86 F0                 2140 	movx	@dptr,a
   0B87 88 82              2141 	mov	dpl,r0
   0B89 89 83              2142 	mov	dph,r1
   0B8B 8D F0              2143 	mov	b,r5
   0B8D C0 04              2144 	push	ar4
   0B8F C0 05              2145 	push	ar5
   0B91 C0 06              2146 	push	ar6
   0B93 C0 07              2147 	push	ar7
   0B95 12s01r85           2148 	lcall	_callStateHandler
   0B98 D0 07              2149 	pop	ar7
   0B9A D0 06              2150 	pop	ar6
   0B9C D0 05              2151 	pop	ar5
   0B9E D0 04              2152 	pop	ar4
                           2153 ;	D:/EiqEnergy/Projects/Software/_SoftwareLibraries/StateMachines/stateMachine_G4.c:293: exitIndex++ ;
   0BA0 0C                 2154 	inc	r4
   0BA1 D0 07              2155 	pop	ar7
   0BA3 D0 06              2156 	pop	ar6
   0BA5 D0 05              2157 	pop	ar5
   0BA7 02s0Br1A           2158 	ljmp	00112$
   0BAA                    2159 00114$:
                           2160 ;	D:/EiqEnergy/Projects/Software/_SoftwareLibraries/StateMachines/stateMachine_G4.c:296: sm->currentState = target ;
   0BAA 74 06              2161 	mov	a,#0x06
   0BAC 25*09              2162 	add	a,_iterateStateMachine_sloc1_1_0
   0BAE FB                 2163 	mov	r3,a
   0BAF E4                 2164 	clr	a
   0BB0 35*0A              2165 	addc	a,(_iterateStateMachine_sloc1_1_0 + 1)
   0BB2 FC                 2166 	mov	r4,a
   0BB3 A8*0B              2167 	mov	r0,(_iterateStateMachine_sloc1_1_0 + 2)
   0BB5 8B 82              2168 	mov	dpl,r3
   0BB7 8C 83              2169 	mov	dph,r4
   0BB9 88 F0              2170 	mov	b,r0
   0BBB E5*1F              2171 	mov	a,_iterateStateMachine_sloc9_1_0
   0BBD 12s00r00           2172 	lcall	__gptrput
   0BC0 A3                 2173 	inc	dptr
   0BC1 E5*20              2174 	mov	a,(_iterateStateMachine_sloc9_1_0 + 1)
   0BC3 12s00r00           2175 	lcall	__gptrput
   0BC6 A3                 2176 	inc	dptr
   0BC7 E5*21              2177 	mov	a,(_iterateStateMachine_sloc9_1_0 + 2)
   0BC9 12s00r00           2178 	lcall	__gptrput
                           2179 ;	D:/EiqEnergy/Projects/Software/_SoftwareLibraries/StateMachines/stateMachine_G4.c:298: break ;
   0BCC 80 35              2180 	sjmp	00119$
   0BCE                    2181 00116$:
                           2182 ;	D:/EiqEnergy/Projects/Software/_SoftwareLibraries/StateMachines/stateMachine_G4.c:301: stateBeingProcessed = stateBeingProcessed->parent ;
   0BCE 85*22 82           2183 	mov	dpl,_iterateStateMachine_sloc10_1_0
   0BD1 85*23 83           2184 	mov	dph,(_iterateStateMachine_sloc10_1_0 + 1)
   0BD4 85*24 F0           2185 	mov	b,(_iterateStateMachine_sloc10_1_0 + 2)
   0BD7 12s00r00           2186 	lcall	__gptrget
   0BDA FB                 2187 	mov	r3,a
   0BDB A3                 2188 	inc	dptr
   0BDC 12s00r00           2189 	lcall	__gptrget
   0BDF FC                 2190 	mov	r4,a
   0BE0 A3                 2191 	inc	dptr
   0BE1 12s00r00           2192 	lcall	__gptrget
   0BE4 F8                 2193 	mov	r0,a
   0BE5 90s00rB2           2194 	mov	dptr,#_iterateStateMachine_stateBeingProcessed_2_3
   0BE8 EB                 2195 	mov	a,r3
   0BE9 F0                 2196 	movx	@dptr,a
   0BEA A3                 2197 	inc	dptr
   0BEB EC                 2198 	mov	a,r4
   0BEC F0                 2199 	movx	@dptr,a
   0BED A3                 2200 	inc	dptr
   0BEE E8                 2201 	mov	a,r0
   0BEF F0                 2202 	movx	@dptr,a
                           2203 ;	D:/EiqEnergy/Projects/Software/_SoftwareLibraries/StateMachines/stateMachine_G4.c:302: } while(stateBeingProcessed) ;
   0BF0 90s00rB2           2204 	mov	dptr,#_iterateStateMachine_stateBeingProcessed_2_3
   0BF3 E0                 2205 	movx	a,@dptr
   0BF4 FB                 2206 	mov	r3,a
   0BF5 A3                 2207 	inc	dptr
   0BF6 E0                 2208 	movx	a,@dptr
   0BF7 FC                 2209 	mov	r4,a
   0BF8 A3                 2210 	inc	dptr
   0BF9 E0                 2211 	movx	a,@dptr
   0BFA F8                 2212 	mov	r0,a
   0BFB EB                 2213 	mov	a,r3
   0BFC 4C                 2214 	orl	a,r4
   0BFD 48                 2215 	orl	a,r0
   0BFE 60 03              2216 	jz	00217$
   0C00 02s0Ar3C           2217 	ljmp	00117$
   0C03                    2218 00217$:
   0C03                    2219 00119$:
                           2220 ;	D:/EiqEnergy/Projects/Software/_SoftwareLibraries/StateMachines/stateMachine_G4.c:304: if(sm->currentState != target)
   0C03 85*0F 82           2221 	mov	dpl,_iterateStateMachine_sloc3_1_0
   0C06 85*10 83           2222 	mov	dph,(_iterateStateMachine_sloc3_1_0 + 1)
   0C09 85*11 F0           2223 	mov	b,(_iterateStateMachine_sloc3_1_0 + 2)
   0C0C 12s00r00           2224 	lcall	__gptrget
   0C0F FA                 2225 	mov	r2,a
   0C10 A3                 2226 	inc	dptr
   0C11 12s00r00           2227 	lcall	__gptrget
   0C14 FB                 2228 	mov	r3,a
   0C15 A3                 2229 	inc	dptr
   0C16 12s00r00           2230 	lcall	__gptrget
   0C19 FC                 2231 	mov	r4,a
   0C1A EA                 2232 	mov	a,r2
   0C1B B5*1F 0B           2233 	cjne	a,_iterateStateMachine_sloc9_1_0,00218$
   0C1E EB                 2234 	mov	a,r3
   0C1F B5*20 07           2235 	cjne	a,(_iterateStateMachine_sloc9_1_0 + 1),00218$
   0C22 EC                 2236 	mov	a,r4
   0C23 B5*21 03           2237 	cjne	a,(_iterateStateMachine_sloc9_1_0 + 2),00218$
   0C26 02s0Er0D           2238 	ljmp	00129$
   0C29                    2239 00218$:
                           2240 ;	D:/EiqEnergy/Projects/Software/_SoftwareLibraries/StateMachines/stateMachine_G4.c:306: printf("\t\t\t\tScanning target hierarchy...\n") ;
   0C29 C0 05              2241 	push	ar5
   0C2B C0 06              2242 	push	ar6
   0C2D C0 07              2243 	push	ar7
   0C2F 74r8C              2244 	mov	a,#__str_18
   0C31 C0 E0              2245 	push	acc
   0C33 74s01              2246 	mov	a,#(__str_18 >> 8)
   0C35 C0 E0              2247 	push	acc
   0C37 74 80              2248 	mov	a,#0x80
   0C39 C0 E0              2249 	push	acc
   0C3B 12s00r00           2250 	lcall	_printf
   0C3E 15 81              2251 	dec	sp
   0C40 15 81              2252 	dec	sp
   0C42 15 81              2253 	dec	sp
   0C44 D0 07              2254 	pop	ar7
   0C46 D0 06              2255 	pop	ar6
   0C48 D0 05              2256 	pop	ar5
                           2257 ;	D:/EiqEnergy/Projects/Software/_SoftwareLibraries/StateMachines/stateMachine_G4.c:308: targetIndex			= 0 ;
   0C4A 90s01r16           2258 	mov	dptr,#_iterateStateMachine_targetIndex_4_13
   0C4D E4                 2259 	clr	a
   0C4E F0                 2260 	movx	@dptr,a
                           2261 ;	D:/EiqEnergy/Projects/Software/_SoftwareLibraries/StateMachines/stateMachine_G4.c:309: stateBeingProcessed	= target ;
   0C4F 90s00rB2           2262 	mov	dptr,#_iterateStateMachine_stateBeingProcessed_2_3
   0C52 E5*1F              2263 	mov	a,_iterateStateMachine_sloc9_1_0
   0C54 F0                 2264 	movx	@dptr,a
   0C55 A3                 2265 	inc	dptr
   0C56 E5*20              2266 	mov	a,(_iterateStateMachine_sloc9_1_0 + 1)
   0C58 F0                 2267 	movx	@dptr,a
   0C59 A3                 2268 	inc	dptr
   0C5A E5*21              2269 	mov	a,(_iterateStateMachine_sloc9_1_0 + 2)
   0C5C F0                 2270 	movx	@dptr,a
                           2271 ;	D:/EiqEnergy/Projects/Software/_SoftwareLibraries/StateMachines/stateMachine_G4.c:311: do
   0C5D 7A 00              2272 	mov	r2,#0x00
   0C5F                    2273 00125$:
                           2274 ;	D:/EiqEnergy/Projects/Software/_SoftwareLibraries/StateMachines/stateMachine_G4.c:313: targetHierarchy[targetIndex] = stateBeingProcessed ;
   0C5F C0 05              2275 	push	ar5
   0C61 C0 06              2276 	push	ar6
   0C63 C0 07              2277 	push	ar7
   0C65 EA                 2278 	mov	a,r2
   0C66 75 F0 03           2279 	mov	b,#0x03
   0C69 A4                 2280 	mul	ab
   0C6A 24rE6              2281 	add	a,#_iterateStateMachine_targetHierarchy_4_13
   0C6C FB                 2282 	mov	r3,a
   0C6D E4                 2283 	clr	a
   0C6E 34s00              2284 	addc	a,#(_iterateStateMachine_targetHierarchy_4_13 >> 8)
   0C70 FC                 2285 	mov	r4,a
   0C71 90s00rB2           2286 	mov	dptr,#_iterateStateMachine_stateBeingProcessed_2_3
   0C74 E0                 2287 	movx	a,@dptr
   0C75 F5*22              2288 	mov	_iterateStateMachine_sloc10_1_0,a
   0C77 A3                 2289 	inc	dptr
   0C78 E0                 2290 	movx	a,@dptr
   0C79 F5*23              2291 	mov	(_iterateStateMachine_sloc10_1_0 + 1),a
   0C7B A3                 2292 	inc	dptr
   0C7C E0                 2293 	movx	a,@dptr
   0C7D F5*24              2294 	mov	(_iterateStateMachine_sloc10_1_0 + 2),a
   0C7F 8B 82              2295 	mov	dpl,r3
   0C81 8C 83              2296 	mov	dph,r4
   0C83 E5*22              2297 	mov	a,_iterateStateMachine_sloc10_1_0
   0C85 F0                 2298 	movx	@dptr,a
   0C86 A3                 2299 	inc	dptr
   0C87 E5*23              2300 	mov	a,(_iterateStateMachine_sloc10_1_0 + 1)
   0C89 F0                 2301 	movx	@dptr,a
   0C8A A3                 2302 	inc	dptr
   0C8B E5*24              2303 	mov	a,(_iterateStateMachine_sloc10_1_0 + 2)
   0C8D F0                 2304 	movx	@dptr,a
                           2305 ;	D:/EiqEnergy/Projects/Software/_SoftwareLibraries/StateMachines/stateMachine_G4.c:315: printf("\t\t\t\t\ttargetHierarchy[%d] = %s\n", targetIndex, stateBeingProcessed->stateName) ;
   0C8E 74 06              2306 	mov	a,#0x06
   0C90 25*22              2307 	add	a,_iterateStateMachine_sloc10_1_0
   0C92 FB                 2308 	mov	r3,a
   0C93 E4                 2309 	clr	a
   0C94 35*23              2310 	addc	a,(_iterateStateMachine_sloc10_1_0 + 1)
   0C96 FC                 2311 	mov	r4,a
   0C97 A8*24              2312 	mov	r0,(_iterateStateMachine_sloc10_1_0 + 2)
   0C99 8B 82              2313 	mov	dpl,r3
   0C9B 8C 83              2314 	mov	dph,r4
   0C9D 88 F0              2315 	mov	b,r0
   0C9F 12s00r00           2316 	lcall	__gptrget
   0CA2 FB                 2317 	mov	r3,a
   0CA3 A3                 2318 	inc	dptr
   0CA4 12s00r00           2319 	lcall	__gptrget
   0CA7 FC                 2320 	mov	r4,a
   0CA8 A3                 2321 	inc	dptr
   0CA9 12s00r00           2322 	lcall	__gptrget
   0CAC F8                 2323 	mov	r0,a
   0CAD 8A 01              2324 	mov	ar1,r2
   0CAF 7D 00              2325 	mov	r5,#0x00
   0CB1 C0 02              2326 	push	ar2
   0CB3 C0 05              2327 	push	ar5
   0CB5 C0 06              2328 	push	ar6
   0CB7 C0 07              2329 	push	ar7
   0CB9 C0 03              2330 	push	ar3
   0CBB C0 04              2331 	push	ar4
   0CBD C0 00              2332 	push	ar0
   0CBF C0 01              2333 	push	ar1
   0CC1 C0 05              2334 	push	ar5
   0CC3 74rAE              2335 	mov	a,#__str_19
   0CC5 C0 E0              2336 	push	acc
   0CC7 74s01              2337 	mov	a,#(__str_19 >> 8)
   0CC9 C0 E0              2338 	push	acc
   0CCB 74 80              2339 	mov	a,#0x80
   0CCD C0 E0              2340 	push	acc
   0CCF 12s00r00           2341 	lcall	_printf
   0CD2 E5 81              2342 	mov	a,sp
   0CD4 24 F8              2343 	add	a,#0xf8
   0CD6 F5 81              2344 	mov	sp,a
   0CD8 D0 07              2345 	pop	ar7
   0CDA D0 06              2346 	pop	ar6
   0CDC D0 05              2347 	pop	ar5
   0CDE D0 02              2348 	pop	ar2
                           2349 ;	D:/EiqEnergy/Projects/Software/_SoftwareLibraries/StateMachines/stateMachine_G4.c:317: if(stateBeingProcessed == source)
   0CE0 E5*18              2350 	mov	a,_iterateStateMachine_sloc6_1_0
   0CE2 B5*22 0C           2351 	cjne	a,_iterateStateMachine_sloc10_1_0,00219$
   0CE5 E5*19              2352 	mov	a,(_iterateStateMachine_sloc6_1_0 + 1)
   0CE7 B5*23 07           2353 	cjne	a,(_iterateStateMachine_sloc10_1_0 + 1),00219$
   0CEA E5*1A              2354 	mov	a,(_iterateStateMachine_sloc6_1_0 + 2)
   0CEC B5*24 02           2355 	cjne	a,(_iterateStateMachine_sloc10_1_0 + 2),00219$
   0CEF 80 09              2356 	sjmp	00220$
   0CF1                    2357 00219$:
   0CF1 D0 07              2358 	pop	ar7
   0CF3 D0 06              2359 	pop	ar6
   0CF5 D0 05              2360 	pop	ar5
   0CF7 02s0DrD2           2361 	ljmp	00124$
   0CFA                    2362 00220$:
                           2363 ;	D:/EiqEnergy/Projects/Software/_SoftwareLibraries/StateMachines/stateMachine_G4.c:319: printf("\t\t\t\t\t\tFound source as ancestor of target\n") ;
   0CFA 74rCD              2364 	mov	a,#__str_20
   0CFC C0 E0              2365 	push	acc
   0CFE 74s01              2366 	mov	a,#(__str_20 >> 8)
   0D00 C0 E0              2367 	push	acc
   0D02 74 80              2368 	mov	a,#0x80
   0D04 C0 E0              2369 	push	acc
   0D06 12s00r00           2370 	lcall	_printf
   0D09 15 81              2371 	dec	sp
   0D0B 15 81              2372 	dec	sp
   0D0D 15 81              2373 	dec	sp
   0D0F D0 07              2374 	pop	ar7
   0D11 D0 06              2375 	pop	ar6
   0D13 D0 05              2376 	pop	ar5
                           2377 ;	D:/EiqEnergy/Projects/Software/_SoftwareLibraries/StateMachines/stateMachine_G4.c:321: while(targetIndex--)
   0D15 90s01r16           2378 	mov	dptr,#_iterateStateMachine_targetIndex_4_13
   0D18 E0                 2379 	movx	a,@dptr
   0D19 FB                 2380 	mov	r3,a
   0D1A                    2381 00120$:
   0D1A 8B 04              2382 	mov	ar4,r3
   0D1C 1B                 2383 	dec	r3
   0D1D EC                 2384 	mov	a,r4
   0D1E 70 03              2385 	jnz	00221$
   0D20 02s0DrA9           2386 	ljmp	00192$
   0D23                    2387 00221$:
                           2388 ;	D:/EiqEnergy/Projects/Software/_SoftwareLibraries/StateMachines/stateMachine_G4.c:323: printf("\t\t\t\t") ;
   0D23 C0 05              2389 	push	ar5
   0D25 C0 06              2390 	push	ar6
   0D27 C0 07              2391 	push	ar7
   0D29 C0 03              2392 	push	ar3
   0D2B C0 05              2393 	push	ar5
   0D2D C0 06              2394 	push	ar6
   0D2F C0 07              2395 	push	ar7
   0D31 74r87              2396 	mov	a,#__str_17
   0D33 C0 E0              2397 	push	acc
   0D35 74s01              2398 	mov	a,#(__str_17 >> 8)
   0D37 C0 E0              2399 	push	acc
   0D39 74 80              2400 	mov	a,#0x80
   0D3B C0 E0              2401 	push	acc
   0D3D 12s00r00           2402 	lcall	_printf
   0D40 15 81              2403 	dec	sp
   0D42 15 81              2404 	dec	sp
   0D44 15 81              2405 	dec	sp
   0D46 D0 07              2406 	pop	ar7
   0D48 D0 06              2407 	pop	ar6
   0D4A D0 05              2408 	pop	ar5
   0D4C D0 03              2409 	pop	ar3
                           2410 ;	D:/EiqEnergy/Projects/Software/_SoftwareLibraries/StateMachines/stateMachine_G4.c:324: callStateHandler(sm, targetHierarchy[targetIndex], &enterEvent) ;
   0D4E 90s00rAA           2411 	mov	dptr,#_iterateStateMachine_sm_1_1
   0D51 E0                 2412 	movx	a,@dptr
   0D52 FC                 2413 	mov	r4,a
   0D53 A3                 2414 	inc	dptr
   0D54 E0                 2415 	movx	a,@dptr
   0D55 F8                 2416 	mov	r0,a
   0D56 A3                 2417 	inc	dptr
   0D57 E0                 2418 	movx	a,@dptr
   0D58 F9                 2419 	mov	r1,a
   0D59 EB                 2420 	mov	a,r3
   0D5A 75 F0 03           2421 	mov	b,#0x03
   0D5D A4                 2422 	mul	ab
   0D5E 24rE6              2423 	add	a,#_iterateStateMachine_targetHierarchy_4_13
   0D60 F5 82              2424 	mov	dpl,a
   0D62 E4                 2425 	clr	a
   0D63 34s00              2426 	addc	a,#(_iterateStateMachine_targetHierarchy_4_13 >> 8)
   0D65 F5 83              2427 	mov	dph,a
   0D67 E0                 2428 	movx	a,@dptr
   0D68 FD                 2429 	mov	r5,a
   0D69 A3                 2430 	inc	dptr
   0D6A E0                 2431 	movx	a,@dptr
   0D6B FE                 2432 	mov	r6,a
   0D6C A3                 2433 	inc	dptr
   0D6D E0                 2434 	movx	a,@dptr
   0D6E FF                 2435 	mov	r7,a
   0D6F 90s00rA1           2436 	mov	dptr,#_callStateHandler_PARM_2
   0D72 ED                 2437 	mov	a,r5
   0D73 F0                 2438 	movx	@dptr,a
   0D74 A3                 2439 	inc	dptr
   0D75 EE                 2440 	mov	a,r6
   0D76 F0                 2441 	movx	@dptr,a
   0D77 A3                 2442 	inc	dptr
   0D78 EF                 2443 	mov	a,r7
   0D79 F0                 2444 	movx	@dptr,a
   0D7A 90s00rA4           2445 	mov	dptr,#_callStateHandler_PARM_3
   0D7D 74rAE              2446 	mov	a,#_iterateStateMachine_enterEvent_1_1
   0D7F F0                 2447 	movx	@dptr,a
   0D80 A3                 2448 	inc	dptr
   0D81 74s00              2449 	mov	a,#(_iterateStateMachine_enterEvent_1_1 >> 8)
   0D83 F0                 2450 	movx	@dptr,a
   0D84 A3                 2451 	inc	dptr
   0D85 E4                 2452 	clr	a
   0D86 F0                 2453 	movx	@dptr,a
   0D87 8C 82              2454 	mov	dpl,r4
   0D89 88 83              2455 	mov	dph,r0
   0D8B 89 F0              2456 	mov	b,r1
   0D8D C0 03              2457 	push	ar3
   0D8F C0 05              2458 	push	ar5
   0D91 C0 06              2459 	push	ar6
   0D93 C0 07              2460 	push	ar7
   0D95 12s01r85           2461 	lcall	_callStateHandler
   0D98 D0 07              2462 	pop	ar7
   0D9A D0 06              2463 	pop	ar6
   0D9C D0 05              2464 	pop	ar5
   0D9E D0 03              2465 	pop	ar3
   0DA0 D0 07              2466 	pop	ar7
   0DA2 D0 06              2467 	pop	ar6
   0DA4 D0 05              2468 	pop	ar5
   0DA6 02s0Dr1A           2469 	ljmp	00120$
   0DA9                    2470 00192$:
   0DA9 90s01r16           2471 	mov	dptr,#_iterateStateMachine_targetIndex_4_13
   0DAC EB                 2472 	mov	a,r3
   0DAD F0                 2473 	movx	@dptr,a
                           2474 ;	D:/EiqEnergy/Projects/Software/_SoftwareLibraries/StateMachines/stateMachine_G4.c:327: sm->currentState = target ;
   0DAE 74 06              2475 	mov	a,#0x06
   0DB0 25*0C              2476 	add	a,_iterateStateMachine_sloc2_1_0
   0DB2 FB                 2477 	mov	r3,a
   0DB3 E4                 2478 	clr	a
   0DB4 35*0D              2479 	addc	a,(_iterateStateMachine_sloc2_1_0 + 1)
   0DB6 FC                 2480 	mov	r4,a
   0DB7 A8*0E              2481 	mov	r0,(_iterateStateMachine_sloc2_1_0 + 2)
   0DB9 8B 82              2482 	mov	dpl,r3
   0DBB 8C 83              2483 	mov	dph,r4
   0DBD 88 F0              2484 	mov	b,r0
   0DBF E5*1F              2485 	mov	a,_iterateStateMachine_sloc9_1_0
   0DC1 12s00r00           2486 	lcall	__gptrput
   0DC4 A3                 2487 	inc	dptr
   0DC5 E5*20              2488 	mov	a,(_iterateStateMachine_sloc9_1_0 + 1)
   0DC7 12s00r00           2489 	lcall	__gptrput
   0DCA A3                 2490 	inc	dptr
   0DCB E5*21              2491 	mov	a,(_iterateStateMachine_sloc9_1_0 + 2)
   0DCD 12s00r00           2492 	lcall	__gptrput
                           2493 ;	D:/EiqEnergy/Projects/Software/_SoftwareLibraries/StateMachines/stateMachine_G4.c:329: break ;
   0DD0 80 3B              2494 	sjmp	00129$
   0DD2                    2495 00124$:
                           2496 ;	D:/EiqEnergy/Projects/Software/_SoftwareLibraries/StateMachines/stateMachine_G4.c:332: targetIndex++ ;
   0DD2 0A                 2497 	inc	r2
   0DD3 90s01r16           2498 	mov	dptr,#_iterateStateMachine_targetIndex_4_13
   0DD6 EA                 2499 	mov	a,r2
   0DD7 F0                 2500 	movx	@dptr,a
                           2501 ;	D:/EiqEnergy/Projects/Software/_SoftwareLibraries/StateMachines/stateMachine_G4.c:333: stateBeingProcessed = stateBeingProcessed->parent ;
   0DD8 85*22 82           2502 	mov	dpl,_iterateStateMachine_sloc10_1_0
   0DDB 85*23 83           2503 	mov	dph,(_iterateStateMachine_sloc10_1_0 + 1)
   0DDE 85*24 F0           2504 	mov	b,(_iterateStateMachine_sloc10_1_0 + 2)
   0DE1 12s00r00           2505 	lcall	__gptrget
   0DE4 FB                 2506 	mov	r3,a
   0DE5 A3                 2507 	inc	dptr
   0DE6 12s00r00           2508 	lcall	__gptrget
   0DE9 FC                 2509 	mov	r4,a
   0DEA A3                 2510 	inc	dptr
   0DEB 12s00r00           2511 	lcall	__gptrget
   0DEE F8                 2512 	mov	r0,a
   0DEF 90s00rB2           2513 	mov	dptr,#_iterateStateMachine_stateBeingProcessed_2_3
   0DF2 EB                 2514 	mov	a,r3
   0DF3 F0                 2515 	movx	@dptr,a
   0DF4 A3                 2516 	inc	dptr
   0DF5 EC                 2517 	mov	a,r4
   0DF6 F0                 2518 	movx	@dptr,a
   0DF7 A3                 2519 	inc	dptr
   0DF8 E8                 2520 	mov	a,r0
   0DF9 F0                 2521 	movx	@dptr,a
                           2522 ;	D:/EiqEnergy/Projects/Software/_SoftwareLibraries/StateMachines/stateMachine_G4.c:334: } while(stateBeingProcessed) ;
   0DFA 90s00rB2           2523 	mov	dptr,#_iterateStateMachine_stateBeingProcessed_2_3
   0DFD E0                 2524 	movx	a,@dptr
   0DFE FB                 2525 	mov	r3,a
   0DFF A3                 2526 	inc	dptr
   0E00 E0                 2527 	movx	a,@dptr
   0E01 FC                 2528 	mov	r4,a
   0E02 A3                 2529 	inc	dptr
   0E03 E0                 2530 	movx	a,@dptr
   0E04 F8                 2531 	mov	r0,a
   0E05 EB                 2532 	mov	a,r3
   0E06 4C                 2533 	orl	a,r4
   0E07 48                 2534 	orl	a,r0
   0E08 60 03              2535 	jz	00222$
   0E0A 02s0Cr5F           2536 	ljmp	00125$
   0E0D                    2537 00222$:
   0E0D                    2538 00129$:
                           2539 ;	D:/EiqEnergy/Projects/Software/_SoftwareLibraries/StateMachines/stateMachine_G4.c:337: if(sm->currentState != target)
   0E0D 85*0F 82           2540 	mov	dpl,_iterateStateMachine_sloc3_1_0
   0E10 85*10 83           2541 	mov	dph,(_iterateStateMachine_sloc3_1_0 + 1)
   0E13 85*11 F0           2542 	mov	b,(_iterateStateMachine_sloc3_1_0 + 2)
   0E16 12s00r00           2543 	lcall	__gptrget
   0E19 FA                 2544 	mov	r2,a
   0E1A A3                 2545 	inc	dptr
   0E1B 12s00r00           2546 	lcall	__gptrget
   0E1E FB                 2547 	mov	r3,a
   0E1F A3                 2548 	inc	dptr
   0E20 12s00r00           2549 	lcall	__gptrget
   0E23 FC                 2550 	mov	r4,a
   0E24 EA                 2551 	mov	a,r2
   0E25 B5*1F 0B           2552 	cjne	a,_iterateStateMachine_sloc9_1_0,00223$
   0E28 EB                 2553 	mov	a,r3
   0E29 B5*20 07           2554 	cjne	a,(_iterateStateMachine_sloc9_1_0 + 1),00223$
   0E2C EC                 2555 	mov	a,r4
   0E2D B5*21 03           2556 	cjne	a,(_iterateStateMachine_sloc9_1_0 + 2),00223$
   0E30 02s11rB9           2557 	ljmp	00152$
   0E33                    2558 00223$:
                           2559 ;	D:/EiqEnergy/Projects/Software/_SoftwareLibraries/StateMachines/stateMachine_G4.c:341: printf("\t\t\t\tStill haven't found relationship. Scanning for LCA...\n") ;
   0E33 C0 05              2560 	push	ar5
   0E35 C0 06              2561 	push	ar6
   0E37 C0 07              2562 	push	ar7
   0E39 C0 05              2563 	push	ar5
   0E3B C0 06              2564 	push	ar6
   0E3D C0 07              2565 	push	ar7
   0E3F 74rF7              2566 	mov	a,#__str_21
   0E41 C0 E0              2567 	push	acc
   0E43 74s01              2568 	mov	a,#(__str_21 >> 8)
   0E45 C0 E0              2569 	push	acc
   0E47 74 80              2570 	mov	a,#0x80
   0E49 C0 E0              2571 	push	acc
   0E4B 12s00r00           2572 	lcall	_printf
   0E4E 15 81              2573 	dec	sp
   0E50 15 81              2574 	dec	sp
   0E52 15 81              2575 	dec	sp
   0E54 D0 07              2576 	pop	ar7
   0E56 D0 06              2577 	pop	ar6
   0E58 D0 05              2578 	pop	ar5
                           2579 ;	D:/EiqEnergy/Projects/Software/_SoftwareLibraries/StateMachines/stateMachine_G4.c:342: LCA			= 0 ;
   0E5A 90s01r17           2580 	mov	dptr,#_iterateStateMachine_LCA_4_13
   0E5D E4                 2581 	clr	a
   0E5E F0                 2582 	movx	@dptr,a
   0E5F A3                 2583 	inc	dptr
   0E60 F0                 2584 	movx	@dptr,a
   0E61 A3                 2585 	inc	dptr
   0E62 F0                 2586 	movx	@dptr,a
                           2587 ;	D:/EiqEnergy/Projects/Software/_SoftwareLibraries/StateMachines/stateMachine_G4.c:343: entryIndex	= targetIndex - 1 ;
   0E63 90s01r16           2588 	mov	dptr,#_iterateStateMachine_targetIndex_4_13
   0E66 E0                 2589 	movx	a,@dptr
   0E67 FA                 2590 	mov	r2,a
   0E68 1A                 2591 	dec	r2
   0E69 90s01r1A           2592 	mov	dptr,#_iterateStateMachine_entryIndex_4_13
   0E6C EA                 2593 	mov	a,r2
   0E6D F0                 2594 	movx	@dptr,a
                           2595 ;	D:/EiqEnergy/Projects/Software/_SoftwareLibraries/StateMachines/stateMachine_G4.c:344: exitIndex	= sourceIndex - 1 ;
   0E6E 90s00rE5           2596 	mov	dptr,#_iterateStateMachine_sourceIndex_4_13
   0E71 E0                 2597 	movx	a,@dptr
   0E72 FB                 2598 	mov	r3,a
   0E73 1B                 2599 	dec	r3
                           2600 ;	D:/EiqEnergy/Projects/Software/_SoftwareLibraries/StateMachines/stateMachine_G4.c:345: printf("\t\t\t\t\tentryIndex = %d, exitIndex = %d\n", entryIndex, exitIndex) ;
   0E74 8B 04              2601 	mov	ar4,r3
   0E76 78 00              2602 	mov	r0,#0x00
   0E78 8A 01              2603 	mov	ar1,r2
   0E7A 7D 00              2604 	mov	r5,#0x00
   0E7C C0 02              2605 	push	ar2
   0E7E C0 03              2606 	push	ar3
   0E80 C0 05              2607 	push	ar5
   0E82 C0 06              2608 	push	ar6
   0E84 C0 07              2609 	push	ar7
   0E86 C0 04              2610 	push	ar4
   0E88 C0 00              2611 	push	ar0
   0E8A C0 01              2612 	push	ar1
   0E8C C0 05              2613 	push	ar5
   0E8E 74r32              2614 	mov	a,#__str_22
   0E90 C0 E0              2615 	push	acc
   0E92 74s02              2616 	mov	a,#(__str_22 >> 8)
   0E94 C0 E0              2617 	push	acc
   0E96 74 80              2618 	mov	a,#0x80
   0E98 C0 E0              2619 	push	acc
   0E9A 12s00r00           2620 	lcall	_printf
   0E9D E5 81              2621 	mov	a,sp
   0E9F 24 F9              2622 	add	a,#0xf9
   0EA1 F5 81              2623 	mov	sp,a
   0EA3 D0 07              2624 	pop	ar7
   0EA5 D0 06              2625 	pop	ar6
   0EA7 D0 05              2626 	pop	ar5
   0EA9 D0 03              2627 	pop	ar3
   0EAB D0 02              2628 	pop	ar2
                           2629 ;	D:/EiqEnergy/Projects/Software/_SoftwareLibraries/StateMachines/stateMachine_G4.c:394: printf("\t\tEvent queue empty.\n") ;
   0EAD D0 07              2630 	pop	ar7
   0EAF D0 06              2631 	pop	ar6
   0EB1 D0 05              2632 	pop	ar5
                           2633 ;	D:/EiqEnergy/Projects/Software/_SoftwareLibraries/StateMachines/stateMachine_G4.c:347: while(sourceHierarchy[exitIndex] == targetHierarchy[entryIndex])
   0EB3 7C 00              2634 	mov	r4,#0x00
   0EB5                    2635 00130$:
   0EB5 C0 05              2636 	push	ar5
   0EB7 C0 06              2637 	push	ar6
   0EB9 C0 07              2638 	push	ar7
   0EBB EB                 2639 	mov	a,r3
   0EBC 75 F0 03           2640 	mov	b,#0x03
   0EBF A4                 2641 	mul	ab
   0EC0 24rB5              2642 	add	a,#_iterateStateMachine_sourceHierarchy_4_13
   0EC2 F5 82              2643 	mov	dpl,a
   0EC4 E4                 2644 	clr	a
   0EC5 34s00              2645 	addc	a,#(_iterateStateMachine_sourceHierarchy_4_13 >> 8)
   0EC7 F5 83              2646 	mov	dph,a
   0EC9 E0                 2647 	movx	a,@dptr
   0ECA F5*22              2648 	mov	_iterateStateMachine_sloc10_1_0,a
   0ECC A3                 2649 	inc	dptr
   0ECD E0                 2650 	movx	a,@dptr
   0ECE F5*23              2651 	mov	(_iterateStateMachine_sloc10_1_0 + 1),a
   0ED0 A3                 2652 	inc	dptr
   0ED1 E0                 2653 	movx	a,@dptr
   0ED2 F5*24              2654 	mov	(_iterateStateMachine_sloc10_1_0 + 2),a
   0ED4 EA                 2655 	mov	a,r2
   0ED5 75 F0 03           2656 	mov	b,#0x03
   0ED8 A4                 2657 	mul	ab
   0ED9 24rE6              2658 	add	a,#_iterateStateMachine_targetHierarchy_4_13
   0EDB F5 82              2659 	mov	dpl,a
   0EDD E4                 2660 	clr	a
   0EDE 34s00              2661 	addc	a,#(_iterateStateMachine_targetHierarchy_4_13 >> 8)
   0EE0 F5 83              2662 	mov	dph,a
   0EE2 E0                 2663 	movx	a,@dptr
   0EE3 F8                 2664 	mov	r0,a
   0EE4 A3                 2665 	inc	dptr
   0EE5 E0                 2666 	movx	a,@dptr
   0EE6 F9                 2667 	mov	r1,a
   0EE7 A3                 2668 	inc	dptr
   0EE8 E0                 2669 	movx	a,@dptr
   0EE9 FD                 2670 	mov	r5,a
   0EEA E8                 2671 	mov	a,r0
   0EEB B5*22 0A           2672 	cjne	a,_iterateStateMachine_sloc10_1_0,00224$
   0EEE E9                 2673 	mov	a,r1
   0EEF B5*23 06           2674 	cjne	a,(_iterateStateMachine_sloc10_1_0 + 1),00224$
   0EF2 ED                 2675 	mov	a,r5
   0EF3 B5*24 02           2676 	cjne	a,(_iterateStateMachine_sloc10_1_0 + 2),00224$
   0EF6 80 09              2677 	sjmp	00225$
   0EF8                    2678 00224$:
   0EF8 D0 07              2679 	pop	ar7
   0EFA D0 06              2680 	pop	ar6
   0EFC D0 05              2681 	pop	ar5
   0EFE 02s0Fr81           2682 	ljmp	00193$
   0F01                    2683 00225$:
   0F01 D0 07              2684 	pop	ar7
   0F03 D0 06              2685 	pop	ar6
                           2686 ;	D:/EiqEnergy/Projects/Software/_SoftwareLibraries/StateMachines/stateMachine_G4.c:349: LCA = sourceHierarchy[exitIndex] ;
   0F05 C0 06              2687 	push	ar6
   0F07 C0 07              2688 	push	ar7
   0F09 90s01r17           2689 	mov	dptr,#_iterateStateMachine_LCA_4_13
   0F0C E5*22              2690 	mov	a,_iterateStateMachine_sloc10_1_0
   0F0E F0                 2691 	movx	@dptr,a
   0F0F A3                 2692 	inc	dptr
   0F10 E5*23              2693 	mov	a,(_iterateStateMachine_sloc10_1_0 + 1)
   0F12 F0                 2694 	movx	@dptr,a
   0F13 A3                 2695 	inc	dptr
   0F14 E5*24              2696 	mov	a,(_iterateStateMachine_sloc10_1_0 + 2)
   0F16 F0                 2697 	movx	@dptr,a
                           2698 ;	D:/EiqEnergy/Projects/Software/_SoftwareLibraries/StateMachines/stateMachine_G4.c:351: entryIndex-- ;
   0F17 1A                 2699 	dec	r2
   0F18 90s01r1A           2700 	mov	dptr,#_iterateStateMachine_entryIndex_4_13
   0F1B EA                 2701 	mov	a,r2
   0F1C F0                 2702 	movx	@dptr,a
                           2703 ;	D:/EiqEnergy/Projects/Software/_SoftwareLibraries/StateMachines/stateMachine_G4.c:352: exitIndex-- ;
   0F1D 1B                 2704 	dec	r3
                           2705 ;	D:/EiqEnergy/Projects/Software/_SoftwareLibraries/StateMachines/stateMachine_G4.c:354: printf("\t\t\t\t\tCurrent LCA candidate: %s\n", LCA->stateName) ;
   0F1E 90s01r17           2706 	mov	dptr,#_iterateStateMachine_LCA_4_13
   0F21 E0                 2707 	movx	a,@dptr
   0F22 F8                 2708 	mov	r0,a
   0F23 A3                 2709 	inc	dptr
   0F24 E0                 2710 	movx	a,@dptr
   0F25 F9                 2711 	mov	r1,a
   0F26 A3                 2712 	inc	dptr
   0F27 E0                 2713 	movx	a,@dptr
   0F28 FD                 2714 	mov	r5,a
   0F29 74 06              2715 	mov	a,#0x06
   0F2B 28                 2716 	add	a,r0
   0F2C F8                 2717 	mov	r0,a
   0F2D E4                 2718 	clr	a
   0F2E 39                 2719 	addc	a,r1
   0F2F F9                 2720 	mov	r1,a
   0F30 88 82              2721 	mov	dpl,r0
   0F32 89 83              2722 	mov	dph,r1
   0F34 8D F0              2723 	mov	b,r5
   0F36 12s00r00           2724 	lcall	__gptrget
   0F39 F8                 2725 	mov	r0,a
   0F3A A3                 2726 	inc	dptr
   0F3B 12s00r00           2727 	lcall	__gptrget
   0F3E F9                 2728 	mov	r1,a
   0F3F A3                 2729 	inc	dptr
   0F40 12s00r00           2730 	lcall	__gptrget
   0F43 FD                 2731 	mov	r5,a
   0F44 C0 02              2732 	push	ar2
   0F46 C0 03              2733 	push	ar3
   0F48 C0 04              2734 	push	ar4
   0F4A C0 05              2735 	push	ar5
   0F4C C0 06              2736 	push	ar6
   0F4E C0 07              2737 	push	ar7
   0F50 C0 00              2738 	push	ar0
   0F52 C0 01              2739 	push	ar1
   0F54 C0 05              2740 	push	ar5
   0F56 74r58              2741 	mov	a,#__str_23
   0F58 C0 E0              2742 	push	acc
   0F5A 74s02              2743 	mov	a,#(__str_23 >> 8)
   0F5C C0 E0              2744 	push	acc
   0F5E 74 80              2745 	mov	a,#0x80
   0F60 C0 E0              2746 	push	acc
   0F62 12s00r00           2747 	lcall	_printf
   0F65 E5 81              2748 	mov	a,sp
   0F67 24 FA              2749 	add	a,#0xfa
   0F69 F5 81              2750 	mov	sp,a
   0F6B D0 07              2751 	pop	ar7
   0F6D D0 06              2752 	pop	ar6
   0F6F D0 05              2753 	pop	ar5
   0F71 D0 04              2754 	pop	ar4
   0F73 D0 03              2755 	pop	ar3
   0F75 D0 02              2756 	pop	ar2
                           2757 ;	D:/EiqEnergy/Projects/Software/_SoftwareLibraries/StateMachines/stateMachine_G4.c:356: LCAindex++ ;
   0F77 0C                 2758 	inc	r4
   0F78 D0 07              2759 	pop	ar7
   0F7A D0 06              2760 	pop	ar6
   0F7C D0 05              2761 	pop	ar5
   0F7E 02s0ErB5           2762 	ljmp	00130$
   0F81                    2763 00193$:
   0F81 90s01r1A           2764 	mov	dptr,#_iterateStateMachine_entryIndex_4_13
   0F84 EA                 2765 	mov	a,r2
   0F85 F0                 2766 	movx	@dptr,a
                           2767 ;	D:/EiqEnergy/Projects/Software/_SoftwareLibraries/StateMachines/stateMachine_G4.c:359: printf("\t\t\t\t\tLCA of %s and %s is: %s\n", source->stateName, target->stateName, LCA->stateName) ;
   0F86 C0 05              2768 	push	ar5
   0F88 C0 06              2769 	push	ar6
   0F8A C0 07              2770 	push	ar7
   0F8C 90s01r17           2771 	mov	dptr,#_iterateStateMachine_LCA_4_13
   0F8F E0                 2772 	movx	a,@dptr
   0F90 FC                 2773 	mov	r4,a
   0F91 A3                 2774 	inc	dptr
   0F92 E0                 2775 	movx	a,@dptr
   0F93 F8                 2776 	mov	r0,a
   0F94 A3                 2777 	inc	dptr
   0F95 E0                 2778 	movx	a,@dptr
   0F96 F9                 2779 	mov	r1,a
   0F97 74 06              2780 	mov	a,#0x06
   0F99 2C                 2781 	add	a,r4
   0F9A FC                 2782 	mov	r4,a
   0F9B E4                 2783 	clr	a
   0F9C 38                 2784 	addc	a,r0
   0F9D F8                 2785 	mov	r0,a
   0F9E 8C 82              2786 	mov	dpl,r4
   0FA0 88 83              2787 	mov	dph,r0
   0FA2 89 F0              2788 	mov	b,r1
   0FA4 12s00r00           2789 	lcall	__gptrget
   0FA7 FC                 2790 	mov	r4,a
   0FA8 A3                 2791 	inc	dptr
   0FA9 12s00r00           2792 	lcall	__gptrget
   0FAC F8                 2793 	mov	r0,a
   0FAD A3                 2794 	inc	dptr
   0FAE 12s00r00           2795 	lcall	__gptrget
   0FB1 F9                 2796 	mov	r1,a
   0FB2 74 06              2797 	mov	a,#0x06
   0FB4 25*1F              2798 	add	a,_iterateStateMachine_sloc9_1_0
   0FB6 FD                 2799 	mov	r5,a
   0FB7 E4                 2800 	clr	a
   0FB8 35*20              2801 	addc	a,(_iterateStateMachine_sloc9_1_0 + 1)
   0FBA FE                 2802 	mov	r6,a
   0FBB AF*21              2803 	mov	r7,(_iterateStateMachine_sloc9_1_0 + 2)
   0FBD 8D 82              2804 	mov	dpl,r5
   0FBF 8E 83              2805 	mov	dph,r6
   0FC1 8F F0              2806 	mov	b,r7
   0FC3 12s00r00           2807 	lcall	__gptrget
   0FC6 F5*22              2808 	mov	_iterateStateMachine_sloc10_1_0,a
   0FC8 A3                 2809 	inc	dptr
   0FC9 12s00r00           2810 	lcall	__gptrget
   0FCC F5*23              2811 	mov	(_iterateStateMachine_sloc10_1_0 + 1),a
   0FCE A3                 2812 	inc	dptr
   0FCF 12s00r00           2813 	lcall	__gptrget
   0FD2 F5*24              2814 	mov	(_iterateStateMachine_sloc10_1_0 + 2),a
   0FD4 74 06              2815 	mov	a,#0x06
   0FD6 25*18              2816 	add	a,_iterateStateMachine_sloc6_1_0
   0FD8 FD                 2817 	mov	r5,a
   0FD9 E4                 2818 	clr	a
   0FDA 35*19              2819 	addc	a,(_iterateStateMachine_sloc6_1_0 + 1)
   0FDC FE                 2820 	mov	r6,a
   0FDD AF*1A              2821 	mov	r7,(_iterateStateMachine_sloc6_1_0 + 2)
   0FDF 8D 82              2822 	mov	dpl,r5
   0FE1 8E 83              2823 	mov	dph,r6
   0FE3 8F F0              2824 	mov	b,r7
   0FE5 12s00r00           2825 	lcall	__gptrget
   0FE8 FD                 2826 	mov	r5,a
   0FE9 A3                 2827 	inc	dptr
   0FEA 12s00r00           2828 	lcall	__gptrget
   0FED FE                 2829 	mov	r6,a
   0FEE A3                 2830 	inc	dptr
   0FEF 12s00r00           2831 	lcall	__gptrget
   0FF2 FF                 2832 	mov	r7,a
   0FF3 C0 02              2833 	push	ar2
   0FF5 C0 03              2834 	push	ar3
   0FF7 C0 05              2835 	push	ar5
   0FF9 C0 06              2836 	push	ar6
   0FFB C0 07              2837 	push	ar7
   0FFD C0 04              2838 	push	ar4
   0FFF C0 00              2839 	push	ar0
   1001 C0 01              2840 	push	ar1
   1003 C0*22              2841 	push	_iterateStateMachine_sloc10_1_0
   1005 C0*23              2842 	push	(_iterateStateMachine_sloc10_1_0 + 1)
   1007 C0*24              2843 	push	(_iterateStateMachine_sloc10_1_0 + 2)
   1009 C0 05              2844 	push	ar5
   100B C0 06              2845 	push	ar6
   100D C0 07              2846 	push	ar7
   100F 74r78              2847 	mov	a,#__str_24
   1011 C0 E0              2848 	push	acc
   1013 74s02              2849 	mov	a,#(__str_24 >> 8)
   1015 C0 E0              2850 	push	acc
   1017 74 80              2851 	mov	a,#0x80
   1019 C0 E0              2852 	push	acc
   101B 12s00r00           2853 	lcall	_printf
   101E E5 81              2854 	mov	a,sp
   1020 24 F4              2855 	add	a,#0xf4
   1022 F5 81              2856 	mov	sp,a
   1024 D0 07              2857 	pop	ar7
   1026 D0 06              2858 	pop	ar6
   1028 D0 05              2859 	pop	ar5
   102A D0 03              2860 	pop	ar3
   102C D0 02              2861 	pop	ar2
                           2862 ;	D:/EiqEnergy/Projects/Software/_SoftwareLibraries/StateMachines/stateMachine_G4.c:360: printf("\t\t\t\t\tentryIndex = %d, exitIndex = %d\n", entryIndex, exitIndex) ;
   102E 8B 04              2863 	mov	ar4,r3
   1030 7D 00              2864 	mov	r5,#0x00
   1032 7E 00              2865 	mov	r6,#0x00
   1034 C0 03              2866 	push	ar3
   1036 C0 05              2867 	push	ar5
   1038 C0 06              2868 	push	ar6
   103A C0 07              2869 	push	ar7
   103C C0 04              2870 	push	ar4
   103E C0 05              2871 	push	ar5
   1040 C0 02              2872 	push	ar2
   1042 C0 06              2873 	push	ar6
   1044 74r32              2874 	mov	a,#__str_22
   1046 C0 E0              2875 	push	acc
   1048 74s02              2876 	mov	a,#(__str_22 >> 8)
   104A C0 E0              2877 	push	acc
   104C 74 80              2878 	mov	a,#0x80
   104E C0 E0              2879 	push	acc
   1050 12s00r00           2880 	lcall	_printf
   1053 E5 81              2881 	mov	a,sp
   1055 24 F9              2882 	add	a,#0xf9
   1057 F5 81              2883 	mov	sp,a
   1059 D0 07              2884 	pop	ar7
   105B D0 06              2885 	pop	ar6
   105D D0 05              2886 	pop	ar5
   105F D0 03              2887 	pop	ar3
                           2888 ;	D:/EiqEnergy/Projects/Software/_SoftwareLibraries/StateMachines/stateMachine_G4.c:362: sourceIndex	= exitIndex + 1 ;
   1061 EB                 2889 	mov	a,r3
   1062 04                 2890 	inc	a
   1063 F5*22              2891 	mov	_iterateStateMachine_sloc10_1_0,a
                           2892 ;	D:/EiqEnergy/Projects/Software/_SoftwareLibraries/StateMachines/stateMachine_G4.c:394: printf("\t\tEvent queue empty.\n") ;
   1065 D0 07              2893 	pop	ar7
   1067 D0 06              2894 	pop	ar6
   1069 D0 05              2895 	pop	ar5
                           2896 ;	D:/EiqEnergy/Projects/Software/_SoftwareLibraries/StateMachines/stateMachine_G4.c:365: while(exitIndex < sourceIndex)
   106B AA*22              2897 	mov	r2,_iterateStateMachine_sloc10_1_0
   106D 7B 00              2898 	mov	r3,#0x00
   106F                    2899 00133$:
   106F C3                 2900 	clr	c
   1070 EB                 2901 	mov	a,r3
   1071 9A                 2902 	subb	a,r2
   1072 40 03              2903 	jc	00226$
   1074 02s11r02           2904 	ljmp	00135$
   1077                    2905 00226$:
                           2906 ;	D:/EiqEnergy/Projects/Software/_SoftwareLibraries/StateMachines/stateMachine_G4.c:367: printf("\t\t\t\t") ;
   1077 C0 05              2907 	push	ar5
   1079 C0 06              2908 	push	ar6
   107B C0 07              2909 	push	ar7
   107D C0 02              2910 	push	ar2
   107F C0 03              2911 	push	ar3
   1081 C0 05              2912 	push	ar5
   1083 C0 06              2913 	push	ar6
   1085 C0 07              2914 	push	ar7
   1087 74r87              2915 	mov	a,#__str_17
   1089 C0 E0              2916 	push	acc
   108B 74s01              2917 	mov	a,#(__str_17 >> 8)
   108D C0 E0              2918 	push	acc
   108F 74 80              2919 	mov	a,#0x80
   1091 C0 E0              2920 	push	acc
   1093 12s00r00           2921 	lcall	_printf
   1096 15 81              2922 	dec	sp
   1098 15 81              2923 	dec	sp
   109A 15 81              2924 	dec	sp
   109C D0 07              2925 	pop	ar7
   109E D0 06              2926 	pop	ar6
   10A0 D0 05              2927 	pop	ar5
   10A2 D0 03              2928 	pop	ar3
                           2929 ;	D:/EiqEnergy/Projects/Software/_SoftwareLibraries/StateMachines/stateMachine_G4.c:369: callStateHandler(sm, sourceHierarchy[exitIndex], &exitEvent) ;
   10A4 90s00rAA           2930 	mov	dptr,#_iterateStateMachine_sm_1_1
   10A7 E0                 2931 	movx	a,@dptr
   10A8 FC                 2932 	mov	r4,a
   10A9 A3                 2933 	inc	dptr
   10AA E0                 2934 	movx	a,@dptr
   10AB F8                 2935 	mov	r0,a
   10AC A3                 2936 	inc	dptr
   10AD E0                 2937 	movx	a,@dptr
   10AE F9                 2938 	mov	r1,a
   10AF EB                 2939 	mov	a,r3
   10B0 75 F0 03           2940 	mov	b,#0x03
   10B3 A4                 2941 	mul	ab
   10B4 24rB5              2942 	add	a,#_iterateStateMachine_sourceHierarchy_4_13
   10B6 F5 82              2943 	mov	dpl,a
   10B8 E4                 2944 	clr	a
   10B9 34s00              2945 	addc	a,#(_iterateStateMachine_sourceHierarchy_4_13 >> 8)
   10BB F5 83              2946 	mov	dph,a
   10BD E0                 2947 	movx	a,@dptr
   10BE FD                 2948 	mov	r5,a
   10BF A3                 2949 	inc	dptr
   10C0 E0                 2950 	movx	a,@dptr
   10C1 FE                 2951 	mov	r6,a
   10C2 A3                 2952 	inc	dptr
   10C3 E0                 2953 	movx	a,@dptr
   10C4 FF                 2954 	mov	r7,a
   10C5 90s00rA1           2955 	mov	dptr,#_callStateHandler_PARM_2
   10C8 ED                 2956 	mov	a,r5
   10C9 F0                 2957 	movx	@dptr,a
   10CA A3                 2958 	inc	dptr
   10CB EE                 2959 	mov	a,r6
   10CC F0                 2960 	movx	@dptr,a
   10CD A3                 2961 	inc	dptr
   10CE EF                 2962 	mov	a,r7
   10CF F0                 2963 	movx	@dptr,a
   10D0 90s00rA4           2964 	mov	dptr,#_callStateHandler_PARM_3
   10D3 74rAF              2965 	mov	a,#_iterateStateMachine_exitEvent_1_1
   10D5 F0                 2966 	movx	@dptr,a
   10D6 A3                 2967 	inc	dptr
   10D7 74s00              2968 	mov	a,#(_iterateStateMachine_exitEvent_1_1 >> 8)
   10D9 F0                 2969 	movx	@dptr,a
   10DA A3                 2970 	inc	dptr
   10DB E4                 2971 	clr	a
   10DC F0                 2972 	movx	@dptr,a
   10DD 8C 82              2973 	mov	dpl,r4
   10DF 88 83              2974 	mov	dph,r0
   10E1 89 F0              2975 	mov	b,r1
   10E3 C0 03              2976 	push	ar3
   10E5 C0 05              2977 	push	ar5
   10E7 C0 06              2978 	push	ar6
   10E9 C0 07              2979 	push	ar7
   10EB 12s01r85           2980 	lcall	_callStateHandler
   10EE D0 07              2981 	pop	ar7
   10F0 D0 06              2982 	pop	ar6
   10F2 D0 05              2983 	pop	ar5
   10F4 D0 03              2984 	pop	ar3
   10F6 D0 02              2985 	pop	ar2
                           2986 ;	D:/EiqEnergy/Projects/Software/_SoftwareLibraries/StateMachines/stateMachine_G4.c:371: exitIndex++ ;
   10F8 0B                 2987 	inc	r3
   10F9 D0 07              2988 	pop	ar7
   10FB D0 06              2989 	pop	ar6
   10FD D0 05              2990 	pop	ar5
   10FF 02s10r6F           2991 	ljmp	00133$
   1102                    2992 00135$:
                           2993 ;	D:/EiqEnergy/Projects/Software/_SoftwareLibraries/StateMachines/stateMachine_G4.c:374: targetIndex = entryIndex + 1 ;
   1102 90s01r1A           2994 	mov	dptr,#_iterateStateMachine_entryIndex_4_13
   1105 E0                 2995 	movx	a,@dptr
   1106 FA                 2996 	mov	r2,a
   1107 0A                 2997 	inc	r2
                           2998 ;	D:/EiqEnergy/Projects/Software/_SoftwareLibraries/StateMachines/stateMachine_G4.c:376: while(targetIndex--)
   1108                    2999 00136$:
   1108 8A 03              3000 	mov	ar3,r2
   110A 1A                 3001 	dec	r2
   110B EB                 3002 	mov	a,r3
   110C 70 03              3003 	jnz	00227$
   110E 02s11r97           3004 	ljmp	00138$
   1111                    3005 00227$:
                           3006 ;	D:/EiqEnergy/Projects/Software/_SoftwareLibraries/StateMachines/stateMachine_G4.c:378: printf("\t\t\t\t") ;
   1111 C0 05              3007 	push	ar5
   1113 C0 06              3008 	push	ar6
   1115 C0 07              3009 	push	ar7
   1117 C0 02              3010 	push	ar2
   1119 C0 05              3011 	push	ar5
   111B C0 06              3012 	push	ar6
   111D C0 07              3013 	push	ar7
   111F 74r87              3014 	mov	a,#__str_17
   1121 C0 E0              3015 	push	acc
   1123 74s01              3016 	mov	a,#(__str_17 >> 8)
   1125 C0 E0              3017 	push	acc
   1127 74 80              3018 	mov	a,#0x80
   1129 C0 E0              3019 	push	acc
   112B 12s00r00           3020 	lcall	_printf
   112E 15 81              3021 	dec	sp
   1130 15 81              3022 	dec	sp
   1132 15 81              3023 	dec	sp
   1134 D0 07              3024 	pop	ar7
   1136 D0 06              3025 	pop	ar6
   1138 D0 05              3026 	pop	ar5
   113A D0 02              3027 	pop	ar2
                           3028 ;	D:/EiqEnergy/Projects/Software/_SoftwareLibraries/StateMachines/stateMachine_G4.c:379: callStateHandler(sm, targetHierarchy[targetIndex], &enterEvent) ;
   113C 90s00rAA           3029 	mov	dptr,#_iterateStateMachine_sm_1_1
   113F E0                 3030 	movx	a,@dptr
   1140 FB                 3031 	mov	r3,a
   1141 A3                 3032 	inc	dptr
   1142 E0                 3033 	movx	a,@dptr
   1143 FC                 3034 	mov	r4,a
   1144 A3                 3035 	inc	dptr
   1145 E0                 3036 	movx	a,@dptr
   1146 F8                 3037 	mov	r0,a
   1147 EA                 3038 	mov	a,r2
   1148 75 F0 03           3039 	mov	b,#0x03
   114B A4                 3040 	mul	ab
   114C 24rE6              3041 	add	a,#_iterateStateMachine_targetHierarchy_4_13
   114E F5 82              3042 	mov	dpl,a
   1150 E4                 3043 	clr	a
   1151 34s00              3044 	addc	a,#(_iterateStateMachine_targetHierarchy_4_13 >> 8)
   1153 F5 83              3045 	mov	dph,a
   1155 E0                 3046 	movx	a,@dptr
   1156 F9                 3047 	mov	r1,a
   1157 A3                 3048 	inc	dptr
   1158 E0                 3049 	movx	a,@dptr
   1159 FD                 3050 	mov	r5,a
   115A A3                 3051 	inc	dptr
   115B E0                 3052 	movx	a,@dptr
   115C FE                 3053 	mov	r6,a
   115D 90s00rA1           3054 	mov	dptr,#_callStateHandler_PARM_2
   1160 E9                 3055 	mov	a,r1
   1161 F0                 3056 	movx	@dptr,a
   1162 A3                 3057 	inc	dptr
   1163 ED                 3058 	mov	a,r5
   1164 F0                 3059 	movx	@dptr,a
   1165 A3                 3060 	inc	dptr
   1166 EE                 3061 	mov	a,r6
   1167 F0                 3062 	movx	@dptr,a
   1168 90s00rA4           3063 	mov	dptr,#_callStateHandler_PARM_3
   116B 74rAE              3064 	mov	a,#_iterateStateMachine_enterEvent_1_1
   116D F0                 3065 	movx	@dptr,a
   116E A3                 3066 	inc	dptr
   116F 74s00              3067 	mov	a,#(_iterateStateMachine_enterEvent_1_1 >> 8)
   1171 F0                 3068 	movx	@dptr,a
   1172 A3                 3069 	inc	dptr
   1173 E4                 3070 	clr	a
   1174 F0                 3071 	movx	@dptr,a
   1175 8B 82              3072 	mov	dpl,r3
   1177 8C 83              3073 	mov	dph,r4
   1179 88 F0              3074 	mov	b,r0
   117B C0 02              3075 	push	ar2
   117D C0 05              3076 	push	ar5
   117F C0 06              3077 	push	ar6
   1181 C0 07              3078 	push	ar7
   1183 12s01r85           3079 	lcall	_callStateHandler
   1186 D0 07              3080 	pop	ar7
   1188 D0 06              3081 	pop	ar6
   118A D0 05              3082 	pop	ar5
   118C D0 02              3083 	pop	ar2
   118E D0 07              3084 	pop	ar7
   1190 D0 06              3085 	pop	ar6
   1192 D0 05              3086 	pop	ar5
   1194 02s11r08           3087 	ljmp	00136$
   1197                    3088 00138$:
                           3089 ;	D:/EiqEnergy/Projects/Software/_SoftwareLibraries/StateMachines/stateMachine_G4.c:382: sm->currentState = target ;
   1197 74 06              3090 	mov	a,#0x06
   1199 25*12              3091 	add	a,_iterateStateMachine_sloc4_1_0
   119B FA                 3092 	mov	r2,a
   119C E4                 3093 	clr	a
   119D 35*13              3094 	addc	a,(_iterateStateMachine_sloc4_1_0 + 1)
   119F FB                 3095 	mov	r3,a
   11A0 AC*14              3096 	mov	r4,(_iterateStateMachine_sloc4_1_0 + 2)
   11A2 8A 82              3097 	mov	dpl,r2
   11A4 8B 83              3098 	mov	dph,r3
   11A6 8C F0              3099 	mov	b,r4
   11A8 E5*1F              3100 	mov	a,_iterateStateMachine_sloc9_1_0
   11AA 12s00r00           3101 	lcall	__gptrput
   11AD A3                 3102 	inc	dptr
   11AE E5*20              3103 	mov	a,(_iterateStateMachine_sloc9_1_0 + 1)
   11B0 12s00r00           3104 	lcall	__gptrput
   11B3 A3                 3105 	inc	dptr
   11B4 E5*21              3106 	mov	a,(_iterateStateMachine_sloc9_1_0 + 2)
   11B6 12s00r00           3107 	lcall	__gptrput
   11B9                    3108 00152$:
                           3109 ;	D:/EiqEnergy/Projects/Software/_SoftwareLibraries/StateMachines/stateMachine_G4.c:390: NormalInsert(&sm->eventQueue, &initialTransitionEvent) ;
   11B9 74 0C              3110 	mov	a,#0x0C
   11BB 25*15              3111 	add	a,_iterateStateMachine_sloc5_1_0
   11BD FA                 3112 	mov	r2,a
   11BE E4                 3113 	clr	a
   11BF 35*16              3114 	addc	a,(_iterateStateMachine_sloc5_1_0 + 1)
   11C1 FB                 3115 	mov	r3,a
   11C2 AC*17              3116 	mov	r4,(_iterateStateMachine_sloc5_1_0 + 2)
   11C4 90s00r00           3117 	mov	dptr,#_NormalInsert_PARM_2
   11C7 74rAD              3118 	mov	a,#_iterateStateMachine_initialTransitionEvent_1_1
   11C9 F0                 3119 	movx	@dptr,a
   11CA A3                 3120 	inc	dptr
   11CB 74s00              3121 	mov	a,#(_iterateStateMachine_initialTransitionEvent_1_1 >> 8)
   11CD F0                 3122 	movx	@dptr,a
   11CE A3                 3123 	inc	dptr
   11CF E4                 3124 	clr	a
   11D0 F0                 3125 	movx	@dptr,a
   11D1 8A 82              3126 	mov	dpl,r2
   11D3 8B 83              3127 	mov	dph,r3
   11D5 8C F0              3128 	mov	b,r4
   11D7 C0 05              3129 	push	ar5
   11D9 C0 06              3130 	push	ar6
   11DB C0 07              3131 	push	ar7
   11DD 12s00r00           3132 	lcall	_NormalInsert
   11E0 D0 07              3133 	pop	ar7
   11E2 D0 06              3134 	pop	ar6
   11E4 D0 05              3135 	pop	ar5
   11E6 02s04rB6           3136 	ljmp	00155$
   11E9                    3137 00157$:
                           3138 ;	D:/EiqEnergy/Projects/Software/_SoftwareLibraries/StateMachines/stateMachine_G4.c:394: printf("\t\tEvent queue empty.\n") ;
   11E9 74r96              3139 	mov	a,#__str_25
   11EB C0 E0              3140 	push	acc
   11ED 74s02              3141 	mov	a,#(__str_25 >> 8)
   11EF C0 E0              3142 	push	acc
   11F1 74 80              3143 	mov	a,#0x80
   11F3 C0 E0              3144 	push	acc
   11F5 12s00r00           3145 	lcall	_printf
   11F8 15 81              3146 	dec	sp
   11FA 15 81              3147 	dec	sp
   11FC 15 81              3148 	dec	sp
   11FE 22                 3149 	ret
                           3150 	.area CSEG    (CODE)
                           3151 	.area CONST   (CODE)
   0000                    3152 __str_0:
   0000 09                 3153 	.db 0x09
   0001 09                 3154 	.db 0x09
   0002 09                 3155 	.db 0x09
   0003 43 61 6C 6C 69 6E  3156 	.ascii "Calling state: %s, event: %s, "
        67 20 73 74 61 74
        65 3A 20 25 73 2C
        20 65 76 65 6E 74
        3A 20 25 73 2C 20
   0021 00                 3157 	.db 0x00
   0022                    3158 __str_1:
   0022 3C 55 53 45 52 5F  3159 	.ascii "<USER_EVENT>"
        45 56 45 4E 54 3E
   002E 00                 3160 	.db 0x00
   002F                    3161 __str_2:
   002F 72 65 73 70 6F 6E  3162 	.ascii "response: %s "
        73 65 3A 20 25 73
        20
   003C 00                 3163 	.db 0x00
   003D                    3164 __str_3:
   003D 74 6F 20 25 73 20  3165 	.ascii "to %s "
   0043 00                 3166 	.db 0x00
   0044                    3167 __str_4:
   0044 0A                 3168 	.db 0x0A
   0045 00                 3169 	.db 0x00
   0046                    3170 __str_5:
   0046 09                 3171 	.db 0x09
   0047 69 74 65 72 61 74  3172 	.ascii "iterating %s"
        69 6E 67 20 25 73
   0053 0A                 3173 	.db 0x0A
   0054 00                 3174 	.db 0x00
   0055                    3175 __str_6:
   0055 09                 3176 	.db 0x09
   0056 09                 3177 	.db 0x09
   0057 69 6E 69 74 69 61  3178 	.ascii "initializing..."
        6C 69 7A 69 6E 67
        2E 2E 2E
   0066 0A                 3179 	.db 0x0A
   0067 00                 3180 	.db 0x00
   0068                    3181 __str_7:
   0068 09                 3182 	.db 0x09
   0069 09                 3183 	.db 0x09
   006A 50 72 6F 63 65 73  3184 	.ascii "Processing event..."
        73 69 6E 67 20 65
        76 65 6E 74 2E 2E
        2E
   007D 0A                 3185 	.db 0x0A
   007E 00                 3186 	.db 0x00
   007F                    3187 __str_8:
   007F 09                 3188 	.db 0x09
   0080 09                 3189 	.db 0x09
   0081 09                 3190 	.db 0x09
   0082 09                 3191 	.db 0x09
   0083 09                 3192 	.db 0x09
   0084 09                 3193 	.db 0x09
   0085 09                 3194 	.db 0x09
   0086 6D 6F 76 69 6E 67  3195 	.ascii "moving to parent: %s"
        20 74 6F 20 70 61
        72 65 6E 74 3A 20
        25 73
   009A 0A                 3196 	.db 0x0A
   009B 00                 3197 	.db 0x00
   009C                    3198 __str_9:
   009C 3C 72 6F 6F 74 3E  3199 	.ascii "<root>"
   00A2 00                 3200 	.db 0x00
   00A3                    3201 __str_10:
   00A3 09                 3202 	.db 0x09
   00A4 09                 3203 	.db 0x09
   00A5 09                 3204 	.db 0x09
   00A6 09                 3205 	.db 0x09
   00A7 53 65 6C 66 20 74  3206 	.ascii "Self transition."
        72 61 6E 73 69 74
        69 6F 6E 2E
   00B7 0A                 3207 	.db 0x0A
   00B8 00                 3208 	.db 0x00
   00B9                    3209 __str_11:
   00B9 09                 3210 	.db 0x09
   00BA 09                 3211 	.db 0x09
   00BB 09                 3212 	.db 0x09
   00BC 09                 3213 	.db 0x09
   00BD 54 72 61 6E 73 69  3214 	.ascii "Transition to direct child."
        74 69 6F 6E 20 74
        6F 20 64 69 72 65
        63 74 20 63 68 69
        6C 64 2E
   00D8 0A                 3215 	.db 0x0A
   00D9 00                 3216 	.db 0x00
   00DA                    3217 __str_12:
   00DA 09                 3218 	.db 0x09
   00DB 09                 3219 	.db 0x09
   00DC 09                 3220 	.db 0x09
   00DD 09                 3221 	.db 0x09
   00DE 54 72 61 6E 73 69  3222 	.ascii "Transition to direct peer."
        74 69 6F 6E 20 74
        6F 20 64 69 72 65
        63 74 20 70 65 65
        72 2E
   00F8 0A                 3223 	.db 0x0A
   00F9 00                 3224 	.db 0x00
   00FA                    3225 __str_13:
   00FA 09                 3226 	.db 0x09
   00FB 09                 3227 	.db 0x09
   00FC 09                 3228 	.db 0x09
   00FD 09                 3229 	.db 0x09
   00FE 54 72 61 6E 73 69  3230 	.ascii "Transition to direct parent."
        74 69 6F 6E 20 74
        6F 20 64 69 72 65
        63 74 20 70 61 72
        65 6E 74 2E
   011A 0A                 3231 	.db 0x0A
   011B 00                 3232 	.db 0x00
   011C                    3233 __str_14:
   011C 09                 3234 	.db 0x09
   011D 09                 3235 	.db 0x09
   011E 09                 3236 	.db 0x09
   011F 09                 3237 	.db 0x09
   0120 53 63 61 6E 6E 69  3238 	.ascii "Scanning source hierarchy..."
        6E 67 20 73 6F 75
        72 63 65 20 68 69
        65 72 61 72 63 68
        79 2E 2E 2E
   013C 0A                 3239 	.db 0x0A
   013D 00                 3240 	.db 0x00
   013E                    3241 __str_15:
   013E 09                 3242 	.db 0x09
   013F 09                 3243 	.db 0x09
   0140 09                 3244 	.db 0x09
   0141 09                 3245 	.db 0x09
   0142 09                 3246 	.db 0x09
   0143 73 6F 75 72 63 65  3247 	.ascii "sourceHierarchy[%d] = %s"
        48 69 65 72 61 72
        63 68 79 5B 25 64
        5D 20 3D 20 25 73
   015B 0A                 3248 	.db 0x0A
   015C 00                 3249 	.db 0x00
   015D                    3250 __str_16:
   015D 09                 3251 	.db 0x09
   015E 09                 3252 	.db 0x09
   015F 09                 3253 	.db 0x09
   0160 09                 3254 	.db 0x09
   0161 09                 3255 	.db 0x09
   0162 09                 3256 	.db 0x09
   0163 46 6F 75 6E 64 20  3257 	.ascii "Found target as ancestor of source"
        74 61 72 67 65 74
        20 61 73 20 61 6E
        63 65 73 74 6F 72
        20 6F 66 20 73 6F
        75 72 63 65
   0185 0A                 3258 	.db 0x0A
   0186 00                 3259 	.db 0x00
   0187                    3260 __str_17:
   0187 09                 3261 	.db 0x09
   0188 09                 3262 	.db 0x09
   0189 09                 3263 	.db 0x09
   018A 09                 3264 	.db 0x09
   018B 00                 3265 	.db 0x00
   018C                    3266 __str_18:
   018C 09                 3267 	.db 0x09
   018D 09                 3268 	.db 0x09
   018E 09                 3269 	.db 0x09
   018F 09                 3270 	.db 0x09
   0190 53 63 61 6E 6E 69  3271 	.ascii "Scanning target hierarchy..."
        6E 67 20 74 61 72
        67 65 74 20 68 69
        65 72 61 72 63 68
        79 2E 2E 2E
   01AC 0A                 3272 	.db 0x0A
   01AD 00                 3273 	.db 0x00
   01AE                    3274 __str_19:
   01AE 09                 3275 	.db 0x09
   01AF 09                 3276 	.db 0x09
   01B0 09                 3277 	.db 0x09
   01B1 09                 3278 	.db 0x09
   01B2 09                 3279 	.db 0x09
   01B3 74 61 72 67 65 74  3280 	.ascii "targetHierarchy[%d] = %s"
        48 69 65 72 61 72
        63 68 79 5B 25 64
        5D 20 3D 20 25 73
   01CB 0A                 3281 	.db 0x0A
   01CC 00                 3282 	.db 0x00
   01CD                    3283 __str_20:
   01CD 09                 3284 	.db 0x09
   01CE 09                 3285 	.db 0x09
   01CF 09                 3286 	.db 0x09
   01D0 09                 3287 	.db 0x09
   01D1 09                 3288 	.db 0x09
   01D2 09                 3289 	.db 0x09
   01D3 46 6F 75 6E 64 20  3290 	.ascii "Found source as ancestor of target"
        73 6F 75 72 63 65
        20 61 73 20 61 6E
        63 65 73 74 6F 72
        20 6F 66 20 74 61
        72 67 65 74
   01F5 0A                 3291 	.db 0x0A
   01F6 00                 3292 	.db 0x00
   01F7                    3293 __str_21:
   01F7 09                 3294 	.db 0x09
   01F8 09                 3295 	.db 0x09
   01F9 09                 3296 	.db 0x09
   01FA 09                 3297 	.db 0x09
   01FB 53 74 69 6C 6C 20  3298 	.ascii "Still haven't found relationship. Scanning for LCA..."
        68 61 76 65 6E 27
        74 20 66 6F 75 6E
        64 20 72 65 6C 61
        74 69 6F 6E 73 68
        69 70 2E 20 53 63
        61 6E 6E 69 6E 67
        20 66 6F 72 20 4C
        43 41 2E 2E 2E
   0230 0A                 3299 	.db 0x0A
   0231 00                 3300 	.db 0x00
   0232                    3301 __str_22:
   0232 09                 3302 	.db 0x09
   0233 09                 3303 	.db 0x09
   0234 09                 3304 	.db 0x09
   0235 09                 3305 	.db 0x09
   0236 09                 3306 	.db 0x09
   0237 65 6E 74 72 79 49  3307 	.ascii "entryIndex = %d, exitIndex = %d"
        6E 64 65 78 20 3D
        20 25 64 2C 20 65
        78 69 74 49 6E 64
        65 78 20 3D 20 25
        64
   0256 0A                 3308 	.db 0x0A
   0257 00                 3309 	.db 0x00
   0258                    3310 __str_23:
   0258 09                 3311 	.db 0x09
   0259 09                 3312 	.db 0x09
   025A 09                 3313 	.db 0x09
   025B 09                 3314 	.db 0x09
   025C 09                 3315 	.db 0x09
   025D 43 75 72 72 65 6E  3316 	.ascii "Current LCA candidate: %s"
        74 20 4C 43 41 20
        63 61 6E 64 69 64
        61 74 65 3A 20 25
        73
   0276 0A                 3317 	.db 0x0A
   0277 00                 3318 	.db 0x00
   0278                    3319 __str_24:
   0278 09                 3320 	.db 0x09
   0279 09                 3321 	.db 0x09
   027A 09                 3322 	.db 0x09
   027B 09                 3323 	.db 0x09
   027C 09                 3324 	.db 0x09
   027D 4C 43 41 20 6F 66  3325 	.ascii "LCA of %s and %s is: %s"
        20 25 73 20 61 6E
        64 20 25 73 20 69
        73 3A 20 25 73
   0294 0A                 3326 	.db 0x0A
   0295 00                 3327 	.db 0x00
   0296                    3328 __str_25:
   0296 09                 3329 	.db 0x09
   0297 09                 3330 	.db 0x09
   0298 45 76 65 6E 74 20  3331 	.ascii "Event queue empty."
        71 75 65 75 65 20
        65 6D 70 74 79 2E
   02AA 0A                 3332 	.db 0x0A
   02AB 00                 3333 	.db 0x00
   02AC                    3334 __str_26:
   02AC 53 55 42 53 54 41  3335 	.ascii "SUBSTATE_GET_INFO"
        54 45 5F 47 45 54
        5F 49 4E 46 4F
   02BD 00                 3336 	.db 0x00
   02BE                    3337 __str_27:
   02BE 53 55 42 53 54 41  3338 	.ascii "SUBSTATE_ENTRY"
        54 45 5F 45 4E 54
        52 59
   02CC 00                 3339 	.db 0x00
   02CD                    3340 __str_28:
   02CD 53 55 42 53 54 41  3341 	.ascii "SUBSTATE_INITIAL_TRANSITION"
        54 45 5F 49 4E 49
        54 49 41 4C 5F 54
        52 41 4E 53 49 54
        49 4F 4E
   02E8 00                 3342 	.db 0x00
   02E9                    3343 __str_29:
   02E9 53 55 42 53 54 41  3344 	.ascii "SUBSTATE_EXIT"
        54 45 5F 45 58 49
        54
   02F6 00                 3345 	.db 0x00
   02F7                    3346 __str_30:
   02F7 49 47 4E 4F 52 45  3347 	.ascii "IGNORED"
        44
   02FE 00                 3348 	.db 0x00
   02FF                    3349 __str_31:
   02FF 48 41 4E 44 4C 45  3350 	.ascii "HANDLED"
        44
   0306 00                 3351 	.db 0x00
   0307                    3352 __str_32:
   0307 54 52 41 4E 53 49  3353 	.ascii "TRANSITION"
        54 49 4F 4E
   0311 00                 3354 	.db 0x00
                           3355 	.area XINIT   (CODE)
   0000                    3356 __xinit__eventTypes:
   0000rACs02 80           3357 	.byte __str_26,(__str_26 >> 8),#0x80
   0003rBEs02 80           3358 	.byte __str_27,(__str_27 >> 8),#0x80
   0006rCDs02 80           3359 	.byte __str_28,(__str_28 >> 8),#0x80
   0009rE9s02 80           3360 	.byte __str_29,(__str_29 >> 8),#0x80
   000C                    3361 __xinit__responseTypes:
   000CrF7s02 80           3362 	.byte __str_30,(__str_30 >> 8),#0x80
   000FrFFs02 80           3363 	.byte __str_31,(__str_31 >> 8),#0x80
   0012r07s03 80           3364 	.byte __str_32,(__str_32 >> 8),#0x80
                           3365 	.area CABS    (ABS,CODE)
