                              1 ;--------------------------------------------------------
                              2 ; File Created by SDCC : free open source ANSI-C Compiler
                              3 ; Version 2.9.0 #5416 (Mar 22 2009) (MINGW32)
                              4 ; This file was generated Sat Jan 02 19:24:44 2010
                              5 ;--------------------------------------------------------
                              6 	.module sm_test_timeBomb
                              7 	.optsdcc -mmcs51 --model-large
                              8 	
                              9 ;--------------------------------------------------------
                             10 ; Public variables in this module
                             11 ;--------------------------------------------------------
                             12 	.globl _goBOOM
                             13 	.globl _updateDisplay
                             14 	.globl _timeBomb_getEventQueueDepth
                             15 	.globl _timeBomb_constructor
                             16 	.globl _timeBomb_destructor
                             17 	.globl _timeBomb_getHistoryQueueDepth
                             18 	.globl _timeBomb_getMachineSize
                             19 	.globl _timeBomb_constructor2
                             20 	.globl _timeBomb_destructor2
                             21 ;--------------------------------------------------------
                             22 ; special function registers
                             23 ;--------------------------------------------------------
                             24 	.area RSEG    (DATA)
                             25 ;--------------------------------------------------------
                             26 ; special function bits
                             27 ;--------------------------------------------------------
                             28 	.area RSEG    (DATA)
                             29 ;--------------------------------------------------------
                             30 ; overlayable register banks
                             31 ;--------------------------------------------------------
                             32 	.area REG_BANK_0	(REL,OVR,DATA)
   0000                      33 	.ds 8
                             34 ;--------------------------------------------------------
                             35 ; internal ram data
                             36 ;--------------------------------------------------------
                             37 	.area DSEG    (DATA)
   0000                      38 _timeBomb_constructor_sloc0_1_0:
   0000                      39 	.ds 3
                             40 ;--------------------------------------------------------
                             41 ; overlayable items in internal ram 
                             42 ;--------------------------------------------------------
                             43 	.area OSEG    (OVR,DATA)
                             44 ;--------------------------------------------------------
                             45 ; indirectly addressable internal ram data
                             46 ;--------------------------------------------------------
                             47 	.area ISEG    (DATA)
                             48 ;--------------------------------------------------------
                             49 ; absolute internal ram data
                             50 ;--------------------------------------------------------
                             51 	.area IABS    (ABS,DATA)
                             52 	.area IABS    (ABS,DATA)
                             53 ;--------------------------------------------------------
                             54 ; bit data
                             55 ;--------------------------------------------------------
                             56 	.area BSEG    (BIT)
                             57 ;--------------------------------------------------------
                             58 ; paged external ram data
                             59 ;--------------------------------------------------------
                             60 	.area PSEG    (PAG,XDATA)
                             61 ;--------------------------------------------------------
                             62 ; external ram data
                             63 ;--------------------------------------------------------
                             64 	.area XSEG    (XDATA)
   0000                      65 _timeBomb_constructor_base_1_1:
   0000                      66 	.ds 3
   0003                      67 _timeBomb_destructor_self_1_1:
   0003                      68 	.ds 3
   0006                      69 _timeBomb_constructor2_self_1_1:
   0006                      70 	.ds 3
                             71 ;--------------------------------------------------------
                             72 ; absolute external ram data
                             73 ;--------------------------------------------------------
                             74 	.area XABS    (ABS,XDATA)
                             75 ;--------------------------------------------------------
                             76 ; external initialized ram data
                             77 ;--------------------------------------------------------
                             78 	.area XISEG   (XDATA)
   0000                      79 _timeBomb_name:
   0000                      80 	.ds 3
                             81 	.area HOME    (CODE)
                             82 	.area GSINIT0 (CODE)
                             83 	.area GSINIT1 (CODE)
                             84 	.area GSINIT2 (CODE)
                             85 	.area GSINIT3 (CODE)
                             86 	.area GSINIT4 (CODE)
                             87 	.area GSINIT5 (CODE)
                             88 	.area GSINIT  (CODE)
                             89 	.area GSFINAL (CODE)
                             90 	.area CSEG    (CODE)
                             91 ;--------------------------------------------------------
                             92 ; global & static initialisations
                             93 ;--------------------------------------------------------
                             94 	.area HOME    (CODE)
                             95 	.area GSINIT  (CODE)
                             96 	.area GSFINAL (CODE)
                             97 	.area GSINIT  (CODE)
                             98 ;--------------------------------------------------------
                             99 ; Home
                            100 ;--------------------------------------------------------
                            101 	.area HOME    (CODE)
                            102 	.area HOME    (CODE)
                            103 ;--------------------------------------------------------
                            104 ; code
                            105 ;--------------------------------------------------------
                            106 	.area CSEG    (CODE)
                            107 ;------------------------------------------------------------
                            108 ;Allocation info for local variables in function 'timeBomb_getEventQueueDepth'
                            109 ;------------------------------------------------------------
                            110 ;------------------------------------------------------------
                            111 ;	../sm_test_timeBomb.c:28: SET_EVENT_QUEUE_DEPTH(config_tbEVENT_QUEUE_DEPTH) ;
                            112 ;	-----------------------------------------
                            113 ;	 function timeBomb_getEventQueueDepth
                            114 ;	-----------------------------------------
   0000                     115 _timeBomb_getEventQueueDepth:
                    0002    116 	ar2 = 0x02
                    0003    117 	ar3 = 0x03
                    0004    118 	ar4 = 0x04
                    0005    119 	ar5 = 0x05
                    0006    120 	ar6 = 0x06
                    0007    121 	ar7 = 0x07
                    0000    122 	ar0 = 0x00
                    0001    123 	ar1 = 0x01
   0000 90 00 10            124 	mov	dptr,#0x0010
   0003 22                  125 	ret
                            126 ;------------------------------------------------------------
                            127 ;Allocation info for local variables in function 'timeBomb_constructor'
                            128 ;------------------------------------------------------------
                            129 ;sloc0                     Allocated with name '_timeBomb_constructor_sloc0_1_0'
                            130 ;base                      Allocated with name '_timeBomb_constructor_base_1_1'
                            131 ;------------------------------------------------------------
                            132 ;	../sm_test_timeBomb.c:36: END_STATE_MACHINE_DEFINITION() ;
                            133 ;	-----------------------------------------
                            134 ;	 function timeBomb_constructor
                            135 ;	-----------------------------------------
   0004                     136 _timeBomb_constructor:
   0004 AA F0               137 	mov	r2,b
   0006 AB 83               138 	mov	r3,dph
   0008 E5 82               139 	mov	a,dpl
   000A 90s00r00            140 	mov	dptr,#_timeBomb_constructor_base_1_1
   000D F0                  141 	movx	@dptr,a
   000E A3                  142 	inc	dptr
   000F EB                  143 	mov	a,r3
   0010 F0                  144 	movx	@dptr,a
   0011 A3                  145 	inc	dptr
   0012 EA                  146 	mov	a,r2
   0013 F0                  147 	movx	@dptr,a
   0014 90s00r00            148 	mov	dptr,#_timeBomb_constructor_base_1_1
   0017 E0                  149 	movx	a,@dptr
   0018 FA                  150 	mov	r2,a
   0019 A3                  151 	inc	dptr
   001A E0                  152 	movx	a,@dptr
   001B FB                  153 	mov	r3,a
   001C A3                  154 	inc	dptr
   001D E0                  155 	movx	a,@dptr
   001E FC                  156 	mov	r4,a
   001F 8A 82               157 	mov	dpl,r2
   0021 8B 83               158 	mov	dph,r3
   0023 8C F0               159 	mov	b,r4
   0025 74r00               160 	mov	a,#_timeBomb_TOP
   0027 12s00r00            161 	lcall	__gptrput
   002A A3                  162 	inc	dptr
   002B 74s00               163 	mov	a,#(_timeBomb_TOP >> 8)
   002D 12s00r00            164 	lcall	__gptrput
   0030 74 05               165 	mov	a,#0x05
   0032 2A                  166 	add	a,r2
   0033 FD                  167 	mov	r5,a
   0034 E4                  168 	clr	a
   0035 3B                  169 	addc	a,r3
   0036 FE                  170 	mov	r6,a
   0037 8C 07               171 	mov	ar7,r4
   0039 8D 82               172 	mov	dpl,r5
   003B 8E 83               173 	mov	dph,r6
   003D 8F F0               174 	mov	b,r7
   003F 74r00               175 	mov	a,#_timeBomb_TOP
   0041 12s00r00            176 	lcall	__gptrput
   0044 A3                  177 	inc	dptr
   0045 74s00               178 	mov	a,#(_timeBomb_TOP >> 8)
   0047 12s00r00            179 	lcall	__gptrput
   004A A3                  180 	inc	dptr
   004B 74 80               181 	mov	a,#0x80
   004D 12s00r00            182 	lcall	__gptrput
   0050 74 02               183 	mov	a,#0x02
   0052 2A                  184 	add	a,r2
   0053 F5*00               185 	mov	_timeBomb_constructor_sloc0_1_0,a
   0055 E4                  186 	clr	a
   0056 3B                  187 	addc	a,r3
   0057 F5*01               188 	mov	(_timeBomb_constructor_sloc0_1_0 + 1),a
   0059 8C*02               189 	mov	(_timeBomb_constructor_sloc0_1_0 + 2),r4
   005B 90s00r00            190 	mov	dptr,#_timeBomb_name
   005E E0                  191 	movx	a,@dptr
   005F F8                  192 	mov	r0,a
   0060 A3                  193 	inc	dptr
   0061 E0                  194 	movx	a,@dptr
   0062 F9                  195 	mov	r1,a
   0063 A3                  196 	inc	dptr
   0064 E0                  197 	movx	a,@dptr
   0065 FD                  198 	mov	r5,a
   0066 85*00 82            199 	mov	dpl,_timeBomb_constructor_sloc0_1_0
   0069 85*01 83            200 	mov	dph,(_timeBomb_constructor_sloc0_1_0 + 1)
   006C 85*02 F0            201 	mov	b,(_timeBomb_constructor_sloc0_1_0 + 2)
   006F E8                  202 	mov	a,r0
   0070 12s00r00            203 	lcall	__gptrput
   0073 A3                  204 	inc	dptr
   0074 E9                  205 	mov	a,r1
   0075 12s00r00            206 	lcall	__gptrput
   0078 A3                  207 	inc	dptr
   0079 ED                  208 	mov	a,r5
   007A 12s00r00            209 	lcall	__gptrput
   007D 8A 82               210 	mov	dpl,r2
   007F 8B 83               211 	mov	dph,r3
   0081 8C F0               212 	mov	b,r4
   0083 02s00rB2            213 	ljmp	_timeBomb_constructor2
                            214 ;------------------------------------------------------------
                            215 ;Allocation info for local variables in function 'timeBomb_destructor'
                            216 ;------------------------------------------------------------
                            217 ;self                      Allocated with name '_timeBomb_destructor_self_1_1'
                            218 ;------------------------------------------------------------
                            219 ;	../sm_test_timeBomb.c:36: 
                            220 ;	-----------------------------------------
                            221 ;	 function timeBomb_destructor
                            222 ;	-----------------------------------------
   0086                     223 _timeBomb_destructor:
   0086 AA F0               224 	mov	r2,b
   0088 AB 83               225 	mov	r3,dph
   008A E5 82               226 	mov	a,dpl
   008C 90s00r03            227 	mov	dptr,#_timeBomb_destructor_self_1_1
   008F F0                  228 	movx	@dptr,a
   0090 A3                  229 	inc	dptr
   0091 EB                  230 	mov	a,r3
   0092 F0                  231 	movx	@dptr,a
   0093 A3                  232 	inc	dptr
   0094 EA                  233 	mov	a,r2
   0095 F0                  234 	movx	@dptr,a
   0096 90s00r03            235 	mov	dptr,#_timeBomb_destructor_self_1_1
   0099 E0                  236 	movx	a,@dptr
   009A FA                  237 	mov	r2,a
   009B A3                  238 	inc	dptr
   009C E0                  239 	movx	a,@dptr
   009D FB                  240 	mov	r3,a
   009E A3                  241 	inc	dptr
   009F E0                  242 	movx	a,@dptr
   00A0 FC                  243 	mov	r4,a
   00A1 8A 82               244 	mov	dpl,r2
   00A3 8B 83               245 	mov	dph,r3
   00A5 8C F0               246 	mov	b,r4
   00A7 02s01r04            247 	ljmp	_timeBomb_destructor2
                            248 ;------------------------------------------------------------
                            249 ;Allocation info for local variables in function 'timeBomb_getHistoryQueueDepth'
                            250 ;------------------------------------------------------------
                            251 ;------------------------------------------------------------
                            252 ;	../sm_test_timeBomb.c:36: END_STATE_MACHINE_DEFINITION() ;
                            253 ;	-----------------------------------------
                            254 ;	 function timeBomb_getHistoryQueueDepth
                            255 ;	-----------------------------------------
   00AA                     256 _timeBomb_getHistoryQueueDepth:
   00AA 90 00 1E            257 	mov	dptr,#0x001E
   00AD 22                  258 	ret
                            259 ;------------------------------------------------------------
                            260 ;Allocation info for local variables in function 'timeBomb_getMachineSize'
                            261 ;------------------------------------------------------------
                            262 ;------------------------------------------------------------
                            263 ;	../sm_test_timeBomb.c:36: 
                            264 ;	-----------------------------------------
                            265 ;	 function timeBomb_getMachineSize
                            266 ;	-----------------------------------------
   00AE                     267 _timeBomb_getMachineSize:
   00AE 90 00 2E            268 	mov	dptr,#0x002E
   00B1 22                  269 	ret
                            270 ;------------------------------------------------------------
                            271 ;Allocation info for local variables in function 'timeBomb_constructor2'
                            272 ;------------------------------------------------------------
                            273 ;self                      Allocated with name '_timeBomb_constructor2_self_1_1'
                            274 ;------------------------------------------------------------
                            275 ;	../sm_test_timeBomb.c:39: STATE_MACHINE_CONSTRUCTOR()
                            276 ;	-----------------------------------------
                            277 ;	 function timeBomb_constructor2
                            278 ;	-----------------------------------------
   00B2                     279 _timeBomb_constructor2:
   00B2 AA F0               280 	mov	r2,b
   00B4 AB 83               281 	mov	r3,dph
   00B6 E5 82               282 	mov	a,dpl
   00B8 90s00r06            283 	mov	dptr,#_timeBomb_constructor2_self_1_1
   00BB F0                  284 	movx	@dptr,a
   00BC A3                  285 	inc	dptr
   00BD EB                  286 	mov	a,r3
   00BE F0                  287 	movx	@dptr,a
   00BF A3                  288 	inc	dptr
   00C0 EA                  289 	mov	a,r2
   00C1 F0                  290 	movx	@dptr,a
                            291 ;	../sm_test_timeBomb.c:41: self->timeout			= 0 ;
   00C2 90s00r06            292 	mov	dptr,#_timeBomb_constructor2_self_1_1
   00C5 E0                  293 	movx	a,@dptr
   00C6 FA                  294 	mov	r2,a
   00C7 A3                  295 	inc	dptr
   00C8 E0                  296 	movx	a,@dptr
   00C9 FB                  297 	mov	r3,a
   00CA A3                  298 	inc	dptr
   00CB E0                  299 	movx	a,@dptr
   00CC FC                  300 	mov	r4,a
   00CD 74 2B               301 	mov	a,#0x2B
   00CF 2A                  302 	add	a,r2
   00D0 FD                  303 	mov	r5,a
   00D1 E4                  304 	clr	a
   00D2 3B                  305 	addc	a,r3
   00D3 FE                  306 	mov	r6,a
   00D4 8C 07               307 	mov	ar7,r4
   00D6 8D 82               308 	mov	dpl,r5
   00D8 8E 83               309 	mov	dph,r6
   00DA 8F F0               310 	mov	b,r7
   00DC E4                  311 	clr	a
   00DD 12s00r00            312 	lcall	__gptrput
                            313 ;	../sm_test_timeBomb.c:42: self->codeBeingEntered	= 0 ;
   00E0 74 2C               314 	mov	a,#0x2C
   00E2 2A                  315 	add	a,r2
   00E3 FD                  316 	mov	r5,a
   00E4 E4                  317 	clr	a
   00E5 3B                  318 	addc	a,r3
   00E6 FE                  319 	mov	r6,a
   00E7 8C 07               320 	mov	ar7,r4
   00E9 8D 82               321 	mov	dpl,r5
   00EB 8E 83               322 	mov	dph,r6
   00ED 8F F0               323 	mov	b,r7
   00EF E4                  324 	clr	a
   00F0 12s00r00            325 	lcall	__gptrput
                            326 ;	../sm_test_timeBomb.c:43: self->disarmCode		= 0 ;
   00F3 74 2D               327 	mov	a,#0x2D
   00F5 2A                  328 	add	a,r2
   00F6 FA                  329 	mov	r2,a
   00F7 E4                  330 	clr	a
   00F8 3B                  331 	addc	a,r3
   00F9 FB                  332 	mov	r3,a
   00FA 8A 82               333 	mov	dpl,r2
   00FC 8B 83               334 	mov	dph,r3
   00FE 8C F0               335 	mov	b,r4
   0100 E4                  336 	clr	a
   0101 02s00r00            337 	ljmp	__gptrput
                            338 ;------------------------------------------------------------
                            339 ;Allocation info for local variables in function 'timeBomb_destructor2'
                            340 ;------------------------------------------------------------
                            341 ;self                      Allocated with name '_timeBomb_destructor2_self_1_1'
                            342 ;------------------------------------------------------------
                            343 ;	../sm_test_timeBomb.c:47: STATE_MACHINE_DESTRUCTOR()
                            344 ;	-----------------------------------------
                            345 ;	 function timeBomb_destructor2
                            346 ;	-----------------------------------------
   0104                     347 _timeBomb_destructor2:
                            348 ;	../sm_test_timeBomb.c:49: (void)self ;	/* Nothing to do here */
   0104 22                  349 	ret
                            350 ;------------------------------------------------------------
                            351 ;Allocation info for local variables in function 'updateDisplay'
                            352 ;------------------------------------------------------------
                            353 ;value                     Allocated with name '_updateDisplay_value_1_1'
                            354 ;------------------------------------------------------------
                            355 ;	../sm_test_timeBomb.c:53: void updateDisplay(	uint8_t value)
                            356 ;	-----------------------------------------
                            357 ;	 function updateDisplay
                            358 ;	-----------------------------------------
   0105                     359 _updateDisplay:
                            360 ;	../sm_test_timeBomb.c:55: (void)value ;
   0105 22                  361 	ret
                            362 ;------------------------------------------------------------
                            363 ;Allocation info for local variables in function 'goBOOM'
                            364 ;------------------------------------------------------------
                            365 ;------------------------------------------------------------
                            366 ;	../sm_test_timeBomb.c:59: void goBOOM(		void)
                            367 ;	-----------------------------------------
                            368 ;	 function goBOOM
                            369 ;	-----------------------------------------
   0106                     370 _goBOOM:
                            371 ;	../sm_test_timeBomb.c:61: }
   0106 22                  372 	ret
                            373 ;------------------------------------------------------------
                            374 ;Allocation info for local variables in function 'timeBomb_TOP_handler'
                            375 ;------------------------------------------------------------
                            376 ;event                     Allocated to stack - offset -5
                            377 ;self                      Allocated to stack - offset 1
                            378 ;stateResponseCode         Allocated to registers 
                            379 ;------------------------------------------------------------
                            380 ;	../sm_test_timeBomb.c:64: DEFINE_TOP_STATE()
                            381 ;	-----------------------------------------
                            382 ;	 function timeBomb_TOP_handler
                            383 ;	-----------------------------------------
   0107                     384 _timeBomb_TOP_handler:
   0107 C0*00               385 	push	_bp
   0109 85 81*00            386 	mov	_bp,sp
   010C C0 82               387 	push	dpl
   010E C0 83               388 	push	dph
   0110 C0 F0               389 	push	b
                            390 ;	../sm_test_timeBomb.c:66: INITIAL_TRANSITION(TO(setting), ACTION(self->timeout = INIT_TIMEOUT)) ;
   0112 E5*00               391 	mov	a,_bp
   0114 24 FB               392 	add	a,#0xfb
   0116 F8                  393 	mov	r0,a
   0117 86 05               394 	mov	ar5,@r0
   0119 08                  395 	inc	r0
   011A 86 06               396 	mov	ar6,@r0
   011C 08                  397 	inc	r0
   011D 86 07               398 	mov	ar7,@r0
   011F 8D 82               399 	mov	dpl,r5
   0121 8E 83               400 	mov	dph,r6
   0123 8F F0               401 	mov	b,r7
   0125 12s00r00            402 	lcall	__gptrget
   0128 FD                  403 	mov	r5,a
   0129 BD 02 43            404 	cjne	r5,#0x02,00102$
   012C A8*00               405 	mov	r0,_bp
   012E 08                  406 	inc	r0
   012F 74 2B               407 	mov	a,#0x2B
   0131 26                  408 	add	a,@r0
   0132 FE                  409 	mov	r6,a
   0133 E4                  410 	clr	a
   0134 08                  411 	inc	r0
   0135 36                  412 	addc	a,@r0
   0136 FF                  413 	mov	r7,a
   0137 08                  414 	inc	r0
   0138 86 02               415 	mov	ar2,@r0
   013A 8E 82               416 	mov	dpl,r6
   013C 8F 83               417 	mov	dph,r7
   013E 8A F0               418 	mov	b,r2
   0140 74 1E               419 	mov	a,#0x1E
   0142 12s00r00            420 	lcall	__gptrput
   0145 A8*00               421 	mov	r0,_bp
   0147 08                  422 	inc	r0
   0148 74 08               423 	mov	a,#0x08
   014A 26                  424 	add	a,@r0
   014B FA                  425 	mov	r2,a
   014C E4                  426 	clr	a
   014D 08                  427 	inc	r0
   014E 36                  428 	addc	a,@r0
   014F FB                  429 	mov	r3,a
   0150 08                  430 	inc	r0
   0151 86 04               431 	mov	ar4,@r0
   0153 8A 82               432 	mov	dpl,r2
   0155 8B 83               433 	mov	dph,r3
   0157 8C F0               434 	mov	b,r4
   0159 74r09               435 	mov	a,#_timeBomb_setting
   015B 12s00r00            436 	lcall	__gptrput
   015E A3                  437 	inc	dptr
   015F 74s00               438 	mov	a,#(_timeBomb_setting >> 8)
   0161 12s00r00            439 	lcall	__gptrput
   0164 A3                  440 	inc	dptr
   0165 74 80               441 	mov	a,#0x80
   0167 12s00r00            442 	lcall	__gptrput
   016A 75 82 02            443 	mov	dpl,#0x02
   016D 80 0B               444 	sjmp	00106$
   016F                     445 00102$:
                            446 ;	../sm_test_timeBomb.c:68: HANDLE_STATE_EVENTS
   016F BD 05 05            447 	cjne	r5,#0x05,00105$
                            448 ;	../sm_test_timeBomb.c:74: EXIT_HANDLED
   0172 75 82 01            449 	mov	dpl,#0x01
                            450 ;	../sm_test_timeBomb.c:76: HANDLE_STATE_EVENTS_DONE
   0175 80 03               451 	sjmp	00106$
   0177                     452 00105$:
                            453 ;	../sm_test_timeBomb.c:78: END_DEFINE_STATE()
   0177 75 82 00            454 	mov	dpl,#0x00
   017A                     455 00106$:
   017A 85*00 81            456 	mov	sp,_bp
   017D D0*00               457 	pop	_bp
   017F 22                  458 	ret
                            459 ;------------------------------------------------------------
                            460 ;Allocation info for local variables in function 'timeBomb_setting_handler'
                            461 ;------------------------------------------------------------
                            462 ;event                     Allocated to stack - offset -5
                            463 ;self                      Allocated to stack - offset 1
                            464 ;stateResponseCode         Allocated to registers 
                            465 ;stateResponseCode         Allocated to registers 
                            466 ;------------------------------------------------------------
                            467 ;	../sm_test_timeBomb.c:81: DEFINE_STATE(setting)
                            468 ;	-----------------------------------------
                            469 ;	 function timeBomb_setting_handler
                            470 ;	-----------------------------------------
   0180                     471 _timeBomb_setting_handler:
   0180 C0*00               472 	push	_bp
   0182 85 81*00            473 	mov	_bp,sp
   0185 C0 82               474 	push	dpl
   0187 C0 83               475 	push	dph
   0189 C0 F0               476 	push	b
                            477 ;	../sm_test_timeBomb.c:83: TRANSITION_ON(ARM, TO(timing), ACTION(self->codeBeingEntered = 0)) ;
   018B E5*00               478 	mov	a,_bp
   018D 24 FB               479 	add	a,#0xfb
   018F F8                  480 	mov	r0,a
   0190 86 05               481 	mov	ar5,@r0
   0192 08                  482 	inc	r0
   0193 86 06               483 	mov	ar6,@r0
   0195 08                  484 	inc	r0
   0196 86 07               485 	mov	ar7,@r0
   0198 8D 82               486 	mov	dpl,r5
   019A 8E 83               487 	mov	dph,r6
   019C 8F F0               488 	mov	b,r7
   019E 12s00r00            489 	lcall	__gptrget
   01A1 FD                  490 	mov	r5,a
   01A2 BD 08 42            491 	cjne	r5,#0x08,00102$
   01A5 A8*00               492 	mov	r0,_bp
   01A7 08                  493 	inc	r0
   01A8 74 2C               494 	mov	a,#0x2C
   01AA 26                  495 	add	a,@r0
   01AB FE                  496 	mov	r6,a
   01AC E4                  497 	clr	a
   01AD 08                  498 	inc	r0
   01AE 36                  499 	addc	a,@r0
   01AF FF                  500 	mov	r7,a
   01B0 08                  501 	inc	r0
   01B1 86 02               502 	mov	ar2,@r0
   01B3 8E 82               503 	mov	dpl,r6
   01B5 8F 83               504 	mov	dph,r7
   01B7 8A F0               505 	mov	b,r2
   01B9 E4                  506 	clr	a
   01BA 12s00r00            507 	lcall	__gptrput
   01BD A8*00               508 	mov	r0,_bp
   01BF 08                  509 	inc	r0
   01C0 74 08               510 	mov	a,#0x08
   01C2 26                  511 	add	a,@r0
   01C3 FA                  512 	mov	r2,a
   01C4 E4                  513 	clr	a
   01C5 08                  514 	inc	r0
   01C6 36                  515 	addc	a,@r0
   01C7 FB                  516 	mov	r3,a
   01C8 08                  517 	inc	r0
   01C9 86 04               518 	mov	ar4,@r0
   01CB 8A 82               519 	mov	dpl,r2
   01CD 8B 83               520 	mov	dph,r3
   01CF 8C F0               521 	mov	b,r4
   01D1 74r12               522 	mov	a,#_timeBomb_timing
   01D3 12s00r00            523 	lcall	__gptrput
   01D6 A3                  524 	inc	dptr
   01D7 74s00               525 	mov	a,#(_timeBomb_timing >> 8)
   01D9 12s00r00            526 	lcall	__gptrput
   01DC A3                  527 	inc	dptr
   01DD 74 80               528 	mov	a,#0x80
   01DF 12s00r00            529 	lcall	__gptrput
   01E2 75 82 02            530 	mov	dpl,#0x02
   01E5 80 70               531 	sjmp	00111$
   01E7                     532 00102$:
                            533 ;	../sm_test_timeBomb.c:85: HANDLE_STATE_EVENTS
   01E7 BD 06 02            534 	cjne	r5,#0x06,00120$
   01EA 80 05               535 	sjmp	00103$
   01EC                     536 00120$:
                            537 ;	../sm_test_timeBomb.c:87: EVENT(UP)
   01EC BD 07 65            538 	cjne	r5,#0x07,00110$
   01EF 80 32               539 	sjmp	00106$
   01F1                     540 00103$:
                            541 ;	../sm_test_timeBomb.c:89: if(self->timeout < 60)
   01F1 A8*00               542 	mov	r0,_bp
   01F3 08                  543 	inc	r0
   01F4 74 2B               544 	mov	a,#0x2B
   01F6 26                  545 	add	a,@r0
   01F7 FA                  546 	mov	r2,a
   01F8 E4                  547 	clr	a
   01F9 08                  548 	inc	r0
   01FA 36                  549 	addc	a,@r0
   01FB FB                  550 	mov	r3,a
   01FC 08                  551 	inc	r0
   01FD 86 04               552 	mov	ar4,@r0
   01FF 8A 82               553 	mov	dpl,r2
   0201 8B 83               554 	mov	dph,r3
   0203 8C F0               555 	mov	b,r4
   0205 12s00r00            556 	lcall	__gptrget
   0208 FD                  557 	mov	r5,a
   0209 BD 3C 00            558 	cjne	r5,#0x3C,00122$
   020C                     559 00122$:
   020C 50 10               560 	jnc	00105$
                            561 ;	../sm_test_timeBomb.c:91: self->timeout++ ;
   020E 0D                  562 	inc	r5
   020F 8A 82               563 	mov	dpl,r2
   0211 8B 83               564 	mov	dph,r3
   0213 8C F0               565 	mov	b,r4
   0215 ED                  566 	mov	a,r5
   0216 12s00r00            567 	lcall	__gptrput
                            568 ;	../sm_test_timeBomb.c:93: updateDisplay(self->timeout) ;
   0219 8D 82               569 	mov	dpl,r5
   021B 12s01r05            570 	lcall	_updateDisplay
   021E                     571 00105$:
                            572 ;	../sm_test_timeBomb.c:96: EVENT_HANDLED
   021E 75 82 01            573 	mov	dpl,#0x01
                            574 ;	../sm_test_timeBomb.c:98: EVENT(DOWN)
   0221 80 34               575 	sjmp	00111$
   0223                     576 00106$:
                            577 ;	../sm_test_timeBomb.c:100: if(self->timeout > 1)
   0223 A8*00               578 	mov	r0,_bp
   0225 08                  579 	inc	r0
   0226 74 2B               580 	mov	a,#0x2B
   0228 26                  581 	add	a,@r0
   0229 FA                  582 	mov	r2,a
   022A E4                  583 	clr	a
   022B 08                  584 	inc	r0
   022C 36                  585 	addc	a,@r0
   022D FB                  586 	mov	r3,a
   022E 08                  587 	inc	r0
   022F 86 04               588 	mov	ar4,@r0
   0231 8A 82               589 	mov	dpl,r2
   0233 8B 83               590 	mov	dph,r3
   0235 8C F0               591 	mov	b,r4
   0237 12s00r00            592 	lcall	__gptrget
   023A FD                  593 	mov  r5,a
   023B 24 FE               594 	add	a,#0xff - 0x01
   023D 50 10               595 	jnc	00108$
                            596 ;	../sm_test_timeBomb.c:102: self->timeout-- ;
   023F 1D                  597 	dec	r5
   0240 8A 82               598 	mov	dpl,r2
   0242 8B 83               599 	mov	dph,r3
   0244 8C F0               600 	mov	b,r4
   0246 ED                  601 	mov	a,r5
   0247 12s00r00            602 	lcall	__gptrput
                            603 ;	../sm_test_timeBomb.c:104: updateDisplay(self->timeout) ;
   024A 8D 82               604 	mov	dpl,r5
   024C 12s01r05            605 	lcall	_updateDisplay
   024F                     606 00108$:
                            607 ;	../sm_test_timeBomb.c:107: EVENT_HANDLED
   024F 75 82 01            608 	mov	dpl,#0x01
                            609 ;	../sm_test_timeBomb.c:109: HANDLE_STATE_EVENTS_DONE
   0252 80 03               610 	sjmp	00111$
   0254                     611 00110$:
                            612 ;	../sm_test_timeBomb.c:111: END_DEFINE_STATE()
   0254 75 82 00            613 	mov	dpl,#0x00
   0257                     614 00111$:
   0257 85*00 81            615 	mov	sp,_bp
   025A D0*00               616 	pop	_bp
   025C 22                  617 	ret
                            618 ;------------------------------------------------------------
                            619 ;Allocation info for local variables in function 'timeBomb_timing_handler'
                            620 ;------------------------------------------------------------
                            621 ;event                     Allocated to stack - offset -5
                            622 ;self                      Allocated to stack - offset 1
                            623 ;stateResponseCode         Allocated to registers 
                            624 ;stateResponseCode         Allocated to registers 
                            625 ;stateResponseCode         Allocated to registers 
                            626 ;------------------------------------------------------------
                            627 ;	../sm_test_timeBomb.c:114: DEFINE_STATE(timing)
                            628 ;	-----------------------------------------
                            629 ;	 function timeBomb_timing_handler
                            630 ;	-----------------------------------------
   025D                     631 _timeBomb_timing_handler:
   025D C0*00               632 	push	_bp
   025F 85 81*00            633 	mov	_bp,sp
   0262 C0 82               634 	push	dpl
   0264 C0 83               635 	push	dph
   0266 C0 F0               636 	push	b
                            637 ;	../sm_test_timeBomb.c:116: TRANSITION_ON_IF(ARM, self->codeBeingEntered == self->disarmCode, TO(setting), ACTION(updateDisplay(self->timeout))) ;
   0268 E5*00               638 	mov	a,_bp
   026A 24 FB               639 	add	a,#0xfb
   026C F8                  640 	mov	r0,a
   026D 86 05               641 	mov	ar5,@r0
   026F 08                  642 	inc	r0
   0270 86 06               643 	mov	ar6,@r0
   0272 08                  644 	inc	r0
   0273 86 07               645 	mov	ar7,@r0
   0275 8D 82               646 	mov	dpl,r5
   0277 8E 83               647 	mov	dph,r6
   0279 8F F0               648 	mov	b,r7
   027B 12s00r00            649 	lcall	__gptrget
   027E FD                  650 	mov	r5,a
   027F BD 08 02            651 	cjne	r5,#0x08,00116$
   0282 80 03               652 	sjmp	00117$
   0284                     653 00116$:
   0284 02s03r0C            654 	ljmp	00102$
   0287                     655 00117$:
   0287 C0 05               656 	push	ar5
   0289 A8*00               657 	mov	r0,_bp
   028B 08                  658 	inc	r0
   028C 74 2C               659 	mov	a,#0x2C
   028E 26                  660 	add	a,@r0
   028F FE                  661 	mov	r6,a
   0290 E4                  662 	clr	a
   0291 08                  663 	inc	r0
   0292 36                  664 	addc	a,@r0
   0293 FF                  665 	mov	r7,a
   0294 08                  666 	inc	r0
   0295 86 05               667 	mov	ar5,@r0
   0297 8E 82               668 	mov	dpl,r6
   0299 8F 83               669 	mov	dph,r7
   029B 8D F0               670 	mov	b,r5
   029D 12s00r00            671 	lcall	__gptrget
   02A0 FE                  672 	mov	r6,a
   02A1 A8*00               673 	mov	r0,_bp
   02A3 08                  674 	inc	r0
   02A4 74 2D               675 	mov	a,#0x2D
   02A6 26                  676 	add	a,@r0
   02A7 FD                  677 	mov	r5,a
   02A8 E4                  678 	clr	a
   02A9 08                  679 	inc	r0
   02AA 36                  680 	addc	a,@r0
   02AB FF                  681 	mov	r7,a
   02AC 08                  682 	inc	r0
   02AD 86 02               683 	mov	ar2,@r0
   02AF 8D 82               684 	mov	dpl,r5
   02B1 8F 83               685 	mov	dph,r7
   02B3 8A F0               686 	mov	b,r2
   02B5 12s00r00            687 	lcall	__gptrget
   02B8 FD                  688 	mov	r5,a
   02B9 EE                  689 	mov	a,r6
   02BA B5 05 02            690 	cjne	a,ar5,00118$
   02BD 80 04               691 	sjmp	00119$
   02BF                     692 00118$:
   02BF D0 05               693 	pop	ar5
   02C1 80 49               694 	sjmp	00102$
   02C3                     695 00119$:
   02C3 D0 05               696 	pop	ar5
   02C5 A8*00               697 	mov	r0,_bp
   02C7 08                  698 	inc	r0
   02C8 74 2B               699 	mov	a,#0x2B
   02CA 26                  700 	add	a,@r0
   02CB FA                  701 	mov	r2,a
   02CC E4                  702 	clr	a
   02CD 08                  703 	inc	r0
   02CE 36                  704 	addc	a,@r0
   02CF FB                  705 	mov	r3,a
   02D0 08                  706 	inc	r0
   02D1 86 04               707 	mov	ar4,@r0
   02D3 8A 82               708 	mov	dpl,r2
   02D5 8B 83               709 	mov	dph,r3
   02D7 8C F0               710 	mov	b,r4
   02D9 12s00r00            711 	lcall	__gptrget
   02DC F5 82               712 	mov	dpl,a
   02DE 12s01r05            713 	lcall	_updateDisplay
   02E1 A8*00               714 	mov	r0,_bp
   02E3 08                  715 	inc	r0
   02E4 74 08               716 	mov	a,#0x08
   02E6 26                  717 	add	a,@r0
   02E7 FA                  718 	mov	r2,a
   02E8 E4                  719 	clr	a
   02E9 08                  720 	inc	r0
   02EA 36                  721 	addc	a,@r0
   02EB FB                  722 	mov	r3,a
   02EC 08                  723 	inc	r0
   02ED 86 04               724 	mov	ar4,@r0
   02EF 8A 82               725 	mov	dpl,r2
   02F1 8B 83               726 	mov	dph,r3
   02F3 8C F0               727 	mov	b,r4
   02F5 74r09               728 	mov	a,#_timeBomb_setting
   02F7 12s00r00            729 	lcall	__gptrput
   02FA A3                  730 	inc	dptr
   02FB 74s00               731 	mov	a,#(_timeBomb_setting >> 8)
   02FD 12s00r00            732 	lcall	__gptrput
   0300 A3                  733 	inc	dptr
   0301 74 80               734 	mov	a,#0x80
   0303 12s00r00            735 	lcall	__gptrput
   0306 75 82 02            736 	mov	dpl,#0x02
   0309 02s03rD1            737 	ljmp	00109$
   030C                     738 00102$:
                            739 ;	../sm_test_timeBomb.c:118: HANDLE_STATE_EVENTS
   030C BD 06 02            740 	cjne	r5,#0x06,00120$
   030F 80 0D               741 	sjmp	00104$
   0311                     742 00120$:
   0311 BD 07 02            743 	cjne	r5,#0x07,00121$
   0314 80 3E               744 	sjmp	00105$
   0316                     745 00121$:
   0316 BD 09 02            746 	cjne	r5,#0x09,00122$
   0319 80 61               747 	sjmp	00106$
   031B                     748 00122$:
   031B 02s03rCE            749 	ljmp	00108$
                            750 ;	../sm_test_timeBomb.c:120: EVENT(UP)
   031E                     751 00104$:
                            752 ;	../sm_test_timeBomb.c:122: self->codeBeingEntered <<= 1 ;
   031E A8*00               753 	mov	r0,_bp
   0320 08                  754 	inc	r0
   0321 74 2C               755 	mov	a,#0x2C
   0323 26                  756 	add	a,@r0
   0324 FA                  757 	mov	r2,a
   0325 E4                  758 	clr	a
   0326 08                  759 	inc	r0
   0327 36                  760 	addc	a,@r0
   0328 FB                  761 	mov	r3,a
   0329 08                  762 	inc	r0
   032A 86 04               763 	mov	ar4,@r0
   032C 8A 82               764 	mov	dpl,r2
   032E 8B 83               765 	mov	dph,r3
   0330 8C F0               766 	mov	b,r4
   0332 12s00r00            767 	lcall	__gptrget
   0335 25 E0               768 	add	a,acc
   0337 FD                  769 	mov	r5,a
   0338 8A 82               770 	mov	dpl,r2
   033A 8B 83               771 	mov	dph,r3
   033C 8C F0               772 	mov	b,r4
   033E 12s00r00            773 	lcall	__gptrput
                            774 ;	../sm_test_timeBomb.c:123: self->codeBeingEntered |= 1 ;
   0341 43 05 01            775 	orl	ar5,#0x01
   0344 8A 82               776 	mov	dpl,r2
   0346 8B 83               777 	mov	dph,r3
   0348 8C F0               778 	mov	b,r4
   034A ED                  779 	mov	a,r5
   034B 12s00r00            780 	lcall	__gptrput
                            781 ;	../sm_test_timeBomb.c:125: EVENT_HANDLED
   034E 75 82 01            782 	mov	dpl,#0x01
   0351 02s03rD1            783 	ljmp	00109$
                            784 ;	../sm_test_timeBomb.c:127: EVENT(DOWN)
   0354                     785 00105$:
                            786 ;	../sm_test_timeBomb.c:129: self->codeBeingEntered <<= 1 ;
   0354 A8*00               787 	mov	r0,_bp
   0356 08                  788 	inc	r0
   0357 74 2C               789 	mov	a,#0x2C
   0359 26                  790 	add	a,@r0
   035A FA                  791 	mov	r2,a
   035B E4                  792 	clr	a
   035C 08                  793 	inc	r0
   035D 36                  794 	addc	a,@r0
   035E FB                  795 	mov	r3,a
   035F 08                  796 	inc	r0
   0360 86 04               797 	mov	ar4,@r0
   0362 8A 82               798 	mov	dpl,r2
   0364 8B 83               799 	mov	dph,r3
   0366 8C F0               800 	mov	b,r4
   0368 12s00r00            801 	lcall	__gptrget
   036B 25 E0               802 	add	a,acc
   036D FD                  803 	mov	r5,a
   036E 8A 82               804 	mov	dpl,r2
   0370 8B 83               805 	mov	dph,r3
   0372 8C F0               806 	mov	b,r4
   0374 12s00r00            807 	lcall	__gptrput
                            808 ;	../sm_test_timeBomb.c:131: EVENT_HANDLED
   0377 75 82 01            809 	mov	dpl,#0x01
                            810 ;	../sm_test_timeBomb.c:133: EVENT(TICK)
   037A 80 55               811 	sjmp	00109$
   037C                     812 00106$:
                            813 ;	../sm_test_timeBomb.c:135: self->timeout-- ;
   037C A8*00               814 	mov	r0,_bp
   037E 08                  815 	inc	r0
   037F 74 2B               816 	mov	a,#0x2B
   0381 26                  817 	add	a,@r0
   0382 FA                  818 	mov	r2,a
   0383 E4                  819 	clr	a
   0384 08                  820 	inc	r0
   0385 36                  821 	addc	a,@r0
   0386 FB                  822 	mov	r3,a
   0387 08                  823 	inc	r0
   0388 86 04               824 	mov	ar4,@r0
   038A 8A 82               825 	mov	dpl,r2
   038C 8B 83               826 	mov	dph,r3
   038E 8C F0               827 	mov	b,r4
   0390 12s00r00            828 	lcall	__gptrget
   0393 FD                  829 	mov	r5,a
   0394 1D                  830 	dec	r5
   0395 8A 82               831 	mov	dpl,r2
   0397 8B 83               832 	mov	dph,r3
   0399 8C F0               833 	mov	b,r4
   039B ED                  834 	mov	a,r5
   039C 12s00r00            835 	lcall	__gptrput
                            836 ;	../sm_test_timeBomb.c:137: TRANSITION_TO(isTimeToGoBoom, updateDisplay(self->timeout)) ;
   039F 8D 82               837 	mov	dpl,r5
   03A1 12s01r05            838 	lcall	_updateDisplay
   03A4 A8*00               839 	mov	r0,_bp
   03A6 08                  840 	inc	r0
   03A7 74 08               841 	mov	a,#0x08
   03A9 26                  842 	add	a,@r0
   03AA FA                  843 	mov	r2,a
   03AB E4                  844 	clr	a
   03AC 08                  845 	inc	r0
   03AD 36                  846 	addc	a,@r0
   03AE FB                  847 	mov	r3,a
   03AF 08                  848 	inc	r0
   03B0 86 04               849 	mov	ar4,@r0
   03B2 8A 82               850 	mov	dpl,r2
   03B4 8B 83               851 	mov	dph,r3
   03B6 8C F0               852 	mov	b,r4
   03B8 74r1B               853 	mov	a,#_timeBomb_isTimeToGoBoom
   03BA 12s00r00            854 	lcall	__gptrput
   03BD A3                  855 	inc	dptr
   03BE 74s00               856 	mov	a,#(_timeBomb_isTimeToGoBoom >> 8)
   03C0 12s00r00            857 	lcall	__gptrput
   03C3 A3                  858 	inc	dptr
   03C4 74 80               859 	mov	a,#0x80
   03C6 12s00r00            860 	lcall	__gptrput
   03C9 75 82 02            861 	mov	dpl,#0x02
                            862 ;	../sm_test_timeBomb.c:141: HANDLE_STATE_EVENTS_DONE
   03CC 80 03               863 	sjmp	00109$
   03CE                     864 00108$:
                            865 ;	../sm_test_timeBomb.c:143: END_DEFINE_STATE()
   03CE 75 82 00            866 	mov	dpl,#0x00
   03D1                     867 00109$:
   03D1 85*00 81            868 	mov	sp,_bp
   03D4 D0*00               869 	pop	_bp
   03D6 22                  870 	ret
                            871 ;------------------------------------------------------------
                            872 ;Allocation info for local variables in function 'timeBomb_isTimeToGoBoom_handler'
                            873 ;------------------------------------------------------------
                            874 ;self                      Allocated to registers r2 r3 r4 
                            875 ;stateResponseCode         Allocated to registers 
                            876 ;------------------------------------------------------------
                            877 ;	../sm_test_timeBomb.c:146: DEFINE_CHOICE_PSEUDO_STATE(	isTimeToGoBoom,
                            878 ;	-----------------------------------------
                            879 ;	 function timeBomb_isTimeToGoBoom_handler
                            880 ;	-----------------------------------------
   03D7                     881 _timeBomb_isTimeToGoBoom_handler:
   03D7 AA 82               882 	mov	r2,dpl
   03D9 AB 83               883 	mov	r3,dph
   03DB AC F0               884 	mov	r4,b
   03DD 74 2B               885 	mov	a,#0x2B
   03DF 2A                  886 	add	a,r2
   03E0 FD                  887 	mov	r5,a
   03E1 E4                  888 	clr	a
   03E2 3B                  889 	addc	a,r3
   03E3 FE                  890 	mov	r6,a
   03E4 8C 07               891 	mov	ar7,r4
   03E6 8D 82               892 	mov	dpl,r5
   03E8 8E 83               893 	mov	dph,r6
   03EA 8F F0               894 	mov	b,r7
   03EC 12s00r00            895 	lcall	__gptrget
   03EF 70 31               896 	jnz	00102$
   03F1 C0 02               897 	push	ar2
   03F3 C0 03               898 	push	ar3
   03F5 C0 04               899 	push	ar4
   03F7 12s01r06            900 	lcall	_goBOOM
   03FA D0 04               901 	pop	ar4
   03FC D0 03               902 	pop	ar3
   03FE D0 02               903 	pop	ar2
   0400 74 08               904 	mov	a,#0x08
   0402 2A                  905 	add	a,r2
   0403 FD                  906 	mov	r5,a
   0404 E4                  907 	clr	a
   0405 3B                  908 	addc	a,r3
   0406 FE                  909 	mov	r6,a
   0407 8C 07               910 	mov	ar7,r4
   0409 8D 82               911 	mov	dpl,r5
   040B 8E 83               912 	mov	dph,r6
   040D 8F F0               913 	mov	b,r7
   040F 74r00               914 	mov	a,#_timeBomb_TOP
   0411 12s00r00            915 	lcall	__gptrput
   0414 A3                  916 	inc	dptr
   0415 74s00               917 	mov	a,#(_timeBomb_TOP >> 8)
   0417 12s00r00            918 	lcall	__gptrput
   041A A3                  919 	inc	dptr
   041B 74 80               920 	mov	a,#0x80
   041D 12s00r00            921 	lcall	__gptrput
   0420 80 1E               922 	sjmp	00103$
   0422                     923 00102$:
   0422 74 08               924 	mov	a,#0x08
   0424 2A                  925 	add	a,r2
   0425 FA                  926 	mov	r2,a
   0426 E4                  927 	clr	a
   0427 3B                  928 	addc	a,r3
   0428 FB                  929 	mov	r3,a
   0429 8A 82               930 	mov	dpl,r2
   042B 8B 83               931 	mov	dph,r3
   042D 8C F0               932 	mov	b,r4
   042F 74r12               933 	mov	a,#_timeBomb_timing
   0431 12s00r00            934 	lcall	__gptrput
   0434 A3                  935 	inc	dptr
   0435 74s00               936 	mov	a,#(_timeBomb_timing >> 8)
   0437 12s00r00            937 	lcall	__gptrput
   043A A3                  938 	inc	dptr
   043B 74 80               939 	mov	a,#0x80
   043D 12s00r00            940 	lcall	__gptrput
   0440                     941 00103$:
   0440 75 82 02            942 	mov	dpl,#0x02
   0443 22                  943 	ret
                            944 	.area CSEG    (CODE)
                            945 	.area CONST   (CODE)
   0000                     946 _timeBomb_TOP:
                            947 ; generic printIvalPtr
   0000 00 00 00            948 	.byte #0x00,#0x00,#0x00
   0003 00                  949 	.db #0x00
   0004r07s01               950 	.byte _timeBomb_TOP_handler,(_timeBomb_TOP_handler >> 8)
   0006r2Ds00 80            951 	.byte _str_1,(_str_1 >> 8),#0x80
   0009                     952 _timeBomb_setting:
   0009r00s00 80            953 	.byte _timeBomb_TOP,(_timeBomb_TOP >> 8),#0x80
   000C 00                  954 	.db #0x00
   000Dr80s01               955 	.byte _timeBomb_setting_handler,(_timeBomb_setting_handler >> 8)
   000Fr3As00 80            956 	.byte _str_2,(_str_2 >> 8),#0x80
   0012                     957 _timeBomb_timing:
   0012r00s00 80            958 	.byte _timeBomb_TOP,(_timeBomb_TOP >> 8),#0x80
   0015 00                  959 	.db #0x00
   0016r5Ds02               960 	.byte _timeBomb_timing_handler,(_timeBomb_timing_handler >> 8)
   0018r4Bs00 80            961 	.byte _str_3,(_str_3 >> 8),#0x80
   001B                     962 _timeBomb_isTimeToGoBoom:
   001Br00s00 80            963 	.byte _timeBomb_TOP,(_timeBomb_TOP >> 8),#0x80
   001E 01                  964 	.db #0x01
   001FrD7s03               965 	.byte _timeBomb_isTimeToGoBoom_handler,(_timeBomb_isTimeToGoBoom_handler >> 8)
   0021r5Bs00 80            966 	.byte _str_4,(_str_4 >> 8),#0x80
   0024                     967 __str_0:
   0024 74 69 6D 65 42 6F   968 	.ascii "timeBomb"
        6D 62
   002C 00                  969 	.db 0x00
   002D                     970 _str_1:
   002D 74 69 6D 65 42 6F   971 	.ascii "timeBomb_TOP"
        6D 62 5F 54 4F 50
   0039 00                  972 	.db 0x00
   003A                     973 _str_2:
   003A 74 69 6D 65 42 6F   974 	.ascii "timeBomb_setting"
        6D 62 5F 73 65 74
        74 69 6E 67
   004A 00                  975 	.db 0x00
   004B                     976 _str_3:
   004B 74 69 6D 65 42 6F   977 	.ascii "timeBomb_timing"
        6D 62 5F 74 69 6D
        69 6E 67
   005A 00                  978 	.db 0x00
   005B                     979 _str_4:
   005B 74 69 6D 65 42 6F   980 	.ascii "timeBomb_isTimeToGoBoom"
        6D 62 5F 69 73 54
        69 6D 65 54 6F 47
        6F 42 6F 6F 6D
   0072 00                  981 	.db 0x00
                            982 	.area XINIT   (CODE)
   0000                     983 __xinit__timeBomb_name:
   0000r24s00 80            984 	.byte __str_0,(__str_0 >> 8),#0x80
                            985 	.area CABS    (ABS,CODE)
