                              1 ;--------------------------------------------------------
                              2 ; File Created by SDCC : free open source ANSI-C Compiler
                              3 ; Version 2.9.0 #5416 (Mar 22 2009) (MINGW32)
                              4 ; This file was generated Sat Jan 23 00:00:24 2010
                              5 ;--------------------------------------------------------
                              6 	.module sm_test_timeBomb
                              7 	.optsdcc -mmcs51 --model-large
                              8 	
                              9 ;--------------------------------------------------------
                             10 ; Public variables in this module
                             11 ;--------------------------------------------------------
                             12 	.globl _goBOOM
                             13 	.globl _updateDisplay
                             14 	.globl _timeBomb_constructor
                             15 	.globl _timeBomb_destructor
                             16 	.globl _timeBomb_getHistoryArraySize
                             17 	.globl _timeBomb_getMachineSize
                             18 	.globl _timeBomb_constructor2
                             19 	.globl _timeBomb_destructor2
                             20 ;--------------------------------------------------------
                             21 ; special function registers
                             22 ;--------------------------------------------------------
                             23 	.area RSEG    (DATA)
                             24 ;--------------------------------------------------------
                             25 ; special function bits
                             26 ;--------------------------------------------------------
                             27 	.area RSEG    (DATA)
                             28 ;--------------------------------------------------------
                             29 ; overlayable register banks
                             30 ;--------------------------------------------------------
                             31 	.area REG_BANK_0	(REL,OVR,DATA)
   0000                      32 	.ds 8
                             33 ;--------------------------------------------------------
                             34 ; internal ram data
                             35 ;--------------------------------------------------------
                             36 	.area DSEG    (DATA)
   0000                      37 _timeBomb_constructor_sloc0_1_0:
   0000                      38 	.ds 3
                             39 ;--------------------------------------------------------
                             40 ; overlayable items in internal ram 
                             41 ;--------------------------------------------------------
                             42 	.area OSEG    (OVR,DATA)
                             43 ;--------------------------------------------------------
                             44 ; indirectly addressable internal ram data
                             45 ;--------------------------------------------------------
                             46 	.area ISEG    (DATA)
                             47 ;--------------------------------------------------------
                             48 ; absolute internal ram data
                             49 ;--------------------------------------------------------
                             50 	.area IABS    (ABS,DATA)
                             51 	.area IABS    (ABS,DATA)
                             52 ;--------------------------------------------------------
                             53 ; bit data
                             54 ;--------------------------------------------------------
                             55 	.area BSEG    (BIT)
                             56 ;--------------------------------------------------------
                             57 ; paged external ram data
                             58 ;--------------------------------------------------------
                             59 	.area PSEG    (PAG,XDATA)
                             60 ;--------------------------------------------------------
                             61 ; external ram data
                             62 ;--------------------------------------------------------
                             63 	.area XSEG    (XDATA)
   0000                      64 _timeBomb_constructor_base_1_1:
   0000                      65 	.ds 3
   0003                      66 _timeBomb_destructor_self_1_1:
   0003                      67 	.ds 3
   0006                      68 _timeBomb_constructor2_self_1_1:
   0006                      69 	.ds 3
                             70 ;--------------------------------------------------------
                             71 ; absolute external ram data
                             72 ;--------------------------------------------------------
                             73 	.area XABS    (ABS,XDATA)
                             74 ;--------------------------------------------------------
                             75 ; external initialized ram data
                             76 ;--------------------------------------------------------
                             77 	.area XISEG   (XDATA)
   0000                      78 _timeBomb_name:
   0000                      79 	.ds 3
                             80 	.area HOME    (CODE)
                             81 	.area GSINIT0 (CODE)
                             82 	.area GSINIT1 (CODE)
                             83 	.area GSINIT2 (CODE)
                             84 	.area GSINIT3 (CODE)
                             85 	.area GSINIT4 (CODE)
                             86 	.area GSINIT5 (CODE)
                             87 	.area GSINIT  (CODE)
                             88 	.area GSFINAL (CODE)
                             89 	.area CSEG    (CODE)
                             90 ;--------------------------------------------------------
                             91 ; global & static initialisations
                             92 ;--------------------------------------------------------
                             93 	.area HOME    (CODE)
                             94 	.area GSINIT  (CODE)
                             95 	.area GSFINAL (CODE)
                             96 	.area GSINIT  (CODE)
                             97 ;--------------------------------------------------------
                             98 ; Home
                             99 ;--------------------------------------------------------
                            100 	.area HOME    (CODE)
                            101 	.area HOME    (CODE)
                            102 ;--------------------------------------------------------
                            103 ; code
                            104 ;--------------------------------------------------------
                            105 	.area CSEG    (CODE)
                            106 ;------------------------------------------------------------
                            107 ;Allocation info for local variables in function 'timeBomb_constructor'
                            108 ;------------------------------------------------------------
                            109 ;sloc0                     Allocated with name '_timeBomb_constructor_sloc0_1_0'
                            110 ;base                      Allocated with name '_timeBomb_constructor_base_1_1'
                            111 ;------------------------------------------------------------
                            112 ;	../sm_test_timeBomb.c:32: END_STATE_MACHINE_DEFINITION() ;
                            113 ;	-----------------------------------------
                            114 ;	 function timeBomb_constructor
                            115 ;	-----------------------------------------
   0000                     116 _timeBomb_constructor:
                    0002    117 	ar2 = 0x02
                    0003    118 	ar3 = 0x03
                    0004    119 	ar4 = 0x04
                    0005    120 	ar5 = 0x05
                    0006    121 	ar6 = 0x06
                    0007    122 	ar7 = 0x07
                    0000    123 	ar0 = 0x00
                    0001    124 	ar1 = 0x01
   0000 AA F0               125 	mov	r2,b
   0002 AB 83               126 	mov	r3,dph
   0004 E5 82               127 	mov	a,dpl
   0006 90s00r00            128 	mov	dptr,#_timeBomb_constructor_base_1_1
   0009 F0                  129 	movx	@dptr,a
   000A A3                  130 	inc	dptr
   000B EB                  131 	mov	a,r3
   000C F0                  132 	movx	@dptr,a
   000D A3                  133 	inc	dptr
   000E EA                  134 	mov	a,r2
   000F F0                  135 	movx	@dptr,a
   0010 90s00r00            136 	mov	dptr,#_timeBomb_constructor_base_1_1
   0013 E0                  137 	movx	a,@dptr
   0014 FA                  138 	mov	r2,a
   0015 A3                  139 	inc	dptr
   0016 E0                  140 	movx	a,@dptr
   0017 FB                  141 	mov	r3,a
   0018 A3                  142 	inc	dptr
   0019 E0                  143 	movx	a,@dptr
   001A FC                  144 	mov	r4,a
   001B 8A 82               145 	mov	dpl,r2
   001D 8B 83               146 	mov	dph,r3
   001F 8C F0               147 	mov	b,r4
   0021 74r00               148 	mov	a,#_timeBomb_TOP
   0023 12s00r00            149 	lcall	__gptrput
   0026 A3                  150 	inc	dptr
   0027 74s00               151 	mov	a,#(_timeBomb_TOP >> 8)
   0029 12s00r00            152 	lcall	__gptrput
   002C 74 05               153 	mov	a,#0x05
   002E 2A                  154 	add	a,r2
   002F FD                  155 	mov	r5,a
   0030 E4                  156 	clr	a
   0031 3B                  157 	addc	a,r3
   0032 FE                  158 	mov	r6,a
   0033 8C 07               159 	mov	ar7,r4
   0035 8D 82               160 	mov	dpl,r5
   0037 8E 83               161 	mov	dph,r6
   0039 8F F0               162 	mov	b,r7
   003B 74r00               163 	mov	a,#_timeBomb_TOP
   003D 12s00r00            164 	lcall	__gptrput
   0040 A3                  165 	inc	dptr
   0041 74s00               166 	mov	a,#(_timeBomb_TOP >> 8)
   0043 12s00r00            167 	lcall	__gptrput
   0046 A3                  168 	inc	dptr
   0047 74 80               169 	mov	a,#0x80
   0049 12s00r00            170 	lcall	__gptrput
   004C 74 02               171 	mov	a,#0x02
   004E 2A                  172 	add	a,r2
   004F F5*00               173 	mov	_timeBomb_constructor_sloc0_1_0,a
   0051 E4                  174 	clr	a
   0052 3B                  175 	addc	a,r3
   0053 F5*01               176 	mov	(_timeBomb_constructor_sloc0_1_0 + 1),a
   0055 8C*02               177 	mov	(_timeBomb_constructor_sloc0_1_0 + 2),r4
   0057 90s00r00            178 	mov	dptr,#_timeBomb_name
   005A E0                  179 	movx	a,@dptr
   005B F8                  180 	mov	r0,a
   005C A3                  181 	inc	dptr
   005D E0                  182 	movx	a,@dptr
   005E F9                  183 	mov	r1,a
   005F A3                  184 	inc	dptr
   0060 E0                  185 	movx	a,@dptr
   0061 FD                  186 	mov	r5,a
   0062 85*00 82            187 	mov	dpl,_timeBomb_constructor_sloc0_1_0
   0065 85*01 83            188 	mov	dph,(_timeBomb_constructor_sloc0_1_0 + 1)
   0068 85*02 F0            189 	mov	b,(_timeBomb_constructor_sloc0_1_0 + 2)
   006B E8                  190 	mov	a,r0
   006C 12s00r00            191 	lcall	__gptrput
   006F A3                  192 	inc	dptr
   0070 E9                  193 	mov	a,r1
   0071 12s00r00            194 	lcall	__gptrput
   0074 A3                  195 	inc	dptr
   0075 ED                  196 	mov	a,r5
   0076 12s00r00            197 	lcall	__gptrput
   0079 8A 82               198 	mov	dpl,r2
   007B 8B 83               199 	mov	dph,r3
   007D 8C F0               200 	mov	b,r4
   007F 02s00rAE            201 	ljmp	_timeBomb_constructor2
                            202 ;------------------------------------------------------------
                            203 ;Allocation info for local variables in function 'timeBomb_destructor'
                            204 ;------------------------------------------------------------
                            205 ;self                      Allocated with name '_timeBomb_destructor_self_1_1'
                            206 ;------------------------------------------------------------
                            207 ;	../sm_test_timeBomb.c:32: 
                            208 ;	-----------------------------------------
                            209 ;	 function timeBomb_destructor
                            210 ;	-----------------------------------------
   0082                     211 _timeBomb_destructor:
   0082 AA F0               212 	mov	r2,b
   0084 AB 83               213 	mov	r3,dph
   0086 E5 82               214 	mov	a,dpl
   0088 90s00r03            215 	mov	dptr,#_timeBomb_destructor_self_1_1
   008B F0                  216 	movx	@dptr,a
   008C A3                  217 	inc	dptr
   008D EB                  218 	mov	a,r3
   008E F0                  219 	movx	@dptr,a
   008F A3                  220 	inc	dptr
   0090 EA                  221 	mov	a,r2
   0091 F0                  222 	movx	@dptr,a
   0092 90s00r03            223 	mov	dptr,#_timeBomb_destructor_self_1_1
   0095 E0                  224 	movx	a,@dptr
   0096 FA                  225 	mov	r2,a
   0097 A3                  226 	inc	dptr
   0098 E0                  227 	movx	a,@dptr
   0099 FB                  228 	mov	r3,a
   009A A3                  229 	inc	dptr
   009B E0                  230 	movx	a,@dptr
   009C FC                  231 	mov	r4,a
   009D 8A 82               232 	mov	dpl,r2
   009F 8B 83               233 	mov	dph,r3
   00A1 8C F0               234 	mov	b,r4
   00A3 02s01r01            235 	ljmp	_timeBomb_destructor2
                            236 ;------------------------------------------------------------
                            237 ;Allocation info for local variables in function 'timeBomb_getHistoryArraySize'
                            238 ;------------------------------------------------------------
                            239 ;------------------------------------------------------------
                            240 ;	../sm_test_timeBomb.c:32: END_STATE_MACHINE_DEFINITION() ;
                            241 ;	-----------------------------------------
                            242 ;	 function timeBomb_getHistoryArraySize
                            243 ;	-----------------------------------------
   00A6                     244 _timeBomb_getHistoryArraySize:
   00A6 90 00 08            245 	mov	dptr,#0x0008
   00A9 22                  246 	ret
                            247 ;------------------------------------------------------------
                            248 ;Allocation info for local variables in function 'timeBomb_getMachineSize'
                            249 ;------------------------------------------------------------
                            250 ;------------------------------------------------------------
                            251 ;	../sm_test_timeBomb.c:32: 
                            252 ;	-----------------------------------------
                            253 ;	 function timeBomb_getMachineSize
                            254 ;	-----------------------------------------
   00AA                     255 _timeBomb_getMachineSize:
   00AA 90 00 32            256 	mov	dptr,#0x0032
   00AD 22                  257 	ret
                            258 ;------------------------------------------------------------
                            259 ;Allocation info for local variables in function 'timeBomb_constructor2'
                            260 ;------------------------------------------------------------
                            261 ;self                      Allocated with name '_timeBomb_constructor2_self_1_1'
                            262 ;------------------------------------------------------------
                            263 ;	../sm_test_timeBomb.c:35: STATE_MACHINE_CONSTRUCTOR()
                            264 ;	-----------------------------------------
                            265 ;	 function timeBomb_constructor2
                            266 ;	-----------------------------------------
   00AE                     267 _timeBomb_constructor2:
   00AE AA F0               268 	mov	r2,b
   00B0 AB 83               269 	mov	r3,dph
   00B2 E5 82               270 	mov	a,dpl
   00B4 90s00r06            271 	mov	dptr,#_timeBomb_constructor2_self_1_1
   00B7 F0                  272 	movx	@dptr,a
   00B8 A3                  273 	inc	dptr
   00B9 EB                  274 	mov	a,r3
   00BA F0                  275 	movx	@dptr,a
   00BB A3                  276 	inc	dptr
   00BC EA                  277 	mov	a,r2
   00BD F0                  278 	movx	@dptr,a
                            279 ;	../sm_test_timeBomb.c:37: self->timeout			= config_tbINIT_TIMEOUT ;
   00BE 90s00r06            280 	mov	dptr,#_timeBomb_constructor2_self_1_1
   00C1 E0                  281 	movx	a,@dptr
   00C2 FA                  282 	mov	r2,a
   00C3 A3                  283 	inc	dptr
   00C4 E0                  284 	movx	a,@dptr
   00C5 FB                  285 	mov	r3,a
   00C6 A3                  286 	inc	dptr
   00C7 E0                  287 	movx	a,@dptr
   00C8 FC                  288 	mov	r4,a
   00C9 74 2F               289 	mov	a,#0x2F
   00CB 2A                  290 	add	a,r2
   00CC FD                  291 	mov	r5,a
   00CD E4                  292 	clr	a
   00CE 3B                  293 	addc	a,r3
   00CF FE                  294 	mov	r6,a
   00D0 8C 07               295 	mov	ar7,r4
   00D2 8D 82               296 	mov	dpl,r5
   00D4 8E 83               297 	mov	dph,r6
   00D6 8F F0               298 	mov	b,r7
   00D8 74 1E               299 	mov	a,#0x1E
   00DA 12s00r00            300 	lcall	__gptrput
                            301 ;	../sm_test_timeBomb.c:38: self->codeBeingEntered	= 0 ;
   00DD 74 30               302 	mov	a,#0x30
   00DF 2A                  303 	add	a,r2
   00E0 FD                  304 	mov	r5,a
   00E1 E4                  305 	clr	a
   00E2 3B                  306 	addc	a,r3
   00E3 FE                  307 	mov	r6,a
   00E4 8C 07               308 	mov	ar7,r4
   00E6 8D 82               309 	mov	dpl,r5
   00E8 8E 83               310 	mov	dph,r6
   00EA 8F F0               311 	mov	b,r7
   00EC E4                  312 	clr	a
   00ED 12s00r00            313 	lcall	__gptrput
                            314 ;	../sm_test_timeBomb.c:39: self->disarmCode		= 0 ;
   00F0 74 31               315 	mov	a,#0x31
   00F2 2A                  316 	add	a,r2
   00F3 FA                  317 	mov	r2,a
   00F4 E4                  318 	clr	a
   00F5 3B                  319 	addc	a,r3
   00F6 FB                  320 	mov	r3,a
   00F7 8A 82               321 	mov	dpl,r2
   00F9 8B 83               322 	mov	dph,r3
   00FB 8C F0               323 	mov	b,r4
   00FD E4                  324 	clr	a
   00FE 02s00r00            325 	ljmp	__gptrput
                            326 ;------------------------------------------------------------
                            327 ;Allocation info for local variables in function 'timeBomb_destructor2'
                            328 ;------------------------------------------------------------
                            329 ;self                      Allocated with name '_timeBomb_destructor2_self_1_1'
                            330 ;------------------------------------------------------------
                            331 ;	../sm_test_timeBomb.c:43: STATE_MACHINE_DESTRUCTOR()
                            332 ;	-----------------------------------------
                            333 ;	 function timeBomb_destructor2
                            334 ;	-----------------------------------------
   0101                     335 _timeBomb_destructor2:
                            336 ;	../sm_test_timeBomb.c:45: (void)self ;	/* Nothing to do here */
   0101 22                  337 	ret
                            338 ;------------------------------------------------------------
                            339 ;Allocation info for local variables in function 'updateDisplay'
                            340 ;------------------------------------------------------------
                            341 ;value                     Allocated with name '_updateDisplay_value_1_1'
                            342 ;------------------------------------------------------------
                            343 ;	../sm_test_timeBomb.c:49: void updateDisplay(	uint8_t value)
                            344 ;	-----------------------------------------
                            345 ;	 function updateDisplay
                            346 ;	-----------------------------------------
   0102                     347 _updateDisplay:
                            348 ;	../sm_test_timeBomb.c:51: (void)value ;
   0102 22                  349 	ret
                            350 ;------------------------------------------------------------
                            351 ;Allocation info for local variables in function 'goBOOM'
                            352 ;------------------------------------------------------------
                            353 ;------------------------------------------------------------
                            354 ;	../sm_test_timeBomb.c:55: void goBOOM(		void)
                            355 ;	-----------------------------------------
                            356 ;	 function goBOOM
                            357 ;	-----------------------------------------
   0103                     358 _goBOOM:
                            359 ;	../sm_test_timeBomb.c:57: }
   0103 22                  360 	ret
                            361 ;------------------------------------------------------------
                            362 ;Allocation info for local variables in function 'timeBomb_TOP_handler'
                            363 ;------------------------------------------------------------
                            364 ;event                     Allocated to stack - offset -5
                            365 ;self                      Allocated to registers r2 r3 r4 
                            366 ;stateResponseCode         Allocated to registers 
                            367 ;------------------------------------------------------------
                            368 ;	../sm_test_timeBomb.c:60: DEFINE_TOP_STATE()
                            369 ;	-----------------------------------------
                            370 ;	 function timeBomb_TOP_handler
                            371 ;	-----------------------------------------
   0104                     372 _timeBomb_TOP_handler:
   0104 C0*00               373 	push	_bp
   0106 85 81*00            374 	mov	_bp,sp
   0109 AA 82               375 	mov	r2,dpl
   010B AB 83               376 	mov	r3,dph
   010D AC F0               377 	mov	r4,b
                            378 ;	../sm_test_timeBomb.c:62: INITIAL_TRANSITION(TO(setting), NO_ACTION) ;
   010F E5*00               379 	mov	a,_bp
   0111 24 FB               380 	add	a,#0xfb
   0113 F8                  381 	mov	r0,a
   0114 86 05               382 	mov	ar5,@r0
   0116 08                  383 	inc	r0
   0117 86 06               384 	mov	ar6,@r0
   0119 08                  385 	inc	r0
   011A 86 07               386 	mov	ar7,@r0
   011C 8D 82               387 	mov	dpl,r5
   011E 8E 83               388 	mov	dph,r6
   0120 8F F0               389 	mov	b,r7
   0122 12s00r00            390 	lcall	__gptrget
   0125 FD                  391 	mov	r5,a
   0126 BD 02 23            392 	cjne	r5,#0x02,00102$
   0129 74 08               393 	mov	a,#0x08
   012B 2A                  394 	add	a,r2
   012C FA                  395 	mov	r2,a
   012D E4                  396 	clr	a
   012E 3B                  397 	addc	a,r3
   012F FB                  398 	mov	r3,a
   0130 8A 82               399 	mov	dpl,r2
   0132 8B 83               400 	mov	dph,r3
   0134 8C F0               401 	mov	b,r4
   0136 74r09               402 	mov	a,#_timeBomb_setting
   0138 12s00r00            403 	lcall	__gptrput
   013B A3                  404 	inc	dptr
   013C 74s00               405 	mov	a,#(_timeBomb_setting >> 8)
   013E 12s00r00            406 	lcall	__gptrput
   0141 A3                  407 	inc	dptr
   0142 74 80               408 	mov	a,#0x80
   0144 12s00r00            409 	lcall	__gptrput
   0147 75 82 02            410 	mov	dpl,#0x02
   014A 80 0B               411 	sjmp	00106$
   014C                     412 00102$:
                            413 ;	../sm_test_timeBomb.c:64: HANDLE_STATE_EVENTS
   014C BD 07 05            414 	cjne	r5,#0x07,00105$
                            415 ;	../sm_test_timeBomb.c:70: EXIT_HANDLED
   014F 75 82 01            416 	mov	dpl,#0x01
                            417 ;	../sm_test_timeBomb.c:72: HANDLE_STATE_EVENTS_DONE
   0152 80 03               418 	sjmp	00106$
   0154                     419 00105$:
                            420 ;	../sm_test_timeBomb.c:74: END_DEFINE_STATE()
   0154 75 82 00            421 	mov	dpl,#0x00
   0157                     422 00106$:
   0157 D0*00               423 	pop	_bp
   0159 22                  424 	ret
                            425 ;------------------------------------------------------------
                            426 ;Allocation info for local variables in function 'timeBomb_setting_handler'
                            427 ;------------------------------------------------------------
                            428 ;event                     Allocated to stack - offset -5
                            429 ;self                      Allocated to stack - offset 1
                            430 ;stateResponseCode         Allocated to registers 
                            431 ;------------------------------------------------------------
                            432 ;	../sm_test_timeBomb.c:77: DEFINE_STATE(setting)
                            433 ;	-----------------------------------------
                            434 ;	 function timeBomb_setting_handler
                            435 ;	-----------------------------------------
   015A                     436 _timeBomb_setting_handler:
   015A C0*00               437 	push	_bp
   015C 85 81*00            438 	mov	_bp,sp
   015F C0 82               439 	push	dpl
   0161 C0 83               440 	push	dph
   0163 C0 F0               441 	push	b
                            442 ;	../sm_test_timeBomb.c:79: TRANSITION_ON(ARM, TO(timing), ACTION(self->codeBeingEntered = 0)) ;
   0165 E5*00               443 	mov	a,_bp
   0167 24 FB               444 	add	a,#0xfb
   0169 F8                  445 	mov	r0,a
   016A 86 05               446 	mov	ar5,@r0
   016C 08                  447 	inc	r0
   016D 86 06               448 	mov	ar6,@r0
   016F 08                  449 	inc	r0
   0170 86 07               450 	mov	ar7,@r0
   0172 8D 82               451 	mov	dpl,r5
   0174 8E 83               452 	mov	dph,r6
   0176 8F F0               453 	mov	b,r7
   0178 12s00r00            454 	lcall	__gptrget
   017B FD                  455 	mov	r5,a
   017C BD 0A 42            456 	cjne	r5,#0x0A,00102$
   017F A8*00               457 	mov	r0,_bp
   0181 08                  458 	inc	r0
   0182 74 30               459 	mov	a,#0x30
   0184 26                  460 	add	a,@r0
   0185 FE                  461 	mov	r6,a
   0186 E4                  462 	clr	a
   0187 08                  463 	inc	r0
   0188 36                  464 	addc	a,@r0
   0189 FF                  465 	mov	r7,a
   018A 08                  466 	inc	r0
   018B 86 02               467 	mov	ar2,@r0
   018D 8E 82               468 	mov	dpl,r6
   018F 8F 83               469 	mov	dph,r7
   0191 8A F0               470 	mov	b,r2
   0193 E4                  471 	clr	a
   0194 12s00r00            472 	lcall	__gptrput
   0197 A8*00               473 	mov	r0,_bp
   0199 08                  474 	inc	r0
   019A 74 08               475 	mov	a,#0x08
   019C 26                  476 	add	a,@r0
   019D FA                  477 	mov	r2,a
   019E E4                  478 	clr	a
   019F 08                  479 	inc	r0
   01A0 36                  480 	addc	a,@r0
   01A1 FB                  481 	mov	r3,a
   01A2 08                  482 	inc	r0
   01A3 86 04               483 	mov	ar4,@r0
   01A5 8A 82               484 	mov	dpl,r2
   01A7 8B 83               485 	mov	dph,r3
   01A9 8C F0               486 	mov	b,r4
   01AB 74r12               487 	mov	a,#_timeBomb_timing
   01AD 12s00r00            488 	lcall	__gptrput
   01B0 A3                  489 	inc	dptr
   01B1 74s00               490 	mov	a,#(_timeBomb_timing >> 8)
   01B3 12s00r00            491 	lcall	__gptrput
   01B6 A3                  492 	inc	dptr
   01B7 74 80               493 	mov	a,#0x80
   01B9 12s00r00            494 	lcall	__gptrput
   01BC 75 82 02            495 	mov	dpl,#0x02
   01BF 80 70               496 	sjmp	00111$
   01C1                     497 00102$:
                            498 ;	../sm_test_timeBomb.c:81: HANDLE_STATE_EVENTS
   01C1 BD 08 02            499 	cjne	r5,#0x08,00120$
   01C4 80 05               500 	sjmp	00103$
   01C6                     501 00120$:
                            502 ;	../sm_test_timeBomb.c:83: EVENT(UP)
   01C6 BD 09 65            503 	cjne	r5,#0x09,00110$
   01C9 80 32               504 	sjmp	00106$
   01CB                     505 00103$:
                            506 ;	../sm_test_timeBomb.c:85: if(self->timeout < 60)
   01CB A8*00               507 	mov	r0,_bp
   01CD 08                  508 	inc	r0
   01CE 74 2F               509 	mov	a,#0x2F
   01D0 26                  510 	add	a,@r0
   01D1 FA                  511 	mov	r2,a
   01D2 E4                  512 	clr	a
   01D3 08                  513 	inc	r0
   01D4 36                  514 	addc	a,@r0
   01D5 FB                  515 	mov	r3,a
   01D6 08                  516 	inc	r0
   01D7 86 04               517 	mov	ar4,@r0
   01D9 8A 82               518 	mov	dpl,r2
   01DB 8B 83               519 	mov	dph,r3
   01DD 8C F0               520 	mov	b,r4
   01DF 12s00r00            521 	lcall	__gptrget
   01E2 FD                  522 	mov	r5,a
   01E3 BD 3C 00            523 	cjne	r5,#0x3C,00122$
   01E6                     524 00122$:
   01E6 50 10               525 	jnc	00105$
                            526 ;	../sm_test_timeBomb.c:87: self->timeout++ ;
   01E8 0D                  527 	inc	r5
   01E9 8A 82               528 	mov	dpl,r2
   01EB 8B 83               529 	mov	dph,r3
   01ED 8C F0               530 	mov	b,r4
   01EF ED                  531 	mov	a,r5
   01F0 12s00r00            532 	lcall	__gptrput
                            533 ;	../sm_test_timeBomb.c:89: updateDisplay(self->timeout) ;
   01F3 8D 82               534 	mov	dpl,r5
   01F5 12s01r02            535 	lcall	_updateDisplay
   01F8                     536 00105$:
                            537 ;	../sm_test_timeBomb.c:92: EVENT_HANDLED
   01F8 75 82 01            538 	mov	dpl,#0x01
                            539 ;	../sm_test_timeBomb.c:94: EVENT(DOWN)
   01FB 80 34               540 	sjmp	00111$
   01FD                     541 00106$:
                            542 ;	../sm_test_timeBomb.c:96: if(self->timeout > 1)
   01FD A8*00               543 	mov	r0,_bp
   01FF 08                  544 	inc	r0
   0200 74 2F               545 	mov	a,#0x2F
   0202 26                  546 	add	a,@r0
   0203 FA                  547 	mov	r2,a
   0204 E4                  548 	clr	a
   0205 08                  549 	inc	r0
   0206 36                  550 	addc	a,@r0
   0207 FB                  551 	mov	r3,a
   0208 08                  552 	inc	r0
   0209 86 04               553 	mov	ar4,@r0
   020B 8A 82               554 	mov	dpl,r2
   020D 8B 83               555 	mov	dph,r3
   020F 8C F0               556 	mov	b,r4
   0211 12s00r00            557 	lcall	__gptrget
   0214 FD                  558 	mov  r5,a
   0215 24 FE               559 	add	a,#0xff - 0x01
   0217 50 10               560 	jnc	00108$
                            561 ;	../sm_test_timeBomb.c:98: self->timeout-- ;
   0219 1D                  562 	dec	r5
   021A 8A 82               563 	mov	dpl,r2
   021C 8B 83               564 	mov	dph,r3
   021E 8C F0               565 	mov	b,r4
   0220 ED                  566 	mov	a,r5
   0221 12s00r00            567 	lcall	__gptrput
                            568 ;	../sm_test_timeBomb.c:100: updateDisplay(self->timeout) ;
   0224 8D 82               569 	mov	dpl,r5
   0226 12s01r02            570 	lcall	_updateDisplay
   0229                     571 00108$:
                            572 ;	../sm_test_timeBomb.c:103: EVENT_HANDLED
   0229 75 82 01            573 	mov	dpl,#0x01
                            574 ;	../sm_test_timeBomb.c:105: HANDLE_STATE_EVENTS_DONE
   022C 80 03               575 	sjmp	00111$
   022E                     576 00110$:
                            577 ;	../sm_test_timeBomb.c:107: END_DEFINE_STATE()
   022E 75 82 00            578 	mov	dpl,#0x00
   0231                     579 00111$:
   0231 85*00 81            580 	mov	sp,_bp
   0234 D0*00               581 	pop	_bp
   0236 22                  582 	ret
                            583 ;------------------------------------------------------------
                            584 ;Allocation info for local variables in function 'timeBomb_timing_handler'
                            585 ;------------------------------------------------------------
                            586 ;event                     Allocated to stack - offset -5
                            587 ;self                      Allocated to stack - offset 1
                            588 ;stateResponseCode         Allocated to registers 
                            589 ;------------------------------------------------------------
                            590 ;	../sm_test_timeBomb.c:110: DEFINE_STATE(timing)
                            591 ;	-----------------------------------------
                            592 ;	 function timeBomb_timing_handler
                            593 ;	-----------------------------------------
   0237                     594 _timeBomb_timing_handler:
   0237 C0*00               595 	push	_bp
   0239 85 81*00            596 	mov	_bp,sp
   023C C0 82               597 	push	dpl
   023E C0 83               598 	push	dph
   0240 C0 F0               599 	push	b
                            600 ;	../sm_test_timeBomb.c:112: TRANSITION_ON_IF(ARM, self->codeBeingEntered == self->disarmCode, TO(setting), ACTION(updateDisplay(self->timeout))) ;
   0242 E5*00               601 	mov	a,_bp
   0244 24 FB               602 	add	a,#0xfb
   0246 F8                  603 	mov	r0,a
   0247 86 05               604 	mov	ar5,@r0
   0249 08                  605 	inc	r0
   024A 86 06               606 	mov	ar6,@r0
   024C 08                  607 	inc	r0
   024D 86 07               608 	mov	ar7,@r0
   024F 8D 82               609 	mov	dpl,r5
   0251 8E 83               610 	mov	dph,r6
   0253 8F F0               611 	mov	b,r7
   0255 12s00r00            612 	lcall	__gptrget
   0258 FD                  613 	mov	r5,a
   0259 BD 0A 02            614 	cjne	r5,#0x0A,00116$
   025C 80 03               615 	sjmp	00117$
   025E                     616 00116$:
   025E 02s02rE6            617 	ljmp	00102$
   0261                     618 00117$:
   0261 C0 05               619 	push	ar5
   0263 A8*00               620 	mov	r0,_bp
   0265 08                  621 	inc	r0
   0266 74 30               622 	mov	a,#0x30
   0268 26                  623 	add	a,@r0
   0269 FE                  624 	mov	r6,a
   026A E4                  625 	clr	a
   026B 08                  626 	inc	r0
   026C 36                  627 	addc	a,@r0
   026D FF                  628 	mov	r7,a
   026E 08                  629 	inc	r0
   026F 86 05               630 	mov	ar5,@r0
   0271 8E 82               631 	mov	dpl,r6
   0273 8F 83               632 	mov	dph,r7
   0275 8D F0               633 	mov	b,r5
   0277 12s00r00            634 	lcall	__gptrget
   027A FE                  635 	mov	r6,a
   027B A8*00               636 	mov	r0,_bp
   027D 08                  637 	inc	r0
   027E 74 31               638 	mov	a,#0x31
   0280 26                  639 	add	a,@r0
   0281 FD                  640 	mov	r5,a
   0282 E4                  641 	clr	a
   0283 08                  642 	inc	r0
   0284 36                  643 	addc	a,@r0
   0285 FF                  644 	mov	r7,a
   0286 08                  645 	inc	r0
   0287 86 02               646 	mov	ar2,@r0
   0289 8D 82               647 	mov	dpl,r5
   028B 8F 83               648 	mov	dph,r7
   028D 8A F0               649 	mov	b,r2
   028F 12s00r00            650 	lcall	__gptrget
   0292 FD                  651 	mov	r5,a
   0293 EE                  652 	mov	a,r6
   0294 B5 05 02            653 	cjne	a,ar5,00118$
   0297 80 04               654 	sjmp	00119$
   0299                     655 00118$:
   0299 D0 05               656 	pop	ar5
   029B 80 49               657 	sjmp	00102$
   029D                     658 00119$:
   029D D0 05               659 	pop	ar5
   029F A8*00               660 	mov	r0,_bp
   02A1 08                  661 	inc	r0
   02A2 74 2F               662 	mov	a,#0x2F
   02A4 26                  663 	add	a,@r0
   02A5 FA                  664 	mov	r2,a
   02A6 E4                  665 	clr	a
   02A7 08                  666 	inc	r0
   02A8 36                  667 	addc	a,@r0
   02A9 FB                  668 	mov	r3,a
   02AA 08                  669 	inc	r0
   02AB 86 04               670 	mov	ar4,@r0
   02AD 8A 82               671 	mov	dpl,r2
   02AF 8B 83               672 	mov	dph,r3
   02B1 8C F0               673 	mov	b,r4
   02B3 12s00r00            674 	lcall	__gptrget
   02B6 F5 82               675 	mov	dpl,a
   02B8 12s01r02            676 	lcall	_updateDisplay
   02BB A8*00               677 	mov	r0,_bp
   02BD 08                  678 	inc	r0
   02BE 74 08               679 	mov	a,#0x08
   02C0 26                  680 	add	a,@r0
   02C1 FA                  681 	mov	r2,a
   02C2 E4                  682 	clr	a
   02C3 08                  683 	inc	r0
   02C4 36                  684 	addc	a,@r0
   02C5 FB                  685 	mov	r3,a
   02C6 08                  686 	inc	r0
   02C7 86 04               687 	mov	ar4,@r0
   02C9 8A 82               688 	mov	dpl,r2
   02CB 8B 83               689 	mov	dph,r3
   02CD 8C F0               690 	mov	b,r4
   02CF 74r09               691 	mov	a,#_timeBomb_setting
   02D1 12s00r00            692 	lcall	__gptrput
   02D4 A3                  693 	inc	dptr
   02D5 74s00               694 	mov	a,#(_timeBomb_setting >> 8)
   02D7 12s00r00            695 	lcall	__gptrput
   02DA A3                  696 	inc	dptr
   02DB 74 80               697 	mov	a,#0x80
   02DD 12s00r00            698 	lcall	__gptrput
   02E0 75 82 02            699 	mov	dpl,#0x02
   02E3 02s03rAB            700 	ljmp	00109$
   02E6                     701 00102$:
                            702 ;	../sm_test_timeBomb.c:114: HANDLE_STATE_EVENTS
   02E6 BD 08 02            703 	cjne	r5,#0x08,00120$
   02E9 80 0D               704 	sjmp	00104$
   02EB                     705 00120$:
   02EB BD 09 02            706 	cjne	r5,#0x09,00121$
   02EE 80 3E               707 	sjmp	00105$
   02F0                     708 00121$:
   02F0 BD 0B 02            709 	cjne	r5,#0x0B,00122$
   02F3 80 61               710 	sjmp	00106$
   02F5                     711 00122$:
   02F5 02s03rA8            712 	ljmp	00108$
                            713 ;	../sm_test_timeBomb.c:116: EVENT(UP)
   02F8                     714 00104$:
                            715 ;	../sm_test_timeBomb.c:118: self->codeBeingEntered <<= 1 ;
   02F8 A8*00               716 	mov	r0,_bp
   02FA 08                  717 	inc	r0
   02FB 74 30               718 	mov	a,#0x30
   02FD 26                  719 	add	a,@r0
   02FE FA                  720 	mov	r2,a
   02FF E4                  721 	clr	a
   0300 08                  722 	inc	r0
   0301 36                  723 	addc	a,@r0
   0302 FB                  724 	mov	r3,a
   0303 08                  725 	inc	r0
   0304 86 04               726 	mov	ar4,@r0
   0306 8A 82               727 	mov	dpl,r2
   0308 8B 83               728 	mov	dph,r3
   030A 8C F0               729 	mov	b,r4
   030C 12s00r00            730 	lcall	__gptrget
   030F 25 E0               731 	add	a,acc
   0311 FD                  732 	mov	r5,a
   0312 8A 82               733 	mov	dpl,r2
   0314 8B 83               734 	mov	dph,r3
   0316 8C F0               735 	mov	b,r4
   0318 12s00r00            736 	lcall	__gptrput
                            737 ;	../sm_test_timeBomb.c:119: self->codeBeingEntered |= 1 ;
   031B 43 05 01            738 	orl	ar5,#0x01
   031E 8A 82               739 	mov	dpl,r2
   0320 8B 83               740 	mov	dph,r3
   0322 8C F0               741 	mov	b,r4
   0324 ED                  742 	mov	a,r5
   0325 12s00r00            743 	lcall	__gptrput
                            744 ;	../sm_test_timeBomb.c:121: EVENT_HANDLED
   0328 75 82 01            745 	mov	dpl,#0x01
   032B 02s03rAB            746 	ljmp	00109$
                            747 ;	../sm_test_timeBomb.c:123: EVENT(DOWN)
   032E                     748 00105$:
                            749 ;	../sm_test_timeBomb.c:125: self->codeBeingEntered <<= 1 ;
   032E A8*00               750 	mov	r0,_bp
   0330 08                  751 	inc	r0
   0331 74 30               752 	mov	a,#0x30
   0333 26                  753 	add	a,@r0
   0334 FA                  754 	mov	r2,a
   0335 E4                  755 	clr	a
   0336 08                  756 	inc	r0
   0337 36                  757 	addc	a,@r0
   0338 FB                  758 	mov	r3,a
   0339 08                  759 	inc	r0
   033A 86 04               760 	mov	ar4,@r0
   033C 8A 82               761 	mov	dpl,r2
   033E 8B 83               762 	mov	dph,r3
   0340 8C F0               763 	mov	b,r4
   0342 12s00r00            764 	lcall	__gptrget
   0345 25 E0               765 	add	a,acc
   0347 FD                  766 	mov	r5,a
   0348 8A 82               767 	mov	dpl,r2
   034A 8B 83               768 	mov	dph,r3
   034C 8C F0               769 	mov	b,r4
   034E 12s00r00            770 	lcall	__gptrput
                            771 ;	../sm_test_timeBomb.c:127: EVENT_HANDLED
   0351 75 82 01            772 	mov	dpl,#0x01
                            773 ;	../sm_test_timeBomb.c:129: EVENT(TICK)
   0354 80 55               774 	sjmp	00109$
   0356                     775 00106$:
                            776 ;	../sm_test_timeBomb.c:131: self->timeout-- ;
   0356 A8*00               777 	mov	r0,_bp
   0358 08                  778 	inc	r0
   0359 74 2F               779 	mov	a,#0x2F
   035B 26                  780 	add	a,@r0
   035C FA                  781 	mov	r2,a
   035D E4                  782 	clr	a
   035E 08                  783 	inc	r0
   035F 36                  784 	addc	a,@r0
   0360 FB                  785 	mov	r3,a
   0361 08                  786 	inc	r0
   0362 86 04               787 	mov	ar4,@r0
   0364 8A 82               788 	mov	dpl,r2
   0366 8B 83               789 	mov	dph,r3
   0368 8C F0               790 	mov	b,r4
   036A 12s00r00            791 	lcall	__gptrget
   036D FD                  792 	mov	r5,a
   036E 1D                  793 	dec	r5
   036F 8A 82               794 	mov	dpl,r2
   0371 8B 83               795 	mov	dph,r3
   0373 8C F0               796 	mov	b,r4
   0375 ED                  797 	mov	a,r5
   0376 12s00r00            798 	lcall	__gptrput
                            799 ;	../sm_test_timeBomb.c:133: TRANSITION_TO(isTimeToGoBoom, updateDisplay(self->timeout)) ;
   0379 8D 82               800 	mov	dpl,r5
   037B 12s01r02            801 	lcall	_updateDisplay
   037E A8*00               802 	mov	r0,_bp
   0380 08                  803 	inc	r0
   0381 74 08               804 	mov	a,#0x08
   0383 26                  805 	add	a,@r0
   0384 FA                  806 	mov	r2,a
   0385 E4                  807 	clr	a
   0386 08                  808 	inc	r0
   0387 36                  809 	addc	a,@r0
   0388 FB                  810 	mov	r3,a
   0389 08                  811 	inc	r0
   038A 86 04               812 	mov	ar4,@r0
   038C 8A 82               813 	mov	dpl,r2
   038E 8B 83               814 	mov	dph,r3
   0390 8C F0               815 	mov	b,r4
   0392 74r1B               816 	mov	a,#_timeBomb_isTimeToGoBoom
   0394 12s00r00            817 	lcall	__gptrput
   0397 A3                  818 	inc	dptr
   0398 74s00               819 	mov	a,#(_timeBomb_isTimeToGoBoom >> 8)
   039A 12s00r00            820 	lcall	__gptrput
   039D A3                  821 	inc	dptr
   039E 74 80               822 	mov	a,#0x80
   03A0 12s00r00            823 	lcall	__gptrput
   03A3 75 82 02            824 	mov	dpl,#0x02
                            825 ;	../sm_test_timeBomb.c:137: HANDLE_STATE_EVENTS_DONE
   03A6 80 03               826 	sjmp	00109$
   03A8                     827 00108$:
                            828 ;	../sm_test_timeBomb.c:139: END_DEFINE_STATE()
   03A8 75 82 00            829 	mov	dpl,#0x00
   03AB                     830 00109$:
   03AB 85*00 81            831 	mov	sp,_bp
   03AE D0*00               832 	pop	_bp
   03B0 22                  833 	ret
                            834 ;------------------------------------------------------------
                            835 ;Allocation info for local variables in function 'timeBomb_isTimeToGoBoom_handler'
                            836 ;------------------------------------------------------------
                            837 ;self                      Allocated to registers r2 r3 r4 
                            838 ;stateResponseCode         Allocated to registers 
                            839 ;------------------------------------------------------------
                            840 ;	../sm_test_timeBomb.c:142: DEFINE_CHOICE_PSEUDO_STATE(	isTimeToGoBoom,
                            841 ;	-----------------------------------------
                            842 ;	 function timeBomb_isTimeToGoBoom_handler
                            843 ;	-----------------------------------------
   03B1                     844 _timeBomb_isTimeToGoBoom_handler:
   03B1 AA 82               845 	mov	r2,dpl
   03B3 AB 83               846 	mov	r3,dph
   03B5 AC F0               847 	mov	r4,b
   03B7 74 2F               848 	mov	a,#0x2F
   03B9 2A                  849 	add	a,r2
   03BA FD                  850 	mov	r5,a
   03BB E4                  851 	clr	a
   03BC 3B                  852 	addc	a,r3
   03BD FE                  853 	mov	r6,a
   03BE 8C 07               854 	mov	ar7,r4
   03C0 8D 82               855 	mov	dpl,r5
   03C2 8E 83               856 	mov	dph,r6
   03C4 8F F0               857 	mov	b,r7
   03C6 12s00r00            858 	lcall	__gptrget
   03C9 70 31               859 	jnz	00102$
   03CB C0 02               860 	push	ar2
   03CD C0 03               861 	push	ar3
   03CF C0 04               862 	push	ar4
   03D1 12s01r03            863 	lcall	_goBOOM
   03D4 D0 04               864 	pop	ar4
   03D6 D0 03               865 	pop	ar3
   03D8 D0 02               866 	pop	ar2
   03DA 74 08               867 	mov	a,#0x08
   03DC 2A                  868 	add	a,r2
   03DD FD                  869 	mov	r5,a
   03DE E4                  870 	clr	a
   03DF 3B                  871 	addc	a,r3
   03E0 FE                  872 	mov	r6,a
   03E1 8C 07               873 	mov	ar7,r4
   03E3 8D 82               874 	mov	dpl,r5
   03E5 8E 83               875 	mov	dph,r6
   03E7 8F F0               876 	mov	b,r7
   03E9 74r00               877 	mov	a,#_timeBomb_TOP
   03EB 12s00r00            878 	lcall	__gptrput
   03EE A3                  879 	inc	dptr
   03EF 74s00               880 	mov	a,#(_timeBomb_TOP >> 8)
   03F1 12s00r00            881 	lcall	__gptrput
   03F4 A3                  882 	inc	dptr
   03F5 74 80               883 	mov	a,#0x80
   03F7 12s00r00            884 	lcall	__gptrput
   03FA 80 1E               885 	sjmp	00103$
   03FC                     886 00102$:
   03FC 74 08               887 	mov	a,#0x08
   03FE 2A                  888 	add	a,r2
   03FF FA                  889 	mov	r2,a
   0400 E4                  890 	clr	a
   0401 3B                  891 	addc	a,r3
   0402 FB                  892 	mov	r3,a
   0403 8A 82               893 	mov	dpl,r2
   0405 8B 83               894 	mov	dph,r3
   0407 8C F0               895 	mov	b,r4
   0409 74r12               896 	mov	a,#_timeBomb_timing
   040B 12s00r00            897 	lcall	__gptrput
   040E A3                  898 	inc	dptr
   040F 74s00               899 	mov	a,#(_timeBomb_timing >> 8)
   0411 12s00r00            900 	lcall	__gptrput
   0414 A3                  901 	inc	dptr
   0415 74 80               902 	mov	a,#0x80
   0417 12s00r00            903 	lcall	__gptrput
   041A                     904 00103$:
   041A 75 82 02            905 	mov	dpl,#0x02
   041D 22                  906 	ret
                            907 	.area CSEG    (CODE)
                            908 	.area CONST   (CODE)
   0000                     909 _timeBomb_TOP:
                            910 ; generic printIvalPtr
   0000 00 00 00            911 	.byte #0x00,#0x00,#0x00
   0003 00                  912 	.db #0x00
   0004r04s01               913 	.byte _timeBomb_TOP_handler,(_timeBomb_TOP_handler >> 8)
   0006r2Ds00 80            914 	.byte _str_1,(_str_1 >> 8),#0x80
   0009                     915 _timeBomb_setting:
   0009r00s00 80            916 	.byte _timeBomb_TOP,(_timeBomb_TOP >> 8),#0x80
   000C 00                  917 	.db #0x00
   000Dr5As01               918 	.byte _timeBomb_setting_handler,(_timeBomb_setting_handler >> 8)
   000Fr3As00 80            919 	.byte _str_2,(_str_2 >> 8),#0x80
   0012                     920 _timeBomb_timing:
   0012r00s00 80            921 	.byte _timeBomb_TOP,(_timeBomb_TOP >> 8),#0x80
   0015 00                  922 	.db #0x00
   0016r37s02               923 	.byte _timeBomb_timing_handler,(_timeBomb_timing_handler >> 8)
   0018r4Bs00 80            924 	.byte _str_3,(_str_3 >> 8),#0x80
   001B                     925 _timeBomb_isTimeToGoBoom:
   001Br00s00 80            926 	.byte _timeBomb_TOP,(_timeBomb_TOP >> 8),#0x80
   001E 01                  927 	.db #0x01
   001FrB1s03               928 	.byte _timeBomb_isTimeToGoBoom_handler,(_timeBomb_isTimeToGoBoom_handler >> 8)
   0021r5Bs00 80            929 	.byte _str_4,(_str_4 >> 8),#0x80
   0024                     930 __str_0:
   0024 74 69 6D 65 42 6F   931 	.ascii "timeBomb"
        6D 62
   002C 00                  932 	.db 0x00
   002D                     933 _str_1:
   002D 74 69 6D 65 42 6F   934 	.ascii "timeBomb_TOP"
        6D 62 5F 54 4F 50
   0039 00                  935 	.db 0x00
   003A                     936 _str_2:
   003A 74 69 6D 65 42 6F   937 	.ascii "timeBomb_setting"
        6D 62 5F 73 65 74
        74 69 6E 67
   004A 00                  938 	.db 0x00
   004B                     939 _str_3:
   004B 74 69 6D 65 42 6F   940 	.ascii "timeBomb_timing"
        6D 62 5F 74 69 6D
        69 6E 67
   005A 00                  941 	.db 0x00
   005B                     942 _str_4:
   005B 74 69 6D 65 42 6F   943 	.ascii "timeBomb_isTimeToGoBoom"
        6D 62 5F 69 73 54
        69 6D 65 54 6F 47
        6F 42 6F 6F 6D
   0072 00                  944 	.db 0x00
                            945 	.area XINIT   (CODE)
   0000                     946 __xinit__timeBomb_name:
   0000r24s00 80            947 	.byte __str_0,(__str_0 >> 8),#0x80
                            948 	.area CABS    (ABS,CODE)
