                              1 ;--------------------------------------------------------
                              2 ; File Created by SDCC : free open source ANSI-C Compiler
                              3 ; Version 2.9.0 #5416 (Mar 22 2009) (MINGW32)
                              4 ; This file was generated Sat Jan 23 00:00:25 2010
                              5 ;--------------------------------------------------------
                              6 	.module StateMachine_G4_eventQueue
                              7 	.optsdcc -mmcs51 --model-large
                              8 	
                              9 ;--------------------------------------------------------
                             10 ; Public variables in this module
                             11 ;--------------------------------------------------------
                             12 	.globl _postEventToStateMachine_PARM_2
                             13 	.globl _removeFromDeferredTypeList_PARM_2
                             14 	.globl _isEventTypeDeferred_PARM_2
                             15 	.globl _addToDeferredTypeList_PARM_2
                             16 	.globl _eventQueue_insert_PARM_2
                             17 	.globl _nextLocationFromPoint_PARM_2
                             18 	.globl _eventQueue_initialize_PARM_3
                             19 	.globl _eventQueue_initialize_PARM_2
                             20 	.globl _hsm_isEventInMask_PARM_2
                             21 	.globl _hsm_isEventInMask
                             22 	.globl _eventQueue_initialize
                             23 	.globl _eventQueue_isEmpty
                             24 	.globl _eventQueue_isFull
                             25 	.globl _eventQueue_insert
                             26 	.globl _eventQueue_remove
                             27 	.globl _addToDeferredTypeList
                             28 	.globl _isEventTypeDeferred
                             29 	.globl _removeFromDeferredTypeList
                             30 	.globl _postEventToStateMachine
                             31 ;--------------------------------------------------------
                             32 ; special function registers
                             33 ;--------------------------------------------------------
                             34 	.area RSEG    (DATA)
                             35 ;--------------------------------------------------------
                             36 ; special function bits
                             37 ;--------------------------------------------------------
                             38 	.area RSEG    (DATA)
                             39 ;--------------------------------------------------------
                             40 ; overlayable register banks
                             41 ;--------------------------------------------------------
                             42 	.area REG_BANK_0	(REL,OVR,DATA)
   0000                      43 	.ds 8
                             44 ;--------------------------------------------------------
                             45 ; internal ram data
                             46 ;--------------------------------------------------------
                             47 	.area DSEG    (DATA)
   0000                      48 _eventQueue_remove_sloc0_1_0:
   0000                      49 	.ds 3
   0003                      50 _eventQueue_remove_sloc1_1_0:
   0003                      51 	.ds 1
   0004                      52 _eventQueue_remove_sloc2_1_0:
   0004                      53 	.ds 3
   0007                      54 _removeFromDeferredTypeList_sloc0_1_0:
   0007                      55 	.ds 1
   0008                      56 _removeFromDeferredTypeList_sloc1_1_0:
   0008                      57 	.ds 1
   0009                      58 _removeFromDeferredTypeList_sloc2_1_0:
   0009                      59 	.ds 3
   000C                      60 _removeFromDeferredTypeList_sloc3_1_0:
   000C                      61 	.ds 3
   000F                      62 _removeFromDeferredTypeList_sloc4_1_0:
   000F                      63 	.ds 3
                             64 ;--------------------------------------------------------
                             65 ; overlayable items in internal ram 
                             66 ;--------------------------------------------------------
                             67 	.area OSEG    (OVR,DATA)
                             68 ;--------------------------------------------------------
                             69 ; indirectly addressable internal ram data
                             70 ;--------------------------------------------------------
                             71 	.area ISEG    (DATA)
                             72 ;--------------------------------------------------------
                             73 ; absolute internal ram data
                             74 ;--------------------------------------------------------
                             75 	.area IABS    (ABS,DATA)
                             76 	.area IABS    (ABS,DATA)
                             77 ;--------------------------------------------------------
                             78 ; bit data
                             79 ;--------------------------------------------------------
                             80 	.area BSEG    (BIT)
   0000                      81 _hsm_isEventInMask_sloc0_1_0:
   0000                      82 	.ds 1
   0001                      83 _removeFromDeferredTypeList_found_2_2:
   0001                      84 	.ds 1
   0002                      85 _postEventToStateMachine_sloc0_1_0:
   0002                      86 	.ds 1
                             87 ;--------------------------------------------------------
                             88 ; paged external ram data
                             89 ;--------------------------------------------------------
                             90 	.area PSEG    (PAG,XDATA)
                             91 ;--------------------------------------------------------
                             92 ; external ram data
                             93 ;--------------------------------------------------------
                             94 	.area XSEG    (XDATA)
   0000                      95 _hsm_isEventInMask_PARM_2:
   0000                      96 	.ds 3
   0003                      97 _hsm_isEventInMask_event_1_1:
   0003                      98 	.ds 3
   0006                      99 _eventQueue_initialize_PARM_2:
   0006                     100 	.ds 3
   0009                     101 _eventQueue_initialize_PARM_3:
   0009                     102 	.ds 1
   000A                     103 _eventQueue_initialize_Q_1_1:
   000A                     104 	.ds 3
   000D                     105 _eventQueue_isEmpty_Q_1_1:
   000D                     106 	.ds 3
   0010                     107 _eventQueue_isFull_Q_1_1:
   0010                     108 	.ds 3
   0013                     109 _nextLocationFromPoint_PARM_2:
   0013                     110 	.ds 1
   0014                     111 _nextLocationFromPoint_Q_1_1:
   0014                     112 	.ds 3
   0017                     113 _eventQueue_insert_PARM_2:
   0017                     114 	.ds 3
   001A                     115 _eventQueue_insert_Q_1_1:
   001A                     116 	.ds 3
   001D                     117 _eventQueue_remove_Q_1_1:
   001D                     118 	.ds 3
   0020                     119 _addToDeferredTypeList_PARM_2:
   0020                     120 	.ds 1
   0021                     121 _addToDeferredTypeList_sm_1_1:
   0021                     122 	.ds 3
   0024                     123 _isEventTypeDeferred_PARM_2:
   0024                     124 	.ds 1
   0025                     125 _isEventTypeDeferred_sm_1_1:
   0025                     126 	.ds 3
   0028                     127 _removeFromDeferredTypeList_PARM_2:
   0028                     128 	.ds 1
   0029                     129 _removeFromDeferredTypeList_sm_1_1:
   0029                     130 	.ds 3
   002C                     131 _removeFromDeferredTypeList_i_2_2:
   002C                     132 	.ds 1
   002D                     133 _removeFromDeferredTypeList_currentEvent_3_5:
   002D                     134 	.ds 3
   0030                     135 _postEventToStateMachine_PARM_2:
   0030                     136 	.ds 3
   0033                     137 _postEventToStateMachine_sm_1_1:
   0033                     138 	.ds 3
                            139 ;--------------------------------------------------------
                            140 ; absolute external ram data
                            141 ;--------------------------------------------------------
                            142 	.area XABS    (ABS,XDATA)
                            143 ;--------------------------------------------------------
                            144 ; external initialized ram data
                            145 ;--------------------------------------------------------
                            146 	.area XISEG   (XDATA)
                            147 	.area HOME    (CODE)
                            148 	.area GSINIT0 (CODE)
                            149 	.area GSINIT1 (CODE)
                            150 	.area GSINIT2 (CODE)
                            151 	.area GSINIT3 (CODE)
                            152 	.area GSINIT4 (CODE)
                            153 	.area GSINIT5 (CODE)
                            154 	.area GSINIT  (CODE)
                            155 	.area GSFINAL (CODE)
                            156 	.area CSEG    (CODE)
                            157 ;--------------------------------------------------------
                            158 ; global & static initialisations
                            159 ;--------------------------------------------------------
                            160 	.area HOME    (CODE)
                            161 	.area GSINIT  (CODE)
                            162 	.area GSFINAL (CODE)
                            163 	.area GSINIT  (CODE)
                            164 ;--------------------------------------------------------
                            165 ; Home
                            166 ;--------------------------------------------------------
                            167 	.area HOME    (CODE)
                            168 	.area HOME    (CODE)
                            169 ;--------------------------------------------------------
                            170 ; code
                            171 ;--------------------------------------------------------
                            172 	.area CSEG    (CODE)
                            173 ;------------------------------------------------------------
                            174 ;Allocation info for local variables in function 'hsm_isEventInMask'
                            175 ;------------------------------------------------------------
                            176 ;maskSet                   Allocated with name '_hsm_isEventInMask_PARM_2'
                            177 ;event                     Allocated with name '_hsm_isEventInMask_event_1_1'
                            178 ;eventType                 Allocated with name '_hsm_isEventInMask_eventType_1_1'
                            179 ;------------------------------------------------------------
                            180 ;	D:/EiqEnergy/Projects/Software/_SoftwareLibraries/StateMachines/StateMachine_G4_eventQueue.c:18: bool hsm_isEventInMask(	event_t* event, eventTypeBitmask_t* maskSet)
                            181 ;	-----------------------------------------
                            182 ;	 function hsm_isEventInMask
                            183 ;	-----------------------------------------
   0000                     184 _hsm_isEventInMask:
                    0002    185 	ar2 = 0x02
                    0003    186 	ar3 = 0x03
                    0004    187 	ar4 = 0x04
                    0005    188 	ar5 = 0x05
                    0006    189 	ar6 = 0x06
                    0007    190 	ar7 = 0x07
                    0000    191 	ar0 = 0x00
                    0001    192 	ar1 = 0x01
   0000 AA F0               193 	mov	r2,b
   0002 AB 83               194 	mov	r3,dph
   0004 E5 82               195 	mov	a,dpl
   0006 90s00r03            196 	mov	dptr,#_hsm_isEventInMask_event_1_1
   0009 F0                  197 	movx	@dptr,a
   000A A3                  198 	inc	dptr
   000B EB                  199 	mov	a,r3
   000C F0                  200 	movx	@dptr,a
   000D A3                  201 	inc	dptr
   000E EA                  202 	mov	a,r2
   000F F0                  203 	movx	@dptr,a
                            204 ;	D:/EiqEnergy/Projects/Software/_SoftwareLibraries/StateMachines/StateMachine_G4_eventQueue.c:20: eventType_t	eventType = hsm_getEventType(event) ;
   0010 90s00r03            205 	mov	dptr,#_hsm_isEventInMask_event_1_1
   0013 E0                  206 	movx	a,@dptr
   0014 FA                  207 	mov	r2,a
   0015 A3                  208 	inc	dptr
   0016 E0                  209 	movx	a,@dptr
   0017 FB                  210 	mov	r3,a
   0018 A3                  211 	inc	dptr
   0019 E0                  212 	movx	a,@dptr
   001A FC                  213 	mov	r4,a
   001B 8A 82               214 	mov	dpl,r2
   001D 8B 83               215 	mov	dph,r3
   001F 8C F0               216 	mov	b,r4
   0021 12s00r00            217 	lcall	__gptrget
                            218 ;	D:/EiqEnergy/Projects/Software/_SoftwareLibraries/StateMachines/StateMachine_G4_eventQueue.c:22: if(hsm_isEventInternal(event))
   0024 FA                  219 	mov  r2,a
   0025 24 F8               220 	add	a,#0xff - 0x07
                            221 ;	D:/EiqEnergy/Projects/Software/_SoftwareLibraries/StateMachines/StateMachine_G4_eventQueue.c:24: return false ;
   0027 40 01               222 	jc	00102$
   0029 22                  223 	ret
   002A                     224 00102$:
                            225 ;	D:/EiqEnergy/Projects/Software/_SoftwareLibraries/StateMachines/StateMachine_G4_eventQueue.c:28: return maskSet->mask[eventType >> 3] & (1 << (eventType & 0x07)) ;
   002A 90s00r00            226 	mov	dptr,#_hsm_isEventInMask_PARM_2
   002D E0                  227 	movx	a,@dptr
   002E FB                  228 	mov	r3,a
   002F A3                  229 	inc	dptr
   0030 E0                  230 	movx	a,@dptr
   0031 FC                  231 	mov	r4,a
   0032 A3                  232 	inc	dptr
   0033 E0                  233 	movx	a,@dptr
   0034 FD                  234 	mov	r5,a
   0035 EA                  235 	mov	a,r2
   0036 C4                  236 	swap	a
   0037 23                  237 	rl	a
   0038 54 1F               238 	anl	a,#0x1f
   003A 2B                  239 	add	a,r3
   003B FB                  240 	mov	r3,a
   003C E4                  241 	clr	a
   003D 3C                  242 	addc	a,r4
   003E FC                  243 	mov	r4,a
   003F 53 02 07            244 	anl	ar2,#0x07
   0042 8A F0               245 	mov	b,r2
   0044 05 F0               246 	inc	b
   0046 7A 01               247 	mov	r2,#0x01
   0048 7E 00               248 	mov	r6,#0x00
   004A 80 06               249 	sjmp	00108$
   004C                     250 00107$:
   004C EA                  251 	mov	a,r2
   004D 2A                  252 	add	a,r2
   004E FA                  253 	mov	r2,a
   004F EE                  254 	mov	a,r6
   0050 33                  255 	rlc	a
   0051 FE                  256 	mov	r6,a
   0052                     257 00108$:
   0052 D5 F0 F7            258 	djnz	b,00107$
   0055 8B 82               259 	mov	dpl,r3
   0057 8C 83               260 	mov	dph,r4
   0059 8D F0               261 	mov	b,r5
   005B 12s00r00            262 	lcall	__gptrget
   005E 7C 00               263 	mov	r4,#0x00
   0060 52 02               264 	anl	ar2,a
   0062 EC                  265 	mov	a,r4
   0063 52 06               266 	anl	ar6,a
   0065 EA                  267 	mov	a,r2
   0066 4E                  268 	orl	a,r6
   0067 24 FF               269 	add	a,#0xff
   0069 92*00               270 	mov  _hsm_isEventInMask_sloc0_1_0,c
   006B 22                  271 	ret
                            272 ;------------------------------------------------------------
                            273 ;Allocation info for local variables in function 'eventQueue_initialize'
                            274 ;------------------------------------------------------------
                            275 ;storage                   Allocated with name '_eventQueue_initialize_PARM_2'
                            276 ;maxEntriesInQueue         Allocated with name '_eventQueue_initialize_PARM_3'
                            277 ;Q                         Allocated with name '_eventQueue_initialize_Q_1_1'
                            278 ;------------------------------------------------------------
                            279 ;	D:/EiqEnergy/Projects/Software/_SoftwareLibraries/StateMachines/StateMachine_G4_eventQueue.c:42: bool eventQueue_initialize(	eventQueue_t* Q, event_t** storage, eventQueueIndex_t maxEntriesInQueue)
                            280 ;	-----------------------------------------
                            281 ;	 function eventQueue_initialize
                            282 ;	-----------------------------------------
   006C                     283 _eventQueue_initialize:
   006C AA F0               284 	mov	r2,b
   006E AB 83               285 	mov	r3,dph
   0070 E5 82               286 	mov	a,dpl
   0072 90s00r0A            287 	mov	dptr,#_eventQueue_initialize_Q_1_1
   0075 F0                  288 	movx	@dptr,a
   0076 A3                  289 	inc	dptr
   0077 EB                  290 	mov	a,r3
   0078 F0                  291 	movx	@dptr,a
   0079 A3                  292 	inc	dptr
   007A EA                  293 	mov	a,r2
   007B F0                  294 	movx	@dptr,a
                            295 ;	D:/EiqEnergy/Projects/Software/_SoftwareLibraries/StateMachines/StateMachine_G4_eventQueue.c:44: Q->Capacity	= maxEntriesInQueue ;
   007C 90s00r0A            296 	mov	dptr,#_eventQueue_initialize_Q_1_1
   007F E0                  297 	movx	a,@dptr
   0080 FA                  298 	mov	r2,a
   0081 A3                  299 	inc	dptr
   0082 E0                  300 	movx	a,@dptr
   0083 FB                  301 	mov	r3,a
   0084 A3                  302 	inc	dptr
   0085 E0                  303 	movx	a,@dptr
   0086 FC                  304 	mov	r4,a
   0087 90s00r09            305 	mov	dptr,#_eventQueue_initialize_PARM_3
   008A E0                  306 	movx	a,@dptr
   008B 8A 82               307 	mov	dpl,r2
   008D 8B 83               308 	mov	dph,r3
   008F 8C F0               309 	mov	b,r4
   0091 12s00r00            310 	lcall	__gptrput
                            311 ;	D:/EiqEnergy/Projects/Software/_SoftwareLibraries/StateMachines/StateMachine_G4_eventQueue.c:45: Q->Size		= 0 ;
   0094 74 03               312 	mov	a,#0x03
   0096 2A                  313 	add	a,r2
   0097 FD                  314 	mov	r5,a
   0098 E4                  315 	clr	a
   0099 3B                  316 	addc	a,r3
   009A FE                  317 	mov	r6,a
   009B 8C 07               318 	mov	ar7,r4
   009D 8D 82               319 	mov	dpl,r5
   009F 8E 83               320 	mov	dph,r6
   00A1 8F F0               321 	mov	b,r7
   00A3 E4                  322 	clr	a
   00A4 12s00r00            323 	lcall	__gptrput
                            324 ;	D:/EiqEnergy/Projects/Software/_SoftwareLibraries/StateMachines/StateMachine_G4_eventQueue.c:46: Q->Front	= 1 ;
   00A7 74 01               325 	mov	a,#0x01
   00A9 2A                  326 	add	a,r2
   00AA FD                  327 	mov	r5,a
   00AB E4                  328 	clr	a
   00AC 3B                  329 	addc	a,r3
   00AD FE                  330 	mov	r6,a
   00AE 8C 07               331 	mov	ar7,r4
   00B0 8D 82               332 	mov	dpl,r5
   00B2 8E 83               333 	mov	dph,r6
   00B4 8F F0               334 	mov	b,r7
   00B6 74 01               335 	mov	a,#0x01
   00B8 12s00r00            336 	lcall	__gptrput
                            337 ;	D:/EiqEnergy/Projects/Software/_SoftwareLibraries/StateMachines/StateMachine_G4_eventQueue.c:47: Q->Rear		= 0 ;
   00BB 74 02               338 	mov	a,#0x02
   00BD 2A                  339 	add	a,r2
   00BE FD                  340 	mov	r5,a
   00BF E4                  341 	clr	a
   00C0 3B                  342 	addc	a,r3
   00C1 FE                  343 	mov	r6,a
   00C2 8C 07               344 	mov	ar7,r4
   00C4 8D 82               345 	mov	dpl,r5
   00C6 8E 83               346 	mov	dph,r6
   00C8 8F F0               347 	mov	b,r7
   00CA E4                  348 	clr	a
   00CB 12s00r00            349 	lcall	__gptrput
                            350 ;	D:/EiqEnergy/Projects/Software/_SoftwareLibraries/StateMachines/StateMachine_G4_eventQueue.c:48: Q->Array	= storage ;
   00CE 74 04               351 	mov	a,#0x04
   00D0 2A                  352 	add	a,r2
   00D1 FA                  353 	mov	r2,a
   00D2 E4                  354 	clr	a
   00D3 3B                  355 	addc	a,r3
   00D4 FB                  356 	mov	r3,a
   00D5 90s00r06            357 	mov	dptr,#_eventQueue_initialize_PARM_2
   00D8 E0                  358 	movx	a,@dptr
   00D9 FD                  359 	mov	r5,a
   00DA A3                  360 	inc	dptr
   00DB E0                  361 	movx	a,@dptr
   00DC FE                  362 	mov	r6,a
   00DD A3                  363 	inc	dptr
   00DE E0                  364 	movx	a,@dptr
   00DF FF                  365 	mov	r7,a
   00E0 8A 82               366 	mov	dpl,r2
   00E2 8B 83               367 	mov	dph,r3
   00E4 8C F0               368 	mov	b,r4
   00E6 ED                  369 	mov	a,r5
   00E7 12s00r00            370 	lcall	__gptrput
   00EA A3                  371 	inc	dptr
   00EB EE                  372 	mov	a,r6
   00EC 12s00r00            373 	lcall	__gptrput
   00EF A3                  374 	inc	dptr
   00F0 EF                  375 	mov	a,r7
   00F1 12s00r00            376 	lcall	__gptrput
                            377 ;	D:/EiqEnergy/Projects/Software/_SoftwareLibraries/StateMachines/StateMachine_G4_eventQueue.c:50: return true ;
   00F4 D3                  378 	setb	c
   00F5 22                  379 	ret
                            380 ;------------------------------------------------------------
                            381 ;Allocation info for local variables in function 'eventQueue_isEmpty'
                            382 ;------------------------------------------------------------
                            383 ;Q                         Allocated with name '_eventQueue_isEmpty_Q_1_1'
                            384 ;------------------------------------------------------------
                            385 ;	D:/EiqEnergy/Projects/Software/_SoftwareLibraries/StateMachines/StateMachine_G4_eventQueue.c:54: uint8_t eventQueue_isEmpty(	eventQueue_t* Q)
                            386 ;	-----------------------------------------
                            387 ;	 function eventQueue_isEmpty
                            388 ;	-----------------------------------------
   00F6                     389 _eventQueue_isEmpty:
   00F6 AA F0               390 	mov	r2,b
   00F8 AB 83               391 	mov	r3,dph
   00FA E5 82               392 	mov	a,dpl
   00FC 90s00r0D            393 	mov	dptr,#_eventQueue_isEmpty_Q_1_1
   00FF F0                  394 	movx	@dptr,a
   0100 A3                  395 	inc	dptr
   0101 EB                  396 	mov	a,r3
   0102 F0                  397 	movx	@dptr,a
   0103 A3                  398 	inc	dptr
   0104 EA                  399 	mov	a,r2
   0105 F0                  400 	movx	@dptr,a
                            401 ;	D:/EiqEnergy/Projects/Software/_SoftwareLibraries/StateMachines/StateMachine_G4_eventQueue.c:56: return Q->Size == 0 ;
   0106 90s00r0D            402 	mov	dptr,#_eventQueue_isEmpty_Q_1_1
   0109 E0                  403 	movx	a,@dptr
   010A FA                  404 	mov	r2,a
   010B A3                  405 	inc	dptr
   010C E0                  406 	movx	a,@dptr
   010D FB                  407 	mov	r3,a
   010E A3                  408 	inc	dptr
   010F E0                  409 	movx	a,@dptr
   0110 FC                  410 	mov	r4,a
   0111 74 03               411 	mov	a,#0x03
   0113 2A                  412 	add	a,r2
   0114 FA                  413 	mov	r2,a
   0115 E4                  414 	clr	a
   0116 3B                  415 	addc	a,r3
   0117 FB                  416 	mov	r3,a
   0118 8A 82               417 	mov	dpl,r2
   011A 8B 83               418 	mov	dph,r3
   011C 8C F0               419 	mov	b,r4
   011E 12s00r00            420 	lcall	__gptrget
   0121 FA                  421 	mov	r2,a
   0122 E4                  422 	clr	a
   0123 BA 00 01            423 	cjne	r2,#0x00,00103$
   0126 04                  424 	inc	a
   0127                     425 00103$:
   0127 F5 82               426 	mov	dpl,a
   0129 22                  427 	ret
                            428 ;------------------------------------------------------------
                            429 ;Allocation info for local variables in function 'eventQueue_isFull'
                            430 ;------------------------------------------------------------
                            431 ;Q                         Allocated with name '_eventQueue_isFull_Q_1_1'
                            432 ;------------------------------------------------------------
                            433 ;	D:/EiqEnergy/Projects/Software/_SoftwareLibraries/StateMachines/StateMachine_G4_eventQueue.c:60: uint8_t eventQueue_isFull(	eventQueue_t* Q)
                            434 ;	-----------------------------------------
                            435 ;	 function eventQueue_isFull
                            436 ;	-----------------------------------------
   012A                     437 _eventQueue_isFull:
   012A AA F0               438 	mov	r2,b
   012C AB 83               439 	mov	r3,dph
   012E E5 82               440 	mov	a,dpl
   0130 90s00r10            441 	mov	dptr,#_eventQueue_isFull_Q_1_1
   0133 F0                  442 	movx	@dptr,a
   0134 A3                  443 	inc	dptr
   0135 EB                  444 	mov	a,r3
   0136 F0                  445 	movx	@dptr,a
   0137 A3                  446 	inc	dptr
   0138 EA                  447 	mov	a,r2
   0139 F0                  448 	movx	@dptr,a
                            449 ;	D:/EiqEnergy/Projects/Software/_SoftwareLibraries/StateMachines/StateMachine_G4_eventQueue.c:62: return Q->Size == Q->Capacity ;
   013A 90s00r10            450 	mov	dptr,#_eventQueue_isFull_Q_1_1
   013D E0                  451 	movx	a,@dptr
   013E FA                  452 	mov	r2,a
   013F A3                  453 	inc	dptr
   0140 E0                  454 	movx	a,@dptr
   0141 FB                  455 	mov	r3,a
   0142 A3                  456 	inc	dptr
   0143 E0                  457 	movx	a,@dptr
   0144 FC                  458 	mov	r4,a
   0145 74 03               459 	mov	a,#0x03
   0147 2A                  460 	add	a,r2
   0148 FD                  461 	mov	r5,a
   0149 E4                  462 	clr	a
   014A 3B                  463 	addc	a,r3
   014B FE                  464 	mov	r6,a
   014C 8C 07               465 	mov	ar7,r4
   014E 8D 82               466 	mov	dpl,r5
   0150 8E 83               467 	mov	dph,r6
   0152 8F F0               468 	mov	b,r7
   0154 12s00r00            469 	lcall	__gptrget
   0157 FD                  470 	mov	r5,a
   0158 8A 82               471 	mov	dpl,r2
   015A 8B 83               472 	mov	dph,r3
   015C 8C F0               473 	mov	b,r4
   015E 12s00r00            474 	lcall	__gptrget
   0161 FA                  475 	mov	r2,a
   0162 ED                  476 	mov	a,r5
   0163 B5 02 04            477 	cjne	a,ar2,00103$
   0166 74 01               478 	mov	a,#0x01
   0168 80 01               479 	sjmp	00104$
   016A                     480 00103$:
   016A E4                  481 	clr	a
   016B                     482 00104$:
   016B F5 82               483 	mov	dpl,a
   016D 22                  484 	ret
                            485 ;------------------------------------------------------------
                            486 ;Allocation info for local variables in function 'nextLocationFromPoint'
                            487 ;------------------------------------------------------------
                            488 ;location                  Allocated with name '_nextLocationFromPoint_PARM_2'
                            489 ;Q                         Allocated with name '_nextLocationFromPoint_Q_1_1'
                            490 ;------------------------------------------------------------
                            491 ;	D:/EiqEnergy/Projects/Software/_SoftwareLibraries/StateMachines/StateMachine_G4_eventQueue.c:66: static eventQueueIndex_t nextLocationFromPoint(	eventQueue_t* Q, eventQueueIndex_t location)
                            492 ;	-----------------------------------------
                            493 ;	 function nextLocationFromPoint
                            494 ;	-----------------------------------------
   016E                     495 _nextLocationFromPoint:
   016E AA F0               496 	mov	r2,b
   0170 AB 83               497 	mov	r3,dph
   0172 E5 82               498 	mov	a,dpl
   0174 90s00r14            499 	mov	dptr,#_nextLocationFromPoint_Q_1_1
   0177 F0                  500 	movx	@dptr,a
   0178 A3                  501 	inc	dptr
   0179 EB                  502 	mov	a,r3
   017A F0                  503 	movx	@dptr,a
   017B A3                  504 	inc	dptr
   017C EA                  505 	mov	a,r2
   017D F0                  506 	movx	@dptr,a
                            507 ;	D:/EiqEnergy/Projects/Software/_SoftwareLibraries/StateMachines/StateMachine_G4_eventQueue.c:68: if(++location == Q->Capacity)
   017E 90s00r13            508 	mov	dptr,#_nextLocationFromPoint_PARM_2
   0181 E0                  509 	movx	a,@dptr
   0182 24 01               510 	add	a,#0x01
   0184 F0                  511 	movx	@dptr,a
   0185 90s00r14            512 	mov	dptr,#_nextLocationFromPoint_Q_1_1
   0188 E0                  513 	movx	a,@dptr
   0189 FA                  514 	mov	r2,a
   018A A3                  515 	inc	dptr
   018B E0                  516 	movx	a,@dptr
   018C FB                  517 	mov	r3,a
   018D A3                  518 	inc	dptr
   018E E0                  519 	movx	a,@dptr
   018F FC                  520 	mov	r4,a
   0190 8A 82               521 	mov	dpl,r2
   0192 8B 83               522 	mov	dph,r3
   0194 8C F0               523 	mov	b,r4
   0196 12s00r00            524 	lcall	__gptrget
   0199 FA                  525 	mov	r2,a
   019A 90s00r13            526 	mov	dptr,#_nextLocationFromPoint_PARM_2
   019D E0                  527 	movx	a,@dptr
   019E FB                  528 	mov	r3,a
   019F B5 02 05            529 	cjne	a,ar2,00102$
                            530 ;	D:/EiqEnergy/Projects/Software/_SoftwareLibraries/StateMachines/StateMachine_G4_eventQueue.c:70: location = 0 ;
   01A2 90s00r13            531 	mov	dptr,#_nextLocationFromPoint_PARM_2
   01A5 E4                  532 	clr	a
   01A6 F0                  533 	movx	@dptr,a
   01A7                     534 00102$:
                            535 ;	D:/EiqEnergy/Projects/Software/_SoftwareLibraries/StateMachines/StateMachine_G4_eventQueue.c:73: return location ;
   01A7 90s00r13            536 	mov	dptr,#_nextLocationFromPoint_PARM_2
   01AA E0                  537 	movx	a,@dptr
   01AB F5 82               538 	mov	dpl,a
   01AD 22                  539 	ret
                            540 ;------------------------------------------------------------
                            541 ;Allocation info for local variables in function 'eventQueue_insert'
                            542 ;------------------------------------------------------------
                            543 ;event                     Allocated with name '_eventQueue_insert_PARM_2'
                            544 ;Q                         Allocated with name '_eventQueue_insert_Q_1_1'
                            545 ;------------------------------------------------------------
                            546 ;	D:/EiqEnergy/Projects/Software/_SoftwareLibraries/StateMachines/StateMachine_G4_eventQueue.c:79: bool eventQueue_insert(		eventQueue_t* Q, event_t* event)
                            547 ;	-----------------------------------------
                            548 ;	 function eventQueue_insert
                            549 ;	-----------------------------------------
   01AE                     550 _eventQueue_insert:
   01AE AA F0               551 	mov	r2,b
   01B0 AB 83               552 	mov	r3,dph
   01B2 E5 82               553 	mov	a,dpl
   01B4 90s00r1A            554 	mov	dptr,#_eventQueue_insert_Q_1_1
   01B7 F0                  555 	movx	@dptr,a
   01B8 A3                  556 	inc	dptr
   01B9 EB                  557 	mov	a,r3
   01BA F0                  558 	movx	@dptr,a
   01BB A3                  559 	inc	dptr
   01BC EA                  560 	mov	a,r2
   01BD F0                  561 	movx	@dptr,a
                            562 ;	D:/EiqEnergy/Projects/Software/_SoftwareLibraries/StateMachines/StateMachine_G4_eventQueue.c:81: if(!eventQueue_isFull(Q))
   01BE 90s00r1A            563 	mov	dptr,#_eventQueue_insert_Q_1_1
   01C1 E0                  564 	movx	a,@dptr
   01C2 FA                  565 	mov	r2,a
   01C3 A3                  566 	inc	dptr
   01C4 E0                  567 	movx	a,@dptr
   01C5 FB                  568 	mov	r3,a
   01C6 A3                  569 	inc	dptr
   01C7 E0                  570 	movx	a,@dptr
   01C8 FC                  571 	mov	r4,a
   01C9 8A 82               572 	mov	dpl,r2
   01CB 8B 83               573 	mov	dph,r3
   01CD 8C F0               574 	mov	b,r4
   01CF 12s01r2A            575 	lcall	_eventQueue_isFull
   01D2 E5 82               576 	mov	a,dpl
   01D4 60 03               577 	jz	00110$
   01D6 02s02rEA            578 	ljmp	00102$
   01D9                     579 00110$:
                            580 ;	D:/EiqEnergy/Projects/Software/_SoftwareLibraries/StateMachines/StateMachine_G4_eventQueue.c:83: Q->Size++ ;
   01D9 90s00r1A            581 	mov	dptr,#_eventQueue_insert_Q_1_1
   01DC E0                  582 	movx	a,@dptr
   01DD FA                  583 	mov	r2,a
   01DE A3                  584 	inc	dptr
   01DF E0                  585 	movx	a,@dptr
   01E0 FB                  586 	mov	r3,a
   01E1 A3                  587 	inc	dptr
   01E2 E0                  588 	movx	a,@dptr
   01E3 FC                  589 	mov	r4,a
   01E4 74 03               590 	mov	a,#0x03
   01E6 2A                  591 	add	a,r2
   01E7 FD                  592 	mov	r5,a
   01E8 E4                  593 	clr	a
   01E9 3B                  594 	addc	a,r3
   01EA FE                  595 	mov	r6,a
   01EB 8C 07               596 	mov	ar7,r4
   01ED 8D 82               597 	mov	dpl,r5
   01EF 8E 83               598 	mov	dph,r6
   01F1 8F F0               599 	mov	b,r7
   01F3 12s00r00            600 	lcall	__gptrget
   01F6 F8                  601 	mov	r0,a
   01F7 08                  602 	inc	r0
   01F8 8D 82               603 	mov	dpl,r5
   01FA 8E 83               604 	mov	dph,r6
   01FC 8F F0               605 	mov	b,r7
   01FE E8                  606 	mov	a,r0
   01FF 12s00r00            607 	lcall	__gptrput
                            608 ;	D:/EiqEnergy/Projects/Software/_SoftwareLibraries/StateMachines/StateMachine_G4_eventQueue.c:84: Q->Rear = nextLocationFromPoint(Q, Q->Rear) ;
   0202 74 02               609 	mov	a,#0x02
   0204 2A                  610 	add	a,r2
   0205 FD                  611 	mov	r5,a
   0206 E4                  612 	clr	a
   0207 3B                  613 	addc	a,r3
   0208 FE                  614 	mov	r6,a
   0209 8C 07               615 	mov	ar7,r4
   020B 8D 82               616 	mov	dpl,r5
   020D 8E 83               617 	mov	dph,r6
   020F 8F F0               618 	mov	b,r7
   0211 12s00r00            619 	lcall	__gptrget
   0214 90s00r13            620 	mov	dptr,#_nextLocationFromPoint_PARM_2
   0217 F0                  621 	movx	@dptr,a
   0218 8A 82               622 	mov	dpl,r2
   021A 8B 83               623 	mov	dph,r3
   021C 8C F0               624 	mov	b,r4
   021E C0 05               625 	push	ar5
   0220 C0 06               626 	push	ar6
   0222 C0 07               627 	push	ar7
   0224 12s01r6E            628 	lcall	_nextLocationFromPoint
   0227 AA 82               629 	mov	r2,dpl
   0229 D0 07               630 	pop	ar7
   022B D0 06               631 	pop	ar6
   022D D0 05               632 	pop	ar5
   022F 8D 82               633 	mov	dpl,r5
   0231 8E 83               634 	mov	dph,r6
   0233 8F F0               635 	mov	b,r7
   0235 EA                  636 	mov	a,r2
   0236 12s00r00            637 	lcall	__gptrput
                            638 ;	D:/EiqEnergy/Projects/Software/_SoftwareLibraries/StateMachines/StateMachine_G4_eventQueue.c:85: Q->Array[Q->Rear] = event ;
   0239 90s00r1A            639 	mov	dptr,#_eventQueue_insert_Q_1_1
   023C E0                  640 	movx	a,@dptr
   023D FA                  641 	mov	r2,a
   023E A3                  642 	inc	dptr
   023F E0                  643 	movx	a,@dptr
   0240 FB                  644 	mov	r3,a
   0241 A3                  645 	inc	dptr
   0242 E0                  646 	movx	a,@dptr
   0243 FC                  647 	mov	r4,a
   0244 74 04               648 	mov	a,#0x04
   0246 2A                  649 	add	a,r2
   0247 FD                  650 	mov	r5,a
   0248 E4                  651 	clr	a
   0249 3B                  652 	addc	a,r3
   024A FE                  653 	mov	r6,a
   024B 8C 07               654 	mov	ar7,r4
   024D 8D 82               655 	mov	dpl,r5
   024F 8E 83               656 	mov	dph,r6
   0251 8F F0               657 	mov	b,r7
   0253 12s00r00            658 	lcall	__gptrget
   0256 FD                  659 	mov	r5,a
   0257 A3                  660 	inc	dptr
   0258 12s00r00            661 	lcall	__gptrget
   025B FE                  662 	mov	r6,a
   025C A3                  663 	inc	dptr
   025D 12s00r00            664 	lcall	__gptrget
   0260 FF                  665 	mov	r7,a
   0261 74 02               666 	mov	a,#0x02
   0263 2A                  667 	add	a,r2
   0264 FA                  668 	mov	r2,a
   0265 E4                  669 	clr	a
   0266 3B                  670 	addc	a,r3
   0267 FB                  671 	mov	r3,a
   0268 8A 82               672 	mov	dpl,r2
   026A 8B 83               673 	mov	dph,r3
   026C 8C F0               674 	mov	b,r4
   026E 12s00r00            675 	lcall	__gptrget
   0271 75 F0 03            676 	mov	b,#0x03
   0274 A4                  677 	mul	ab
   0275 2D                  678 	add	a,r5
   0276 FD                  679 	mov	r5,a
   0277 EE                  680 	mov	a,r6
   0278 35 F0               681 	addc	a,b
   027A FE                  682 	mov	r6,a
   027B 90s00r17            683 	mov	dptr,#_eventQueue_insert_PARM_2
   027E E0                  684 	movx	a,@dptr
   027F FA                  685 	mov	r2,a
   0280 A3                  686 	inc	dptr
   0281 E0                  687 	movx	a,@dptr
   0282 FB                  688 	mov	r3,a
   0283 A3                  689 	inc	dptr
   0284 E0                  690 	movx	a,@dptr
   0285 FC                  691 	mov	r4,a
   0286 8D 82               692 	mov	dpl,r5
   0288 8E 83               693 	mov	dph,r6
   028A 8F F0               694 	mov	b,r7
   028C EA                  695 	mov	a,r2
   028D 12s00r00            696 	lcall	__gptrput
   0290 A3                  697 	inc	dptr
   0291 EB                  698 	mov	a,r3
   0292 12s00r00            699 	lcall	__gptrput
   0295 A3                  700 	inc	dptr
   0296 EC                  701 	mov	a,r4
   0297 12s00r00            702 	lcall	__gptrput
                            703 ;	D:/EiqEnergy/Projects/Software/_SoftwareLibraries/StateMachines/StateMachine_G4_eventQueue.c:87: printf("\t\t\tPosting event type: %s\n", hsm_isEventInternal(event) ? eventTypes[hsm_getEventType(event)] : "<USER_EVENT>") ;
   029A 8A 82               704 	mov	dpl,r2
   029C 8B 83               705 	mov	dph,r3
   029E 8C F0               706 	mov	b,r4
   02A0 12s00r00            707 	lcall	__gptrget
   02A3 FA                  708 	mov	r2,a
   02A4 C3                  709 	clr	c
   02A5 74 07               710 	mov	a,#0x07
   02A7 9A                  711 	subb	a,r2
   02A8 B3                  712 	cpl	c
   02A9 E4                  713 	clr	a
   02AA 33                  714 	rlc	a
   02AB FB                  715 	mov	r3,a
   02AC 60 19               716 	jz	00106$
   02AE EA                  717 	mov	a,r2
   02AF 75 F0 03            718 	mov	b,#0x03
   02B2 A4                  719 	mul	ab
   02B3 24r00               720 	add	a,#_eventTypes
   02B5 F5 82               721 	mov	dpl,a
   02B7 74s00               722 	mov	a,#(_eventTypes >> 8)
   02B9 35 F0               723 	addc	a,b
   02BB F5 83               724 	mov	dph,a
   02BD E0                  725 	movx	a,@dptr
   02BE FA                  726 	mov	r2,a
   02BF A3                  727 	inc	dptr
   02C0 E0                  728 	movx	a,@dptr
   02C1 FB                  729 	mov	r3,a
   02C2 A3                  730 	inc	dptr
   02C3 E0                  731 	movx	a,@dptr
   02C4 FC                  732 	mov	r4,a
   02C5 80 06               733 	sjmp	00107$
   02C7                     734 00106$:
   02C7 7Ar1B               735 	mov	r2,#__str_1
   02C9 7Bs00               736 	mov	r3,#(__str_1 >> 8)
   02CB 7C 80               737 	mov	r4,#0x80
   02CD                     738 00107$:
   02CD C0 02               739 	push	ar2
   02CF C0 03               740 	push	ar3
   02D1 C0 04               741 	push	ar4
   02D3 74r00               742 	mov	a,#__str_0
   02D5 C0 E0               743 	push	acc
   02D7 74s00               744 	mov	a,#(__str_0 >> 8)
   02D9 C0 E0               745 	push	acc
   02DB 74 80               746 	mov	a,#0x80
   02DD C0 E0               747 	push	acc
   02DF 12s00r00            748 	lcall	_printf
   02E2 E5 81               749 	mov	a,sp
   02E4 24 FA               750 	add	a,#0xfa
   02E6 F5 81               751 	mov	sp,a
                            752 ;	D:/EiqEnergy/Projects/Software/_SoftwareLibraries/StateMachines/StateMachine_G4_eventQueue.c:89: return true ;
   02E8 D3                  753 	setb	c
   02E9 22                  754 	ret
   02EA                     755 00102$:
                            756 ;	D:/EiqEnergy/Projects/Software/_SoftwareLibraries/StateMachines/StateMachine_G4_eventQueue.c:93: return false ;
   02EA C3                  757 	clr	c
   02EB 22                  758 	ret
                            759 ;------------------------------------------------------------
                            760 ;Allocation info for local variables in function 'eventQueue_remove'
                            761 ;------------------------------------------------------------
                            762 ;sloc0                     Allocated with name '_eventQueue_remove_sloc0_1_0'
                            763 ;sloc1                     Allocated with name '_eventQueue_remove_sloc1_1_0'
                            764 ;sloc2                     Allocated with name '_eventQueue_remove_sloc2_1_0'
                            765 ;Q                         Allocated with name '_eventQueue_remove_Q_1_1'
                            766 ;eventReceived             Allocated with name '_eventQueue_remove_eventReceived_2_2'
                            767 ;------------------------------------------------------------
                            768 ;	D:/EiqEnergy/Projects/Software/_SoftwareLibraries/StateMachines/StateMachine_G4_eventQueue.c:98: event_t* eventQueue_remove(	eventQueue_t* Q)
                            769 ;	-----------------------------------------
                            770 ;	 function eventQueue_remove
                            771 ;	-----------------------------------------
   02EC                     772 _eventQueue_remove:
   02EC AA F0               773 	mov	r2,b
   02EE AB 83               774 	mov	r3,dph
   02F0 E5 82               775 	mov	a,dpl
   02F2 90s00r1D            776 	mov	dptr,#_eventQueue_remove_Q_1_1
   02F5 F0                  777 	movx	@dptr,a
   02F6 A3                  778 	inc	dptr
   02F7 EB                  779 	mov	a,r3
   02F8 F0                  780 	movx	@dptr,a
   02F9 A3                  781 	inc	dptr
   02FA EA                  782 	mov	a,r2
   02FB F0                  783 	movx	@dptr,a
                            784 ;	D:/EiqEnergy/Projects/Software/_SoftwareLibraries/StateMachines/StateMachine_G4_eventQueue.c:100: if(!eventQueue_isEmpty(Q))
   02FC 90s00r1D            785 	mov	dptr,#_eventQueue_remove_Q_1_1
   02FF E0                  786 	movx	a,@dptr
   0300 FA                  787 	mov	r2,a
   0301 A3                  788 	inc	dptr
   0302 E0                  789 	movx	a,@dptr
   0303 FB                  790 	mov	r3,a
   0304 A3                  791 	inc	dptr
   0305 E0                  792 	movx	a,@dptr
   0306 FC                  793 	mov	r4,a
   0307 8A 82               794 	mov	dpl,r2
   0309 8B 83               795 	mov	dph,r3
   030B 8C F0               796 	mov	b,r4
   030D 12s00rF6            797 	lcall	_eventQueue_isEmpty
   0310 E5 82               798 	mov	a,dpl
   0312 60 03               799 	jz	00107$
   0314 02s03rC6            800 	ljmp	00102$
   0317                     801 00107$:
                            802 ;	D:/EiqEnergy/Projects/Software/_SoftwareLibraries/StateMachines/StateMachine_G4_eventQueue.c:102: event_t* eventReceived = Q->Array[Q->Front] ;
   0317 90s00r1D            803 	mov	dptr,#_eventQueue_remove_Q_1_1
   031A E0                  804 	movx	a,@dptr
   031B FA                  805 	mov	r2,a
   031C A3                  806 	inc	dptr
   031D E0                  807 	movx	a,@dptr
   031E FB                  808 	mov	r3,a
   031F A3                  809 	inc	dptr
   0320 E0                  810 	movx	a,@dptr
   0321 FC                  811 	mov	r4,a
   0322 74 04               812 	mov	a,#0x04
   0324 2A                  813 	add	a,r2
   0325 FD                  814 	mov	r5,a
   0326 E4                  815 	clr	a
   0327 3B                  816 	addc	a,r3
   0328 FE                  817 	mov	r6,a
   0329 8C 07               818 	mov	ar7,r4
   032B 8D 82               819 	mov	dpl,r5
   032D 8E 83               820 	mov	dph,r6
   032F 8F F0               821 	mov	b,r7
   0331 12s00r00            822 	lcall	__gptrget
   0334 F5*00               823 	mov	_eventQueue_remove_sloc0_1_0,a
   0336 A3                  824 	inc	dptr
   0337 12s00r00            825 	lcall	__gptrget
   033A F5*01               826 	mov	(_eventQueue_remove_sloc0_1_0 + 1),a
   033C A3                  827 	inc	dptr
   033D 12s00r00            828 	lcall	__gptrget
   0340 F5*02               829 	mov	(_eventQueue_remove_sloc0_1_0 + 2),a
   0342 74 01               830 	mov	a,#0x01
   0344 2A                  831 	add	a,r2
   0345 F5*04               832 	mov	_eventQueue_remove_sloc2_1_0,a
   0347 E4                  833 	clr	a
   0348 3B                  834 	addc	a,r3
   0349 F5*05               835 	mov	(_eventQueue_remove_sloc2_1_0 + 1),a
   034B 8C*06               836 	mov	(_eventQueue_remove_sloc2_1_0 + 2),r4
   034D 85*04 82            837 	mov	dpl,_eventQueue_remove_sloc2_1_0
   0350 85*05 83            838 	mov	dph,(_eventQueue_remove_sloc2_1_0 + 1)
   0353 85*06 F0            839 	mov	b,(_eventQueue_remove_sloc2_1_0 + 2)
   0356 12s00r00            840 	lcall	__gptrget
   0359 F5*03               841 	mov	_eventQueue_remove_sloc1_1_0,a
   035B 75 F0 03            842 	mov	b,#0x03
   035E A4                  843 	mul	ab
   035F 25*00               844 	add	a,_eventQueue_remove_sloc0_1_0
   0361 FF                  845 	mov	r7,a
   0362 E5*01               846 	mov	a,(_eventQueue_remove_sloc0_1_0 + 1)
   0364 35 F0               847 	addc	a,b
   0366 FE                  848 	mov	r6,a
   0367 AD*02               849 	mov	r5,(_eventQueue_remove_sloc0_1_0 + 2)
   0369 8F 82               850 	mov	dpl,r7
   036B 8E 83               851 	mov	dph,r6
   036D 8D F0               852 	mov	b,r5
   036F 12s00r00            853 	lcall	__gptrget
   0372 F5*00               854 	mov	_eventQueue_remove_sloc0_1_0,a
   0374 A3                  855 	inc	dptr
   0375 12s00r00            856 	lcall	__gptrget
   0378 F5*01               857 	mov	(_eventQueue_remove_sloc0_1_0 + 1),a
   037A A3                  858 	inc	dptr
   037B 12s00r00            859 	lcall	__gptrget
   037E F5*02               860 	mov	(_eventQueue_remove_sloc0_1_0 + 2),a
                            861 ;	D:/EiqEnergy/Projects/Software/_SoftwareLibraries/StateMachines/StateMachine_G4_eventQueue.c:104: Q->Size-- ;
   0380 74 03               862 	mov	a,#0x03
   0382 2A                  863 	add	a,r2
   0383 F8                  864 	mov	r0,a
   0384 E4                  865 	clr	a
   0385 3B                  866 	addc	a,r3
   0386 F9                  867 	mov	r1,a
   0387 8C 05               868 	mov	ar5,r4
   0389 88 82               869 	mov	dpl,r0
   038B 89 83               870 	mov	dph,r1
   038D 8D F0               871 	mov	b,r5
   038F 12s00r00            872 	lcall	__gptrget
   0392 FE                  873 	mov	r6,a
   0393 1E                  874 	dec	r6
   0394 88 82               875 	mov	dpl,r0
   0396 89 83               876 	mov	dph,r1
   0398 8D F0               877 	mov	b,r5
   039A EE                  878 	mov	a,r6
   039B 12s00r00            879 	lcall	__gptrput
                            880 ;	D:/EiqEnergy/Projects/Software/_SoftwareLibraries/StateMachines/StateMachine_G4_eventQueue.c:105: Q->Front = nextLocationFromPoint(Q, Q->Front) ;
   039E 90s00r13            881 	mov	dptr,#_nextLocationFromPoint_PARM_2
   03A1 E5*03               882 	mov	a,_eventQueue_remove_sloc1_1_0
   03A3 F0                  883 	movx	@dptr,a
   03A4 8A 82               884 	mov	dpl,r2
   03A6 8B 83               885 	mov	dph,r3
   03A8 8C F0               886 	mov	b,r4
   03AA 12s01r6E            887 	lcall	_nextLocationFromPoint
   03AD AA 82               888 	mov	r2,dpl
   03AF 85*04 82            889 	mov	dpl,_eventQueue_remove_sloc2_1_0
   03B2 85*05 83            890 	mov	dph,(_eventQueue_remove_sloc2_1_0 + 1)
   03B5 85*06 F0            891 	mov	b,(_eventQueue_remove_sloc2_1_0 + 2)
   03B8 EA                  892 	mov	a,r2
   03B9 12s00r00            893 	lcall	__gptrput
                            894 ;	D:/EiqEnergy/Projects/Software/_SoftwareLibraries/StateMachines/StateMachine_G4_eventQueue.c:107: return eventReceived ;
   03BC 85*00 82            895 	mov	dpl,_eventQueue_remove_sloc0_1_0
   03BF 85*01 83            896 	mov	dph,(_eventQueue_remove_sloc0_1_0 + 1)
   03C2 85*02 F0            897 	mov	b,(_eventQueue_remove_sloc0_1_0 + 2)
   03C5 22                  898 	ret
   03C6                     899 00102$:
                            900 ;	D:/EiqEnergy/Projects/Software/_SoftwareLibraries/StateMachines/StateMachine_G4_eventQueue.c:111: return (event_t*)0 ;
   03C6 90 00 00            901 	mov	dptr,#0x0000
   03C9 75 F0 00            902 	mov	b,#0x00
   03CC 22                  903 	ret
                            904 ;------------------------------------------------------------
                            905 ;Allocation info for local variables in function 'addToDeferredTypeList'
                            906 ;------------------------------------------------------------
                            907 ;eventTypeToDefer          Allocated with name '_addToDeferredTypeList_PARM_2'
                            908 ;sm                        Allocated with name '_addToDeferredTypeList_sm_1_1'
                            909 ;------------------------------------------------------------
                            910 ;	D:/EiqEnergy/Projects/Software/_SoftwareLibraries/StateMachines/StateMachine_G4_eventQueue.c:116: void addToDeferredTypeList(			stateMachine_t* sm, rawEventType_t eventTypeToDefer)
                            911 ;	-----------------------------------------
                            912 ;	 function addToDeferredTypeList
                            913 ;	-----------------------------------------
   03CD                     914 _addToDeferredTypeList:
   03CD AA F0               915 	mov	r2,b
   03CF AB 83               916 	mov	r3,dph
   03D1 E5 82               917 	mov	a,dpl
   03D3 90s00r21            918 	mov	dptr,#_addToDeferredTypeList_sm_1_1
   03D6 F0                  919 	movx	@dptr,a
   03D7 A3                  920 	inc	dptr
   03D8 EB                  921 	mov	a,r3
   03D9 F0                  922 	movx	@dptr,a
   03DA A3                  923 	inc	dptr
   03DB EA                  924 	mov	a,r2
   03DC F0                  925 	movx	@dptr,a
                            926 ;	D:/EiqEnergy/Projects/Software/_SoftwareLibraries/StateMachines/StateMachine_G4_eventQueue.c:118: if(sm->currentDepthOfEventsToDeferList < sm->maxDepthOfEventsToDeferList)
   03DD 90s00r21            927 	mov	dptr,#_addToDeferredTypeList_sm_1_1
   03E0 E0                  928 	movx	a,@dptr
   03E1 FA                  929 	mov	r2,a
   03E2 A3                  930 	inc	dptr
   03E3 E0                  931 	movx	a,@dptr
   03E4 FB                  932 	mov	r3,a
   03E5 A3                  933 	inc	dptr
   03E6 E0                  934 	movx	a,@dptr
   03E7 FC                  935 	mov	r4,a
   03E8 74 16               936 	mov	a,#0x16
   03EA 2A                  937 	add	a,r2
   03EB FD                  938 	mov	r5,a
   03EC E4                  939 	clr	a
   03ED 3B                  940 	addc	a,r3
   03EE FE                  941 	mov	r6,a
   03EF 8C 07               942 	mov	ar7,r4
   03F1 8D 82               943 	mov	dpl,r5
   03F3 8E 83               944 	mov	dph,r6
   03F5 8F F0               945 	mov	b,r7
   03F7 12s00r00            946 	lcall	__gptrget
   03FA F8                  947 	mov	r0,a
   03FB 74 15               948 	mov	a,#0x15
   03FD 2A                  949 	add	a,r2
   03FE FA                  950 	mov	r2,a
   03FF E4                  951 	clr	a
   0400 3B                  952 	addc	a,r3
   0401 FB                  953 	mov	r3,a
   0402 8A 82               954 	mov	dpl,r2
   0404 8B 83               955 	mov	dph,r3
   0406 8C F0               956 	mov	b,r4
   0408 12s00r00            957 	lcall	__gptrget
   040B FA                  958 	mov	r2,a
   040C C3                  959 	clr	c
   040D E8                  960 	mov	a,r0
   040E 9A                  961 	subb	a,r2
   040F 50 0B               962 	jnc	00103$
                            963 ;	D:/EiqEnergy/Projects/Software/_SoftwareLibraries/StateMachines/StateMachine_G4_eventQueue.c:122: sm->currentDepthOfEventsToDeferList++ ;
   0411 08                  964 	inc	r0
   0412 8D 82               965 	mov	dpl,r5
   0414 8E 83               966 	mov	dph,r6
   0416 8F F0               967 	mov	b,r7
   0418 E8                  968 	mov	a,r0
   0419 02s00r00            969 	ljmp	__gptrput
   041C                     970 00103$:
   041C 22                  971 	ret
                            972 ;------------------------------------------------------------
                            973 ;Allocation info for local variables in function 'isEventTypeDeferred'
                            974 ;------------------------------------------------------------
                            975 ;eventTypeToCheck          Allocated with name '_isEventTypeDeferred_PARM_2'
                            976 ;sm                        Allocated with name '_isEventTypeDeferred_sm_1_1'
                            977 ;i                         Allocated with name '_isEventTypeDeferred_i_1_1'
                            978 ;------------------------------------------------------------
                            979 ;	D:/EiqEnergy/Projects/Software/_SoftwareLibraries/StateMachines/StateMachine_G4_eventQueue.c:127: bool isEventTypeDeferred(			stateMachine_t* sm, rawEventType_t eventTypeToCheck)
                            980 ;	-----------------------------------------
                            981 ;	 function isEventTypeDeferred
                            982 ;	-----------------------------------------
   041D                     983 _isEventTypeDeferred:
   041D AA F0               984 	mov	r2,b
   041F AB 83               985 	mov	r3,dph
   0421 E5 82               986 	mov	a,dpl
   0423 90s00r25            987 	mov	dptr,#_isEventTypeDeferred_sm_1_1
   0426 F0                  988 	movx	@dptr,a
   0427 A3                  989 	inc	dptr
   0428 EB                  990 	mov	a,r3
   0429 F0                  991 	movx	@dptr,a
   042A A3                  992 	inc	dptr
   042B EA                  993 	mov	a,r2
   042C F0                  994 	movx	@dptr,a
                            995 ;	D:/EiqEnergy/Projects/Software/_SoftwareLibraries/StateMachines/StateMachine_G4_eventQueue.c:131: for( i = 0 ; i < sm->currentDepthOfEventsToDeferList ; i++ )
   042D 90s00r24            996 	mov	dptr,#_isEventTypeDeferred_PARM_2
   0430 E0                  997 	movx	a,@dptr
   0431 FA                  998 	mov	r2,a
   0432 90s00r25            999 	mov	dptr,#_isEventTypeDeferred_sm_1_1
   0435 E0                 1000 	movx	a,@dptr
   0436 FB                 1001 	mov	r3,a
   0437 A3                 1002 	inc	dptr
   0438 E0                 1003 	movx	a,@dptr
   0439 FC                 1004 	mov	r4,a
   043A A3                 1005 	inc	dptr
   043B E0                 1006 	movx	a,@dptr
   043C FD                 1007 	mov	r5,a
   043D 74 16              1008 	mov	a,#0x16
   043F 2B                 1009 	add	a,r3
   0440 FE                 1010 	mov	r6,a
   0441 E4                 1011 	clr	a
   0442 3C                 1012 	addc	a,r4
   0443 FF                 1013 	mov	r7,a
   0444 8D 00              1014 	mov	ar0,r5
   0446 79 00              1015 	mov	r1,#0x00
   0448                    1016 00103$:
   0448 C0 02              1017 	push	ar2
   044A 8E 82              1018 	mov	dpl,r6
   044C 8F 83              1019 	mov	dph,r7
   044E 88 F0              1020 	mov	b,r0
   0450 12s00r00           1021 	lcall	__gptrget
   0453 FA                 1022 	mov	r2,a
   0454 C3                 1023 	clr	c
   0455 E9                 1024 	mov	a,r1
   0456 9A                 1025 	subb	a,r2
   0457 D0 02              1026 	pop	ar2
   0459 50 4B              1027 	jnc	00106$
                           1028 ;	D:/EiqEnergy/Projects/Software/_SoftwareLibraries/StateMachines/StateMachine_G4_eventQueue.c:133: if(sm->typesOfEventsToDefer[i] == eventTypeToCheck)
   045B C0 06              1029 	push	ar6
   045D C0 07              1030 	push	ar7
   045F C0 00              1031 	push	ar0
   0461 74 17              1032 	mov	a,#0x17
   0463 2B                 1033 	add	a,r3
   0464 FE                 1034 	mov	r6,a
   0465 E4                 1035 	clr	a
   0466 3C                 1036 	addc	a,r4
   0467 FF                 1037 	mov	r7,a
   0468 8D 00              1038 	mov	ar0,r5
   046A 8E 82              1039 	mov	dpl,r6
   046C 8F 83              1040 	mov	dph,r7
   046E 88 F0              1041 	mov	b,r0
   0470 12s00r00           1042 	lcall	__gptrget
   0473 FE                 1043 	mov	r6,a
   0474 A3                 1044 	inc	dptr
   0475 12s00r00           1045 	lcall	__gptrget
   0478 FF                 1046 	mov	r7,a
   0479 A3                 1047 	inc	dptr
   047A 12s00r00           1048 	lcall	__gptrget
   047D F8                 1049 	mov	r0,a
   047E E9                 1050 	mov	a,r1
   047F 2E                 1051 	add	a,r6
   0480 FE                 1052 	mov	r6,a
   0481 E4                 1053 	clr	a
   0482 3F                 1054 	addc	a,r7
   0483 FF                 1055 	mov	r7,a
   0484 8E 82              1056 	mov	dpl,r6
   0486 8F 83              1057 	mov	dph,r7
   0488 88 F0              1058 	mov	b,r0
   048A 12s00r00           1059 	lcall	__gptrget
   048D FE                 1060 	mov	r6,a
   048E B5 02 02           1061 	cjne	a,ar2,00113$
   0491 80 08              1062 	sjmp	00114$
   0493                    1063 00113$:
   0493 D0 00              1064 	pop	ar0
   0495 D0 07              1065 	pop	ar7
   0497 D0 06              1066 	pop	ar6
   0499 80 08              1067 	sjmp	00105$
   049B                    1068 00114$:
   049B D0 00              1069 	pop	ar0
   049D D0 07              1070 	pop	ar7
   049F D0 06              1071 	pop	ar6
                           1072 ;	D:/EiqEnergy/Projects/Software/_SoftwareLibraries/StateMachines/StateMachine_G4_eventQueue.c:135: return true ;
   04A1 D3                 1073 	setb	c
   04A2 22                 1074 	ret
   04A3                    1075 00105$:
                           1076 ;	D:/EiqEnergy/Projects/Software/_SoftwareLibraries/StateMachines/StateMachine_G4_eventQueue.c:131: for( i = 0 ; i < sm->currentDepthOfEventsToDeferList ; i++ )
   04A3 09                 1077 	inc	r1
   04A4 80 A2              1078 	sjmp	00103$
   04A6                    1079 00106$:
                           1080 ;	D:/EiqEnergy/Projects/Software/_SoftwareLibraries/StateMachines/StateMachine_G4_eventQueue.c:139: return false ;
   04A6 C3                 1081 	clr	c
   04A7 22                 1082 	ret
                           1083 ;------------------------------------------------------------
                           1084 ;Allocation info for local variables in function 'removeFromDeferredTypeList'
                           1085 ;------------------------------------------------------------
                           1086 ;sloc0                     Allocated with name '_removeFromDeferredTypeList_sloc0_1_0'
                           1087 ;sloc1                     Allocated with name '_removeFromDeferredTypeList_sloc1_1_0'
                           1088 ;sloc2                     Allocated with name '_removeFromDeferredTypeList_sloc2_1_0'
                           1089 ;sloc3                     Allocated with name '_removeFromDeferredTypeList_sloc3_1_0'
                           1090 ;sloc4                     Allocated with name '_removeFromDeferredTypeList_sloc4_1_0'
                           1091 ;eventTypeToUnDefer        Allocated with name '_removeFromDeferredTypeList_PARM_2'
                           1092 ;sm                        Allocated with name '_removeFromDeferredTypeList_sm_1_1'
                           1093 ;i                         Allocated with name '_removeFromDeferredTypeList_i_2_2'
                           1094 ;firstEvent                Allocated with name '_removeFromDeferredTypeList_firstEvent_3_5'
                           1095 ;currentEvent              Allocated with name '_removeFromDeferredTypeList_currentEvent_3_5'
                           1096 ;------------------------------------------------------------
                           1097 ;	D:/EiqEnergy/Projects/Software/_SoftwareLibraries/StateMachines/StateMachine_G4_eventQueue.c:143: void removeFromDeferredTypeList(	stateMachine_t* sm, rawEventType_t eventTypeToUnDefer)
                           1098 ;	-----------------------------------------
                           1099 ;	 function removeFromDeferredTypeList
                           1100 ;	-----------------------------------------
   04A8                    1101 _removeFromDeferredTypeList:
   04A8 AA F0              1102 	mov	r2,b
   04AA AB 83              1103 	mov	r3,dph
   04AC E5 82              1104 	mov	a,dpl
   04AE 90s00r29           1105 	mov	dptr,#_removeFromDeferredTypeList_sm_1_1
   04B1 F0                 1106 	movx	@dptr,a
   04B2 A3                 1107 	inc	dptr
   04B3 EB                 1108 	mov	a,r3
   04B4 F0                 1109 	movx	@dptr,a
   04B5 A3                 1110 	inc	dptr
   04B6 EA                 1111 	mov	a,r2
   04B7 F0                 1112 	movx	@dptr,a
                           1113 ;	D:/EiqEnergy/Projects/Software/_SoftwareLibraries/StateMachines/StateMachine_G4_eventQueue.c:145: if(sm->currentDepthOfEventsToDeferList > 0)
   04B8 90s00r29           1114 	mov	dptr,#_removeFromDeferredTypeList_sm_1_1
   04BB E0                 1115 	movx	a,@dptr
   04BC FA                 1116 	mov	r2,a
   04BD A3                 1117 	inc	dptr
   04BE E0                 1118 	movx	a,@dptr
   04BF FB                 1119 	mov	r3,a
   04C0 A3                 1120 	inc	dptr
   04C1 E0                 1121 	movx	a,@dptr
   04C2 FC                 1122 	mov	r4,a
   04C3 74 16              1123 	mov	a,#0x16
   04C5 2A                 1124 	add	a,r2
   04C6 FA                 1125 	mov	r2,a
   04C7 E4                 1126 	clr	a
   04C8 3B                 1127 	addc	a,r3
   04C9 FB                 1128 	mov	r3,a
   04CA 8A 82              1129 	mov	dpl,r2
   04CC 8B 83              1130 	mov	dph,r3
   04CE 8C F0              1131 	mov	b,r4
   04D0 12s00r00           1132 	lcall	__gptrget
   04D3 FA                 1133 	mov	r2,a
   04D4 70 01              1134 	jnz	00136$
   04D6 22                 1135 	ret
   04D7                    1136 00136$:
                           1137 ;	D:/EiqEnergy/Projects/Software/_SoftwareLibraries/StateMachines/StateMachine_G4_eventQueue.c:147: bool				found = false ;
   04D7 C2*01              1138 	clr	_removeFromDeferredTypeList_found_2_2
                           1139 ;	D:/EiqEnergy/Projects/Software/_SoftwareLibraries/StateMachines/StateMachine_G4_eventQueue.c:150: for( i = (sm->currentDepthOfEventsToDeferList - 1) ; i != 0 ; i-- )
   04D9 1A                 1140 	dec	r2
   04DA 90s00r2C           1141 	mov	dptr,#_removeFromDeferredTypeList_i_2_2
   04DD EA                 1142 	mov	a,r2
   04DE F0                 1143 	movx	@dptr,a
   04DF 90s00r28           1144 	mov	dptr,#_removeFromDeferredTypeList_PARM_2
   04E2 E0                 1145 	movx	a,@dptr
   04E3 F5*08              1146 	mov	_removeFromDeferredTypeList_sloc1_1_0,a
   04E5                    1147 00103$:
   04E5 EA                 1148 	mov	a,r2
   04E6 60 63              1149 	jz	00106$
                           1150 ;	D:/EiqEnergy/Projects/Software/_SoftwareLibraries/StateMachines/StateMachine_G4_eventQueue.c:152: if(sm->typesOfEventsToDefer[i] == eventTypeToUnDefer)
   04E8 90s00r29           1151 	mov	dptr,#_removeFromDeferredTypeList_sm_1_1
   04EB E0                 1152 	movx	a,@dptr
   04EC FC                 1153 	mov	r4,a
   04ED A3                 1154 	inc	dptr
   04EE E0                 1155 	movx	a,@dptr
   04EF FD                 1156 	mov	r5,a
   04F0 A3                 1157 	inc	dptr
   04F1 E0                 1158 	movx	a,@dptr
   04F2 FE                 1159 	mov	r6,a
   04F3 74 17              1160 	mov	a,#0x17
   04F5 2C                 1161 	add	a,r4
   04F6 FF                 1162 	mov	r7,a
   04F7 E4                 1163 	clr	a
   04F8 3D                 1164 	addc	a,r5
   04F9 F8                 1165 	mov	r0,a
   04FA 8E 01              1166 	mov	ar1,r6
   04FC 8F 82              1167 	mov	dpl,r7
   04FE 88 83              1168 	mov	dph,r0
   0500 89 F0              1169 	mov	b,r1
   0502 12s00r00           1170 	lcall	__gptrget
   0505 FF                 1171 	mov	r7,a
   0506 A3                 1172 	inc	dptr
   0507 12s00r00           1173 	lcall	__gptrget
   050A F8                 1174 	mov	r0,a
   050B A3                 1175 	inc	dptr
   050C 12s00r00           1176 	lcall	__gptrget
   050F F9                 1177 	mov	r1,a
   0510 EA                 1178 	mov	a,r2
   0511 2F                 1179 	add	a,r7
   0512 FF                 1180 	mov	r7,a
   0513 E4                 1181 	clr	a
   0514 38                 1182 	addc	a,r0
   0515 F8                 1183 	mov	r0,a
   0516 8F 82              1184 	mov	dpl,r7
   0518 88 83              1185 	mov	dph,r0
   051A 89 F0              1186 	mov	b,r1
   051C 12s00r00           1187 	lcall	__gptrget
   051F FF                 1188 	mov	r7,a
   0520 B5*08 20           1189 	cjne	a,_removeFromDeferredTypeList_sloc1_1_0,00105$
                           1190 ;	D:/EiqEnergy/Projects/Software/_SoftwareLibraries/StateMachines/StateMachine_G4_eventQueue.c:154: found = true ;
   0523 D2*01              1191 	setb	_removeFromDeferredTypeList_found_2_2
                           1192 ;	D:/EiqEnergy/Projects/Software/_SoftwareLibraries/StateMachines/StateMachine_G4_eventQueue.c:156: sm->currentDepthOfEventsToDeferList-- ;
   0525 74 16              1193 	mov	a,#0x16
   0527 2C                 1194 	add	a,r4
   0528 FC                 1195 	mov	r4,a
   0529 E4                 1196 	clr	a
   052A 3D                 1197 	addc	a,r5
   052B FD                 1198 	mov	r5,a
   052C 8C 82              1199 	mov	dpl,r4
   052E 8D 83              1200 	mov	dph,r5
   0530 8E F0              1201 	mov	b,r6
   0532 12s00r00           1202 	lcall	__gptrget
   0535 FF                 1203 	mov	r7,a
   0536 1F                 1204 	dec	r7
   0537 8C 82              1205 	mov	dpl,r4
   0539 8D 83              1206 	mov	dph,r5
   053B 8E F0              1207 	mov	b,r6
   053D EF                 1208 	mov	a,r7
   053E 12s00r00           1209 	lcall	__gptrput
                           1210 ;	D:/EiqEnergy/Projects/Software/_SoftwareLibraries/StateMachines/StateMachine_G4_eventQueue.c:158: break ;
   0541 80 08              1211 	sjmp	00106$
   0543                    1212 00105$:
                           1213 ;	D:/EiqEnergy/Projects/Software/_SoftwareLibraries/StateMachines/StateMachine_G4_eventQueue.c:150: for( i = (sm->currentDepthOfEventsToDeferList - 1) ; i != 0 ; i-- )
   0543 1A                 1214 	dec	r2
   0544 90s00r2C           1215 	mov	dptr,#_removeFromDeferredTypeList_i_2_2
   0547 EA                 1216 	mov	a,r2
   0548 F0                 1217 	movx	@dptr,a
   0549 80 9A              1218 	sjmp	00103$
   054B                    1219 00106$:
                           1220 ;	D:/EiqEnergy/Projects/Software/_SoftwareLibraries/StateMachines/StateMachine_G4_eventQueue.c:162: if(found)
   054B 20*01 01           1221 	jb	_removeFromDeferredTypeList_found_2_2,00140$
   054E 22                 1222 	ret
   054F                    1223 00140$:
                           1224 ;	D:/EiqEnergy/Projects/Software/_SoftwareLibraries/StateMachines/StateMachine_G4_eventQueue.c:167: for( i = i ; i < sm->currentDepthOfEventsToDeferList ; i++ )
   054F 90s00r29           1225 	mov	dptr,#_removeFromDeferredTypeList_sm_1_1
   0552 E0                 1226 	movx	a,@dptr
   0553 FA                 1227 	mov	r2,a
   0554 A3                 1228 	inc	dptr
   0555 E0                 1229 	movx	a,@dptr
   0556 FC                 1230 	mov	r4,a
   0557 A3                 1231 	inc	dptr
   0558 E0                 1232 	movx	a,@dptr
   0559 FD                 1233 	mov	r5,a
   055A 74 16              1234 	mov	a,#0x16
   055C 2A                 1235 	add	a,r2
   055D FE                 1236 	mov	r6,a
   055E E4                 1237 	clr	a
   055F 3C                 1238 	addc	a,r4
   0560 FF                 1239 	mov	r7,a
   0561 8D 00              1240 	mov	ar0,r5
   0563 90s00r2C           1241 	mov	dptr,#_removeFromDeferredTypeList_i_2_2
   0566 E0                 1242 	movx	a,@dptr
   0567 F9                 1243 	mov	r1,a
   0568                    1244 00119$:
   0568 8E 82              1245 	mov	dpl,r6
   056A 8F 83              1246 	mov	dph,r7
   056C 88 F0              1247 	mov	b,r0
   056E 12s00r00           1248 	lcall	__gptrget
   0571 F5*07              1249 	mov	_removeFromDeferredTypeList_sloc0_1_0,a
   0573 C3                 1250 	clr	c
   0574 E9                 1251 	mov	a,r1
   0575 95*07              1252 	subb	a,_removeFromDeferredTypeList_sloc0_1_0
   0577 50 64              1253 	jnc	00122$
                           1254 ;	D:/EiqEnergy/Projects/Software/_SoftwareLibraries/StateMachines/StateMachine_G4_eventQueue.c:169: sm->typesOfEventsToDefer[i] = sm->typesOfEventsToDefer[i + 1] ;
   0579 C0 06              1255 	push	ar6
   057B C0 07              1256 	push	ar7
   057D C0 00              1257 	push	ar0
   057F 74 17              1258 	mov	a,#0x17
   0581 2A                 1259 	add	a,r2
   0582 FE                 1260 	mov	r6,a
   0583 E4                 1261 	clr	a
   0584 3C                 1262 	addc	a,r4
   0585 FF                 1263 	mov	r7,a
   0586 8D 00              1264 	mov	ar0,r5
   0588 8E 82              1265 	mov	dpl,r6
   058A 8F 83              1266 	mov	dph,r7
   058C 88 F0              1267 	mov	b,r0
   058E 12s00r00           1268 	lcall	__gptrget
   0591 F5*09              1269 	mov	_removeFromDeferredTypeList_sloc2_1_0,a
   0593 A3                 1270 	inc	dptr
   0594 12s00r00           1271 	lcall	__gptrget
   0597 F5*0A              1272 	mov	(_removeFromDeferredTypeList_sloc2_1_0 + 1),a
   0599 A3                 1273 	inc	dptr
   059A 12s00r00           1274 	lcall	__gptrget
   059D F5*0B              1275 	mov	(_removeFromDeferredTypeList_sloc2_1_0 + 2),a
   059F E9                 1276 	mov	a,r1
   05A0 25*09              1277 	add	a,_removeFromDeferredTypeList_sloc2_1_0
   05A2 F5*0C              1278 	mov	_removeFromDeferredTypeList_sloc3_1_0,a
   05A4 E4                 1279 	clr	a
   05A5 35*0A              1280 	addc	a,(_removeFromDeferredTypeList_sloc2_1_0 + 1)
   05A7 F5*0D              1281 	mov	(_removeFromDeferredTypeList_sloc3_1_0 + 1),a
   05A9 85*0B*0E           1282 	mov	(_removeFromDeferredTypeList_sloc3_1_0 + 2),(_removeFromDeferredTypeList_sloc2_1_0 + 2)
   05AC 89 00              1283 	mov	ar0,r1
   05AE 7B 00              1284 	mov	r3,#0x00
   05B0 08                 1285 	inc	r0
   05B1 B8 00 01           1286 	cjne	r0,#0x00,00142$
   05B4 0B                 1287 	inc	r3
   05B5                    1288 00142$:
   05B5 E8                 1289 	mov	a,r0
   05B6 25*09              1290 	add	a,_removeFromDeferredTypeList_sloc2_1_0
   05B8 F8                 1291 	mov	r0,a
   05B9 EB                 1292 	mov	a,r3
   05BA 35*0A              1293 	addc	a,(_removeFromDeferredTypeList_sloc2_1_0 + 1)
   05BC FB                 1294 	mov	r3,a
   05BD AE*0B              1295 	mov	r6,(_removeFromDeferredTypeList_sloc2_1_0 + 2)
   05BF 88 82              1296 	mov	dpl,r0
   05C1 8B 83              1297 	mov	dph,r3
   05C3 8E F0              1298 	mov	b,r6
   05C5 12s00r00           1299 	lcall	__gptrget
   05C8 85*0C 82           1300 	mov	dpl,_removeFromDeferredTypeList_sloc3_1_0
   05CB 85*0D 83           1301 	mov	dph,(_removeFromDeferredTypeList_sloc3_1_0 + 1)
   05CE 85*0E F0           1302 	mov	b,(_removeFromDeferredTypeList_sloc3_1_0 + 2)
   05D1 12s00r00           1303 	lcall	__gptrput
                           1304 ;	D:/EiqEnergy/Projects/Software/_SoftwareLibraries/StateMachines/StateMachine_G4_eventQueue.c:167: for( i = i ; i < sm->currentDepthOfEventsToDeferList ; i++ )
   05D4 09                 1305 	inc	r1
   05D5 D0 00              1306 	pop	ar0
   05D7 D0 07              1307 	pop	ar7
   05D9 D0 06              1308 	pop	ar6
   05DB 80 8B              1309 	sjmp	00119$
   05DD                    1310 00122$:
                           1311 ;	D:/EiqEnergy/Projects/Software/_SoftwareLibraries/StateMachines/StateMachine_G4_eventQueue.c:172: sm->typesOfEventsToDefer[sm->currentDepthOfEventsToDeferList] = 0 ;
   05DD 74 17              1312 	mov	a,#0x17
   05DF 2A                 1313 	add	a,r2
   05E0 FB                 1314 	mov	r3,a
   05E1 E4                 1315 	clr	a
   05E2 3C                 1316 	addc	a,r4
   05E3 FE                 1317 	mov	r6,a
   05E4 8D 07              1318 	mov	ar7,r5
   05E6 8B 82              1319 	mov	dpl,r3
   05E8 8E 83              1320 	mov	dph,r6
   05EA 8F F0              1321 	mov	b,r7
   05EC 12s00r00           1322 	lcall	__gptrget
   05EF FB                 1323 	mov	r3,a
   05F0 A3                 1324 	inc	dptr
   05F1 12s00r00           1325 	lcall	__gptrget
   05F4 FE                 1326 	mov	r6,a
   05F5 A3                 1327 	inc	dptr
   05F6 12s00r00           1328 	lcall	__gptrget
   05F9 FF                 1329 	mov	r7,a
   05FA E5*07              1330 	mov	a,_removeFromDeferredTypeList_sloc0_1_0
   05FC 2B                 1331 	add	a,r3
   05FD FB                 1332 	mov	r3,a
   05FE E4                 1333 	clr	a
   05FF 3E                 1334 	addc	a,r6
   0600 FE                 1335 	mov	r6,a
   0601 8B 82              1336 	mov	dpl,r3
   0603 8E 83              1337 	mov	dph,r6
   0605 8F F0              1338 	mov	b,r7
   0607 E4                 1339 	clr	a
   0608 12s00r00           1340 	lcall	__gptrput
                           1341 ;	D:/EiqEnergy/Projects/Software/_SoftwareLibraries/StateMachines/StateMachine_G4_eventQueue.c:183: currentEvent	= eventQueue_remove(&sm->deferredEventQueue) ;
   060B 74 1A              1342 	mov	a,#0x1A
   060D 2A                 1343 	add	a,r2
   060E FA                 1344 	mov	r2,a
   060F E4                 1345 	clr	a
   0610 3C                 1346 	addc	a,r4
   0611 FC                 1347 	mov	r4,a
   0612 8A 82              1348 	mov	dpl,r2
   0614 8C 83              1349 	mov	dph,r4
   0616 8D F0              1350 	mov	b,r5
   0618 12s02rEC           1351 	lcall	_eventQueue_remove
   061B AA 82              1352 	mov	r2,dpl
   061D AB 83              1353 	mov	r3,dph
   061F AC F0              1354 	mov	r4,b
   0621 90s00r2D           1355 	mov	dptr,#_removeFromDeferredTypeList_currentEvent_3_5
   0624 EA                 1356 	mov	a,r2
   0625 F0                 1357 	movx	@dptr,a
   0626 A3                 1358 	inc	dptr
   0627 EB                 1359 	mov	a,r3
   0628 F0                 1360 	movx	@dptr,a
   0629 A3                 1361 	inc	dptr
   062A EC                 1362 	mov	a,r4
   062B F0                 1363 	movx	@dptr,a
                           1364 ;	D:/EiqEnergy/Projects/Software/_SoftwareLibraries/StateMachines/StateMachine_G4_eventQueue.c:186: while(currentEvent)
   062C 90s00r29           1365 	mov	dptr,#_removeFromDeferredTypeList_sm_1_1
   062F E0                 1366 	movx	a,@dptr
   0630 FD                 1367 	mov	r5,a
   0631 A3                 1368 	inc	dptr
   0632 E0                 1369 	movx	a,@dptr
   0633 FE                 1370 	mov	r6,a
   0634 A3                 1371 	inc	dptr
   0635 E0                 1372 	movx	a,@dptr
   0636 FF                 1373 	mov	r7,a
   0637 8D*0C              1374 	mov	_removeFromDeferredTypeList_sloc3_1_0,r5
   0639 8E*0D              1375 	mov	(_removeFromDeferredTypeList_sloc3_1_0 + 1),r6
   063B 8F*0E              1376 	mov	(_removeFromDeferredTypeList_sloc3_1_0 + 2),r7
   063D 8D*09              1377 	mov	_removeFromDeferredTypeList_sloc2_1_0,r5
   063F 8E*0A              1378 	mov	(_removeFromDeferredTypeList_sloc2_1_0 + 1),r6
   0641 8F*0B              1379 	mov	(_removeFromDeferredTypeList_sloc2_1_0 + 2),r7
   0643                    1380 00112$:
   0643 90s00r2D           1381 	mov	dptr,#_removeFromDeferredTypeList_currentEvent_3_5
   0646 E0                 1382 	movx	a,@dptr
   0647 F5*0F              1383 	mov	_removeFromDeferredTypeList_sloc4_1_0,a
   0649 A3                 1384 	inc	dptr
   064A E0                 1385 	movx	a,@dptr
   064B F5*10              1386 	mov	(_removeFromDeferredTypeList_sloc4_1_0 + 1),a
   064D A3                 1387 	inc	dptr
   064E E0                 1388 	movx	a,@dptr
   064F F5*11              1389 	mov	(_removeFromDeferredTypeList_sloc4_1_0 + 2),a
   0651 E5*0F              1390 	mov	a,_removeFromDeferredTypeList_sloc4_1_0
   0653 45*10              1391 	orl	a,(_removeFromDeferredTypeList_sloc4_1_0 + 1)
   0655 45*11              1392 	orl	a,(_removeFromDeferredTypeList_sloc4_1_0 + 2)
   0657 70 01              1393 	jnz	00143$
   0659 22                 1394 	ret
   065A                    1395 00143$:
                           1396 ;	D:/EiqEnergy/Projects/Software/_SoftwareLibraries/StateMachines/StateMachine_G4_eventQueue.c:196: if(hsm_getEventType(currentEvent) == eventTypeToUnDefer)
   065A 85*0F 82           1397 	mov	dpl,_removeFromDeferredTypeList_sloc4_1_0
   065D 85*10 83           1398 	mov	dph,(_removeFromDeferredTypeList_sloc4_1_0 + 1)
   0660 85*11 F0           1399 	mov	b,(_removeFromDeferredTypeList_sloc4_1_0 + 2)
   0663 12s00r00           1400 	lcall	__gptrget
   0666 F8                 1401 	mov	r0,a
   0667 B5*08 48           1402 	cjne	a,_removeFromDeferredTypeList_sloc1_1_0,00108$
                           1403 ;	D:/EiqEnergy/Projects/Software/_SoftwareLibraries/StateMachines/StateMachine_G4_eventQueue.c:198: eventQueue_insert(&sm->eventQueue, currentEvent) ;
   066A C0 02              1404 	push	ar2
   066C C0 03              1405 	push	ar3
   066E C0 04              1406 	push	ar4
   0670 74 0E              1407 	mov	a,#0x0E
   0672 25*0C              1408 	add	a,_removeFromDeferredTypeList_sloc3_1_0
   0674 F8                 1409 	mov	r0,a
   0675 E4                 1410 	clr	a
   0676 35*0D              1411 	addc	a,(_removeFromDeferredTypeList_sloc3_1_0 + 1)
   0678 F9                 1412 	mov	r1,a
   0679 AA*0E              1413 	mov	r2,(_removeFromDeferredTypeList_sloc3_1_0 + 2)
   067B 90s00r17           1414 	mov	dptr,#_eventQueue_insert_PARM_2
   067E E5*0F              1415 	mov	a,_removeFromDeferredTypeList_sloc4_1_0
   0680 F0                 1416 	movx	@dptr,a
   0681 A3                 1417 	inc	dptr
   0682 E5*10              1418 	mov	a,(_removeFromDeferredTypeList_sloc4_1_0 + 1)
   0684 F0                 1419 	movx	@dptr,a
   0685 A3                 1420 	inc	dptr
   0686 E5*11              1421 	mov	a,(_removeFromDeferredTypeList_sloc4_1_0 + 2)
   0688 F0                 1422 	movx	@dptr,a
   0689 88 82              1423 	mov	dpl,r0
   068B 89 83              1424 	mov	dph,r1
   068D 8A F0              1425 	mov	b,r2
   068F C0 02              1426 	push	ar2
   0691 C0 03              1427 	push	ar3
   0693 C0 04              1428 	push	ar4
   0695 C0 05              1429 	push	ar5
   0697 C0 06              1430 	push	ar6
   0699 C0 07              1431 	push	ar7
   069B 12s01rAE           1432 	lcall	_eventQueue_insert
   069E D0 07              1433 	pop	ar7
   06A0 D0 06              1434 	pop	ar6
   06A2 D0 05              1435 	pop	ar5
   06A4 D0 04              1436 	pop	ar4
   06A6 D0 03              1437 	pop	ar3
   06A8 D0 02              1438 	pop	ar2
   06AA D0 04              1439 	pop	ar4
   06AC D0 03              1440 	pop	ar3
   06AE D0 02              1441 	pop	ar2
   06B0 80 44              1442 	sjmp	00109$
   06B2                    1443 00108$:
                           1444 ;	D:/EiqEnergy/Projects/Software/_SoftwareLibraries/StateMachines/StateMachine_G4_eventQueue.c:202: eventQueue_insert(&sm->deferredEventQueue, currentEvent) ;
   06B2 C0 02              1445 	push	ar2
   06B4 C0 03              1446 	push	ar3
   06B6 C0 04              1447 	push	ar4
   06B8 74 1A              1448 	mov	a,#0x1A
   06BA 2D                 1449 	add	a,r5
   06BB F8                 1450 	mov	r0,a
   06BC E4                 1451 	clr	a
   06BD 3E                 1452 	addc	a,r6
   06BE F9                 1453 	mov	r1,a
   06BF 8F 02              1454 	mov	ar2,r7
   06C1 90s00r17           1455 	mov	dptr,#_eventQueue_insert_PARM_2
   06C4 E5*0F              1456 	mov	a,_removeFromDeferredTypeList_sloc4_1_0
   06C6 F0                 1457 	movx	@dptr,a
   06C7 A3                 1458 	inc	dptr
   06C8 E5*10              1459 	mov	a,(_removeFromDeferredTypeList_sloc4_1_0 + 1)
   06CA F0                 1460 	movx	@dptr,a
   06CB A3                 1461 	inc	dptr
   06CC E5*11              1462 	mov	a,(_removeFromDeferredTypeList_sloc4_1_0 + 2)
   06CE F0                 1463 	movx	@dptr,a
   06CF 88 82              1464 	mov	dpl,r0
   06D1 89 83              1465 	mov	dph,r1
   06D3 8A F0              1466 	mov	b,r2
   06D5 C0 02              1467 	push	ar2
   06D7 C0 03              1468 	push	ar3
   06D9 C0 04              1469 	push	ar4
   06DB C0 05              1470 	push	ar5
   06DD C0 06              1471 	push	ar6
   06DF C0 07              1472 	push	ar7
   06E1 12s01rAE           1473 	lcall	_eventQueue_insert
   06E4 D0 07              1474 	pop	ar7
   06E6 D0 06              1475 	pop	ar6
   06E8 D0 05              1476 	pop	ar5
   06EA D0 04              1477 	pop	ar4
   06EC D0 03              1478 	pop	ar3
   06EE D0 02              1479 	pop	ar2
                           1480 ;	D:/EiqEnergy/Projects/Software/_SoftwareLibraries/StateMachines/StateMachine_G4_eventQueue.c:215: break ;
   06F0 D0 04              1481 	pop	ar4
   06F2 D0 03              1482 	pop	ar3
   06F4 D0 02              1483 	pop	ar2
                           1484 ;	D:/EiqEnergy/Projects/Software/_SoftwareLibraries/StateMachines/StateMachine_G4_eventQueue.c:202: eventQueue_insert(&sm->deferredEventQueue, currentEvent) ;
   06F6                    1485 00109$:
                           1486 ;	D:/EiqEnergy/Projects/Software/_SoftwareLibraries/StateMachines/StateMachine_G4_eventQueue.c:211: currentEvent = eventQueue_remove(&sm->deferredEventQueue) ;
   06F6 C0 05              1487 	push	ar5
   06F8 C0 06              1488 	push	ar6
   06FA C0 07              1489 	push	ar7
   06FC 74 1A              1490 	mov	a,#0x1A
   06FE 25*09              1491 	add	a,_removeFromDeferredTypeList_sloc2_1_0
   0700 F8                 1492 	mov	r0,a
   0701 E4                 1493 	clr	a
   0702 35*0A              1494 	addc	a,(_removeFromDeferredTypeList_sloc2_1_0 + 1)
   0704 F9                 1495 	mov	r1,a
   0705 AD*0B              1496 	mov	r5,(_removeFromDeferredTypeList_sloc2_1_0 + 2)
   0707 88 82              1497 	mov	dpl,r0
   0709 89 83              1498 	mov	dph,r1
   070B 8D F0              1499 	mov	b,r5
   070D C0 02              1500 	push	ar2
   070F C0 03              1501 	push	ar3
   0711 C0 04              1502 	push	ar4
   0713 12s02rEC           1503 	lcall	_eventQueue_remove
   0716 AD 82              1504 	mov	r5,dpl
   0718 AE 83              1505 	mov	r6,dph
   071A AF F0              1506 	mov	r7,b
   071C D0 04              1507 	pop	ar4
   071E D0 03              1508 	pop	ar3
   0720 D0 02              1509 	pop	ar2
   0722 90s00r2D           1510 	mov	dptr,#_removeFromDeferredTypeList_currentEvent_3_5
   0725 ED                 1511 	mov	a,r5
   0726 F0                 1512 	movx	@dptr,a
   0727 A3                 1513 	inc	dptr
   0728 EE                 1514 	mov	a,r6
   0729 F0                 1515 	movx	@dptr,a
   072A A3                 1516 	inc	dptr
   072B EF                 1517 	mov	a,r7
   072C F0                 1518 	movx	@dptr,a
                           1519 ;	D:/EiqEnergy/Projects/Software/_SoftwareLibraries/StateMachines/StateMachine_G4_eventQueue.c:213: if(currentEvent == firstEvent)
   072D ED                 1520 	mov	a,r5
   072E B5 02 0A           1521 	cjne	a,ar2,00146$
   0731 EE                 1522 	mov	a,r6
   0732 B5 03 06           1523 	cjne	a,ar3,00146$
   0735 EF                 1524 	mov	a,r7
   0736 B5 04 02           1525 	cjne	a,ar4,00146$
   0739 80 09              1526 	sjmp	00147$
   073B                    1527 00146$:
   073B D0 07              1528 	pop	ar7
   073D D0 06              1529 	pop	ar6
   073F D0 05              1530 	pop	ar5
   0741 02s06r43           1531 	ljmp	00112$
   0744                    1532 00147$:
   0744 D0 07              1533 	pop	ar7
   0746 D0 06              1534 	pop	ar6
   0748 D0 05              1535 	pop	ar5
                           1536 ;	D:/EiqEnergy/Projects/Software/_SoftwareLibraries/StateMachines/StateMachine_G4_eventQueue.c:215: break ;
   074A 22                 1537 	ret
                           1538 ;------------------------------------------------------------
                           1539 ;Allocation info for local variables in function 'postEventToStateMachine'
                           1540 ;------------------------------------------------------------
                           1541 ;event                     Allocated with name '_postEventToStateMachine_PARM_2'
                           1542 ;sm                        Allocated with name '_postEventToStateMachine_sm_1_1'
                           1543 ;------------------------------------------------------------
                           1544 ;	D:/EiqEnergy/Projects/Software/_SoftwareLibraries/StateMachines/StateMachine_G4_eventQueue.c:223: bool postEventToStateMachine(			stateMachine_t* sm, event_t* event)
                           1545 ;	-----------------------------------------
                           1546 ;	 function postEventToStateMachine
                           1547 ;	-----------------------------------------
   074B                    1548 _postEventToStateMachine:
   074B AA F0              1549 	mov	r2,b
   074D AB 83              1550 	mov	r3,dph
   074F E5 82              1551 	mov	a,dpl
   0751 90s00r33           1552 	mov	dptr,#_postEventToStateMachine_sm_1_1
   0754 F0                 1553 	movx	@dptr,a
   0755 A3                 1554 	inc	dptr
   0756 EB                 1555 	mov	a,r3
   0757 F0                 1556 	movx	@dptr,a
   0758 A3                 1557 	inc	dptr
   0759 EA                 1558 	mov	a,r2
   075A F0                 1559 	movx	@dptr,a
                           1560 ;	D:/EiqEnergy/Projects/Software/_SoftwareLibraries/StateMachines/StateMachine_G4_eventQueue.c:225: if(isEventTypeDeferred(sm, hsm_getEventType(event)))
   075B 90s00r33           1561 	mov	dptr,#_postEventToStateMachine_sm_1_1
   075E E0                 1562 	movx	a,@dptr
   075F FA                 1563 	mov	r2,a
   0760 A3                 1564 	inc	dptr
   0761 E0                 1565 	movx	a,@dptr
   0762 FB                 1566 	mov	r3,a
   0763 A3                 1567 	inc	dptr
   0764 E0                 1568 	movx	a,@dptr
   0765 FC                 1569 	mov	r4,a
   0766 90s00r30           1570 	mov	dptr,#_postEventToStateMachine_PARM_2
   0769 E0                 1571 	movx	a,@dptr
   076A FD                 1572 	mov	r5,a
   076B A3                 1573 	inc	dptr
   076C E0                 1574 	movx	a,@dptr
   076D FE                 1575 	mov	r6,a
   076E A3                 1576 	inc	dptr
   076F E0                 1577 	movx	a,@dptr
   0770 FF                 1578 	mov	r7,a
   0771 8D 82              1579 	mov	dpl,r5
   0773 8E 83              1580 	mov	dph,r6
   0775 8F F0              1581 	mov	b,r7
   0777 12s00r00           1582 	lcall	__gptrget
   077A 90s00r24           1583 	mov	dptr,#_isEventTypeDeferred_PARM_2
   077D F0                 1584 	movx	@dptr,a
   077E 8A 82              1585 	mov	dpl,r2
   0780 8B 83              1586 	mov	dph,r3
   0782 8C F0              1587 	mov	b,r4
   0784 C0 05              1588 	push	ar5
   0786 C0 06              1589 	push	ar6
   0788 C0 07              1590 	push	ar7
   078A 12s04r1D           1591 	lcall	_isEventTypeDeferred
   078D D0 07              1592 	pop	ar7
   078F D0 06              1593 	pop	ar6
   0791 D0 05              1594 	pop	ar5
   0793 50 29              1595 	jnc	00102$
                           1596 ;	D:/EiqEnergy/Projects/Software/_SoftwareLibraries/StateMachines/StateMachine_G4_eventQueue.c:227: return eventQueue_insert(&sm->deferredEventQueue, event) ;
   0795 90s00r33           1597 	mov	dptr,#_postEventToStateMachine_sm_1_1
   0798 E0                 1598 	movx	a,@dptr
   0799 FA                 1599 	mov	r2,a
   079A A3                 1600 	inc	dptr
   079B E0                 1601 	movx	a,@dptr
   079C FB                 1602 	mov	r3,a
   079D A3                 1603 	inc	dptr
   079E E0                 1604 	movx	a,@dptr
   079F FC                 1605 	mov	r4,a
   07A0 74 1A              1606 	mov	a,#0x1A
   07A2 2A                 1607 	add	a,r2
   07A3 FA                 1608 	mov	r2,a
   07A4 E4                 1609 	clr	a
   07A5 3B                 1610 	addc	a,r3
   07A6 FB                 1611 	mov	r3,a
   07A7 90s00r17           1612 	mov	dptr,#_eventQueue_insert_PARM_2
   07AA ED                 1613 	mov	a,r5
   07AB F0                 1614 	movx	@dptr,a
   07AC A3                 1615 	inc	dptr
   07AD EE                 1616 	mov	a,r6
   07AE F0                 1617 	movx	@dptr,a
   07AF A3                 1618 	inc	dptr
   07B0 EF                 1619 	mov	a,r7
   07B1 F0                 1620 	movx	@dptr,a
   07B2 8A 82              1621 	mov	dpl,r2
   07B4 8B 83              1622 	mov	dph,r3
   07B6 8C F0              1623 	mov	b,r4
   07B8 12s01rAE           1624 	lcall	_eventQueue_insert
   07BB 92*02              1625 	mov  _postEventToStateMachine_sloc0_1_0,c
   07BD 22                 1626 	ret
   07BE                    1627 00102$:
                           1628 ;	D:/EiqEnergy/Projects/Software/_SoftwareLibraries/StateMachines/StateMachine_G4_eventQueue.c:231: return eventQueue_insert(&sm->eventQueue, event) ;
   07BE 90s00r33           1629 	mov	dptr,#_postEventToStateMachine_sm_1_1
   07C1 E0                 1630 	movx	a,@dptr
   07C2 FA                 1631 	mov	r2,a
   07C3 A3                 1632 	inc	dptr
   07C4 E0                 1633 	movx	a,@dptr
   07C5 FB                 1634 	mov	r3,a
   07C6 A3                 1635 	inc	dptr
   07C7 E0                 1636 	movx	a,@dptr
   07C8 FC                 1637 	mov	r4,a
   07C9 74 0E              1638 	mov	a,#0x0E
   07CB 2A                 1639 	add	a,r2
   07CC FA                 1640 	mov	r2,a
   07CD E4                 1641 	clr	a
   07CE 3B                 1642 	addc	a,r3
   07CF FB                 1643 	mov	r3,a
   07D0 90s00r17           1644 	mov	dptr,#_eventQueue_insert_PARM_2
   07D3 ED                 1645 	mov	a,r5
   07D4 F0                 1646 	movx	@dptr,a
   07D5 A3                 1647 	inc	dptr
   07D6 EE                 1648 	mov	a,r6
   07D7 F0                 1649 	movx	@dptr,a
   07D8 A3                 1650 	inc	dptr
   07D9 EF                 1651 	mov	a,r7
   07DA F0                 1652 	movx	@dptr,a
   07DB 8A 82              1653 	mov	dpl,r2
   07DD 8B 83              1654 	mov	dph,r3
   07DF 8C F0              1655 	mov	b,r4
   07E1 12s01rAE           1656 	lcall	_eventQueue_insert
   07E4 92*02              1657 	mov  _postEventToStateMachine_sloc0_1_0,c
   07E6 22                 1658 	ret
                           1659 	.area CSEG    (CODE)
                           1660 	.area CONST   (CODE)
   0000                    1661 __str_0:
   0000 09                 1662 	.db 0x09
   0001 09                 1663 	.db 0x09
   0002 09                 1664 	.db 0x09
   0003 50 6F 73 74 69 6E  1665 	.ascii "Posting event type: %s"
        67 20 65 76 65 6E
        74 20 74 79 70 65
        3A 20 25 73
   0019 0A                 1666 	.db 0x0A
   001A 00                 1667 	.db 0x00
   001B                    1668 __str_1:
   001B 3C 55 53 45 52 5F  1669 	.ascii "<USER_EVENT>"
        45 56 45 4E 54 3E
   0027 00                 1670 	.db 0x00
                           1671 	.area XINIT   (CODE)
                           1672 	.area CABS    (ABS,CODE)
