                              1 ;--------------------------------------------------------
                              2 ; File Created by SDCC : free open source ANSI-C Compiler
                              3 ; Version 2.9.0 #5416 (Mar 22 2009) (MINGW32)
                              4 ; This file was generated Sat Jan 02 19:24:46 2010
                              5 ;--------------------------------------------------------
                              6 	.module stateMachine_G4
                              7 	.optsdcc -mmcs51 --model-large
                              8 	
                              9 ;--------------------------------------------------------
                             10 ; Public variables in this module
                             11 ;--------------------------------------------------------
                             12 	.globl _callStateHandler
                             13 	.globl _responseTypes
                             14 	.globl _eventTypes
                             15 	.globl _callStateHandler_PARM_3
                             16 	.globl _callStateHandler_PARM_2
                             17 	.globl _deallocateStateMachineMemory_PARM_2
                             18 	.globl _allocateStateMachineMemory_PARM_2
                             19 	.globl _stateMachines
                             20 	.globl _allocateStateMachineMemory
                             21 	.globl _deallocateStateMachineMemory
                             22 	.globl _registerStateMachine
                             23 	.globl _unregisterStateMachine
                             24 	.globl _iterateAllStateMachines
                             25 	.globl _iterateStateMachine
                             26 ;--------------------------------------------------------
                             27 ; special function registers
                             28 ;--------------------------------------------------------
                             29 	.area RSEG    (DATA)
                             30 ;--------------------------------------------------------
                             31 ; special function bits
                             32 ;--------------------------------------------------------
                             33 	.area RSEG    (DATA)
                             34 ;--------------------------------------------------------
                             35 ; overlayable register banks
                             36 ;--------------------------------------------------------
                             37 	.area REG_BANK_0	(REL,OVR,DATA)
   0000                      38 	.ds 8
                             39 ;--------------------------------------------------------
                             40 ; internal ram data
                             41 ;--------------------------------------------------------
                             42 	.area DSEG    (DATA)
   0000                      43 _allocateStateMachineMemory_sloc0_1_0:
   0000                      44 	.ds 2
   0002                      45 _allocateStateMachineMemory_sloc1_1_0:
   0002                      46 	.ds 3
   0005                      47 _callStateHandler_sloc0_1_0:
   0005                      48 	.ds 3
   0008                      49 _callStateHandler_sloc1_1_0:
   0008                      50 	.ds 1
   0009                      51 _callStateHandler_sloc2_1_0:
   0009                      52 	.ds 3
   000C                      53 _iterateStateMachine_sloc0_1_0:
   000C                      54 	.ds 3
   000F                      55 _iterateStateMachine_sloc1_1_0:
   000F                      56 	.ds 1
   0010                      57 _iterateStateMachine_sloc2_1_0:
   0010                      58 	.ds 3
   0013                      59 _iterateStateMachine_sloc3_1_0:
   0013                      60 	.ds 3
   0016                      61 _iterateStateMachine_sloc4_1_0:
   0016                      62 	.ds 3
   0019                      63 _iterateStateMachine_sloc5_1_0:
   0019                      64 	.ds 3
                             65 ;--------------------------------------------------------
                             66 ; overlayable items in internal ram 
                             67 ;--------------------------------------------------------
                             68 	.area OSEG    (OVR,DATA)
                             69 ;--------------------------------------------------------
                             70 ; indirectly addressable internal ram data
                             71 ;--------------------------------------------------------
                             72 	.area ISEG    (DATA)
                             73 ;--------------------------------------------------------
                             74 ; absolute internal ram data
                             75 ;--------------------------------------------------------
                             76 	.area IABS    (ABS,DATA)
                             77 	.area IABS    (ABS,DATA)
                             78 ;--------------------------------------------------------
                             79 ; bit data
                             80 ;--------------------------------------------------------
                             81 	.area BSEG    (BIT)
                             82 ;--------------------------------------------------------
                             83 ; paged external ram data
                             84 ;--------------------------------------------------------
                             85 	.area PSEG    (PAG,XDATA)
                             86 ;--------------------------------------------------------
                             87 ; external ram data
                             88 ;--------------------------------------------------------
                             89 	.area XSEG    (XDATA)
   0000                      90 _stateMachines::
   0000                      91 	.ds 150
   0096                      92 _allocateStateMachineMemory_PARM_2:
   0096                      93 	.ds 2
   0098                      94 _allocateStateMachineMemory_eventQueueDepth_1_1:
   0098                      95 	.ds 2
   009A                      96 _deallocateStateMachineMemory_PARM_2:
   009A                      97 	.ds 2
   009C                      98 _deallocateStateMachineMemory_instance_1_1:
   009C                      99 	.ds 3
   009F                     100 _registerStateMachine_sm_1_1:
   009F                     101 	.ds 3
   00A2                     102 _unregisterStateMachine_sm_1_1:
   00A2                     103 	.ds 3
   00A5                     104 _callStateHandler_PARM_2:
   00A5                     105 	.ds 3
   00A8                     106 _callStateHandler_PARM_3:
   00A8                     107 	.ds 3
   00AB                     108 _callStateHandler_sm_1_1:
   00AB                     109 	.ds 3
   00AE                     110 _callStateHandler_response_1_1:
   00AE                     111 	.ds 1
   00AF                     112 _iterateStateMachine_sm_1_1:
   00AF                     113 	.ds 3
   00B2                     114 _iterateStateMachine_eventToProcess_2_3:
   00B2                     115 	.ds 3
   00B5                     116 _iterateStateMachine_stateBeingProcessed_2_3:
   00B5                     117 	.ds 3
   00B8                     118 _iterateStateMachine_action_2_3:
   00B8                     119 	.ds 1
   00B9                     120 _iterateStateMachine_sourceHierarchy_4_19:
   00B9                     121 	.ds 48
   00E9                     122 _iterateStateMachine_sourceIndex_4_19:
   00E9                     123 	.ds 1
   00EA                     124 _iterateStateMachine_targetHierarchy_4_19:
   00EA                     125 	.ds 48
   011A                     126 _iterateStateMachine_targetIndex_4_19:
   011A                     127 	.ds 1
   011B                     128 _iterateStateMachine_LCA_4_19:
   011B                     129 	.ds 3
   011E                     130 _iterateStateMachine_entryIndex_4_19:
   011E                     131 	.ds 1
                            132 ;--------------------------------------------------------
                            133 ; absolute external ram data
                            134 ;--------------------------------------------------------
                            135 	.area XABS    (ABS,XDATA)
                            136 ;--------------------------------------------------------
                            137 ; external initialized ram data
                            138 ;--------------------------------------------------------
                            139 	.area XISEG   (XDATA)
   0000                     140 _eventTypes::
   0000                     141 	.ds 18
   0012                     142 _responseTypes::
   0012                     143 	.ds 12
   001E                     144 _initialTransitionEvent:
   001E                     145 	.ds 1
   001F                     146 _jumpToHistoryEvent:
   001F                     147 	.ds 1
   0020                     148 _enterEvent:
   0020                     149 	.ds 1
   0021                     150 _exitEvent:
   0021                     151 	.ds 1
                            152 	.area HOME    (CODE)
                            153 	.area GSINIT0 (CODE)
                            154 	.area GSINIT1 (CODE)
                            155 	.area GSINIT2 (CODE)
                            156 	.area GSINIT3 (CODE)
                            157 	.area GSINIT4 (CODE)
                            158 	.area GSINIT5 (CODE)
                            159 	.area GSINIT  (CODE)
                            160 	.area GSFINAL (CODE)
                            161 	.area CSEG    (CODE)
                            162 ;--------------------------------------------------------
                            163 ; global & static initialisations
                            164 ;--------------------------------------------------------
                            165 	.area HOME    (CODE)
                            166 	.area GSINIT  (CODE)
                            167 	.area GSFINAL (CODE)
                            168 	.area GSINIT  (CODE)
                            169 ;--------------------------------------------------------
                            170 ; Home
                            171 ;--------------------------------------------------------
                            172 	.area HOME    (CODE)
                            173 	.area HOME    (CODE)
                            174 ;--------------------------------------------------------
                            175 ; code
                            176 ;--------------------------------------------------------
                            177 	.area CSEG    (CODE)
                            178 ;------------------------------------------------------------
                            179 ;Allocation info for local variables in function 'allocateStateMachineMemory'
                            180 ;------------------------------------------------------------
                            181 ;sloc0                     Allocated with name '_allocateStateMachineMemory_sloc0_1_0'
                            182 ;sloc1                     Allocated with name '_allocateStateMachineMemory_sloc1_1_0'
                            183 ;constructor               Allocated with name '_allocateStateMachineMemory_PARM_2'
                            184 ;eventQueueDepth           Allocated with name '_allocateStateMachineMemory_eventQueueDepth_1_1'
                            185 ;instance                  Allocated with name '_allocateStateMachineMemory_instance_1_1'
                            186 ;eventQueue                Allocated with name '_allocateStateMachineMemory_eventQueue_2_2'
                            187 ;typesOfEventsToDefer      Allocated with name '_allocateStateMachineMemory_typesOfEventsToDefer_3_3'
                            188 ;deferredEventQueue        Allocated with name '_allocateStateMachineMemory_deferredEventQueue_4_4'
                            189 ;------------------------------------------------------------
                            190 ;	D:/EiqEnergy/Projects/Software/_SoftwareLibraries/StateMachines/stateMachine_G4.c:36: stateMachine_t* allocateStateMachineMemory(		uint16_t eventQueueDepth,
                            191 ;	-----------------------------------------
                            192 ;	 function allocateStateMachineMemory
                            193 ;	-----------------------------------------
   0000                     194 _allocateStateMachineMemory:
                    0002    195 	ar2 = 0x02
                    0003    196 	ar3 = 0x03
                    0004    197 	ar4 = 0x04
                    0005    198 	ar5 = 0x05
                    0006    199 	ar6 = 0x06
                    0007    200 	ar7 = 0x07
                    0000    201 	ar0 = 0x00
                    0001    202 	ar1 = 0x01
   0000 AA 83               203 	mov	r2,dph
   0002 E5 82               204 	mov	a,dpl
   0004 90s00r98            205 	mov	dptr,#_allocateStateMachineMemory_eventQueueDepth_1_1
   0007 F0                  206 	movx	@dptr,a
   0008 A3                  207 	inc	dptr
   0009 EA                  208 	mov	a,r2
   000A F0                  209 	movx	@dptr,a
                            210 ;	D:/EiqEnergy/Projects/Software/_SoftwareLibraries/StateMachines/stateMachine_G4.c:39: stateMachine_t*	instance = malloc(sizeof(stateMachine_t)) ;
   000B 90 00 2B            211 	mov	dptr,#0x002B
   000E 12s00r00            212 	lcall	_malloc
   0011 AA 82               213 	mov	r2,dpl
   0013 AB 83               214 	mov	r3,dph
   0015 7C 00               215 	mov	r4,#0x00
                            216 ;	D:/EiqEnergy/Projects/Software/_SoftwareLibraries/StateMachines/stateMachine_G4.c:41: if(instance)
   0017 EA                  217 	mov	a,r2
   0018 4B                  218 	orl	a,r3
   0019 4C                  219 	orl	a,r4
   001A 70 03               220 	jnz	00115$
   001C 02s01rFE            221 	ljmp	00108$
   001F                     222 00115$:
                            223 ;	D:/EiqEnergy/Projects/Software/_SoftwareLibraries/StateMachines/stateMachine_G4.c:45: memset((char*)instance, 0, sizeof(stateMachine_t)) ;
   001F 90s00r00            224 	mov	dptr,#_memset_PARM_2
   0022 E4                  225 	clr	a
   0023 F0                  226 	movx	@dptr,a
   0024 90s00r00            227 	mov	dptr,#_memset_PARM_3
   0027 74 2B               228 	mov	a,#0x2B
   0029 F0                  229 	movx	@dptr,a
   002A E4                  230 	clr	a
   002B A3                  231 	inc	dptr
   002C F0                  232 	movx	@dptr,a
   002D 8A 82               233 	mov	dpl,r2
   002F 8B 83               234 	mov	dph,r3
   0031 8C F0               235 	mov	b,r4
   0033 C0 02               236 	push	ar2
   0035 C0 03               237 	push	ar3
   0037 C0 04               238 	push	ar4
   0039 12s00r00            239 	lcall	_memset
                            240 ;	D:/EiqEnergy/Projects/Software/_SoftwareLibraries/StateMachines/stateMachine_G4.c:47: eventQueue = (event_t**)malloc(eventQueueDepth * sizeof(event_t*)) ;
   003C 90s00r98            241 	mov	dptr,#_allocateStateMachineMemory_eventQueueDepth_1_1
   003F E0                  242 	movx	a,@dptr
   0040 F5*00               243 	mov	_allocateStateMachineMemory_sloc0_1_0,a
   0042 A3                  244 	inc	dptr
   0043 E0                  245 	movx	a,@dptr
   0044 F5*01               246 	mov	(_allocateStateMachineMemory_sloc0_1_0 + 1),a
   0046 90s00r00            247 	mov	dptr,#__mulint_PARM_2
   0049 E5*00               248 	mov	a,_allocateStateMachineMemory_sloc0_1_0
   004B F0                  249 	movx	@dptr,a
   004C A3                  250 	inc	dptr
   004D E5*01               251 	mov	a,(_allocateStateMachineMemory_sloc0_1_0 + 1)
   004F F0                  252 	movx	@dptr,a
   0050 90 00 03            253 	mov	dptr,#0x0003
   0053 12s00r00            254 	lcall	__mulint
   0056 AF 82               255 	mov	r7,dpl
   0058 A8 83               256 	mov  r0,dph
   005A C0 07               257 	push	ar7
   005C C0 00               258 	push	ar0
   005E 12s00r00            259 	lcall	_malloc
   0061 A9 82               260 	mov	r1,dpl
   0063 AD 83               261 	mov	r5,dph
   0065 D0 00               262 	pop	ar0
   0067 D0 07               263 	pop	ar7
   0069 D0 04               264 	pop	ar4
   006B D0 03               265 	pop	ar3
   006D D0 02               266 	pop	ar2
   006F 89*02               267 	mov	_allocateStateMachineMemory_sloc1_1_0,r1
   0071 8D*03               268 	mov	(_allocateStateMachineMemory_sloc1_1_0 + 1),r5
   0073 75*04 00            269 	mov	(_allocateStateMachineMemory_sloc1_1_0 + 2),#0x00
                            270 ;	D:/EiqEnergy/Projects/Software/_SoftwareLibraries/StateMachines/stateMachine_G4.c:49: if(eventQueue)
   0076 E5*02               271 	mov	a,_allocateStateMachineMemory_sloc1_1_0
   0078 45*03               272 	orl	a,(_allocateStateMachineMemory_sloc1_1_0 + 1)
   007A 45*04               273 	orl	a,(_allocateStateMachineMemory_sloc1_1_0 + 2)
   007C 70 03               274 	jnz	00116$
   007E 02s01rFE            275 	ljmp	00108$
   0081                     276 00116$:
                            277 ;	D:/EiqEnergy/Projects/Software/_SoftwareLibraries/StateMachines/stateMachine_G4.c:53: memset((char*)eventQueue, 0, eventQueueDepth * sizeof(event_t*)) ;
   0081 90s00r00            278 	mov	dptr,#_memset_PARM_2
   0084 E4                  279 	clr	a
   0085 F0                  280 	movx	@dptr,a
   0086 90s00r00            281 	mov	dptr,#_memset_PARM_3
   0089 EF                  282 	mov	a,r7
   008A F0                  283 	movx	@dptr,a
   008B A3                  284 	inc	dptr
   008C E8                  285 	mov	a,r0
   008D F0                  286 	movx	@dptr,a
   008E 85*02 82            287 	mov	dpl,_allocateStateMachineMemory_sloc1_1_0
   0091 85*03 83            288 	mov	dph,(_allocateStateMachineMemory_sloc1_1_0 + 1)
   0094 85*04 F0            289 	mov	b,(_allocateStateMachineMemory_sloc1_1_0 + 2)
   0097 C0 02               290 	push	ar2
   0099 C0 03               291 	push	ar3
   009B C0 04               292 	push	ar4
   009D C0 07               293 	push	ar7
   009F C0 00               294 	push	ar0
   00A1 12s00r00            295 	lcall	_memset
   00A4 D0 00               296 	pop	ar0
   00A6 D0 07               297 	pop	ar7
   00A8 D0 04               298 	pop	ar4
   00AA D0 03               299 	pop	ar3
   00AC D0 02               300 	pop	ar2
                            301 ;	D:/EiqEnergy/Projects/Software/_SoftwareLibraries/StateMachines/stateMachine_G4.c:54: eventQueue_initialize(&instance->eventQueue, eventQueue, eventQueueDepth) ;
   00AE 74 0B               302 	mov	a,#0x0B
   00B0 2A                  303 	add	a,r2
   00B1 FD                  304 	mov	r5,a
   00B2 E4                  305 	clr	a
   00B3 3B                  306 	addc	a,r3
   00B4 FE                  307 	mov	r6,a
   00B5 8C 01               308 	mov	ar1,r4
   00B7 90s00r00            309 	mov	dptr,#_eventQueue_initialize_PARM_2
   00BA E5*02               310 	mov	a,_allocateStateMachineMemory_sloc1_1_0
   00BC F0                  311 	movx	@dptr,a
   00BD A3                  312 	inc	dptr
   00BE E5*03               313 	mov	a,(_allocateStateMachineMemory_sloc1_1_0 + 1)
   00C0 F0                  314 	movx	@dptr,a
   00C1 A3                  315 	inc	dptr
   00C2 E5*04               316 	mov	a,(_allocateStateMachineMemory_sloc1_1_0 + 2)
   00C4 F0                  317 	movx	@dptr,a
   00C5 90s00r00            318 	mov	dptr,#_eventQueue_initialize_PARM_3
   00C8 E5*00               319 	mov	a,_allocateStateMachineMemory_sloc0_1_0
   00CA F0                  320 	movx	@dptr,a
   00CB 8D 82               321 	mov	dpl,r5
   00CD 8E 83               322 	mov	dph,r6
   00CF 89 F0               323 	mov	b,r1
   00D1 C0 02               324 	push	ar2
   00D3 C0 03               325 	push	ar3
   00D5 C0 04               326 	push	ar4
   00D7 C0 07               327 	push	ar7
   00D9 C0 00               328 	push	ar0
   00DB 12s00r00            329 	lcall	_eventQueue_initialize
   00DE D0 00               330 	pop	ar0
   00E0 D0 07               331 	pop	ar7
                            332 ;	D:/EiqEnergy/Projects/Software/_SoftwareLibraries/StateMachines/stateMachine_G4.c:56: typesOfEventsToDefer = (eventType_t*)malloc(eventQueueDepth * sizeof(eventType_t*)) ;
   00E2 8F 82               333 	mov	dpl,r7
   00E4 88 83               334 	mov	dph,r0
   00E6 C0 07               335 	push	ar7
   00E8 C0 00               336 	push	ar0
   00EA 12s00r00            337 	lcall	_malloc
   00ED AD 82               338 	mov	r5,dpl
   00EF AE 83               339 	mov	r6,dph
   00F1 D0 00               340 	pop	ar0
   00F3 D0 07               341 	pop	ar7
   00F5 D0 04               342 	pop	ar4
   00F7 D0 03               343 	pop	ar3
   00F9 D0 02               344 	pop	ar2
   00FB 8D*02               345 	mov	_allocateStateMachineMemory_sloc1_1_0,r5
   00FD 8E*03               346 	mov	(_allocateStateMachineMemory_sloc1_1_0 + 1),r6
   00FF 75*04 00            347 	mov	(_allocateStateMachineMemory_sloc1_1_0 + 2),#0x00
                            348 ;	D:/EiqEnergy/Projects/Software/_SoftwareLibraries/StateMachines/stateMachine_G4.c:58: if(typesOfEventsToDefer)
   0102 E5*02               349 	mov	a,_allocateStateMachineMemory_sloc1_1_0
   0104 45*03               350 	orl	a,(_allocateStateMachineMemory_sloc1_1_0 + 1)
   0106 45*04               351 	orl	a,(_allocateStateMachineMemory_sloc1_1_0 + 2)
   0108 70 03               352 	jnz	00117$
   010A 02s01rFE            353 	ljmp	00108$
   010D                     354 00117$:
                            355 ;	D:/EiqEnergy/Projects/Software/_SoftwareLibraries/StateMachines/stateMachine_G4.c:62: instance->maxDepthOfEventsToDeferList		= eventQueueDepth ;
   010D 74 12               356 	mov	a,#0x12
   010F 2A                  357 	add	a,r2
   0110 FD                  358 	mov	r5,a
   0111 E4                  359 	clr	a
   0112 3B                  360 	addc	a,r3
   0113 FE                  361 	mov	r6,a
   0114 8C 01               362 	mov	ar1,r4
   0116 8D 82               363 	mov	dpl,r5
   0118 8E 83               364 	mov	dph,r6
   011A 89 F0               365 	mov	b,r1
   011C E5*00               366 	mov	a,_allocateStateMachineMemory_sloc0_1_0
   011E 12s00r00            367 	lcall	__gptrput
                            368 ;	D:/EiqEnergy/Projects/Software/_SoftwareLibraries/StateMachines/stateMachine_G4.c:63: instance->currentDepthOfEventsToDeferList	= 0 ;
   0121 74 13               369 	mov	a,#0x13
   0123 2A                  370 	add	a,r2
   0124 FD                  371 	mov	r5,a
   0125 E4                  372 	clr	a
   0126 3B                  373 	addc	a,r3
   0127 FE                  374 	mov	r6,a
   0128 8C 01               375 	mov	ar1,r4
   012A 8D 82               376 	mov	dpl,r5
   012C 8E 83               377 	mov	dph,r6
   012E 89 F0               378 	mov	b,r1
   0130 E4                  379 	clr	a
   0131 12s00r00            380 	lcall	__gptrput
                            381 ;	D:/EiqEnergy/Projects/Software/_SoftwareLibraries/StateMachines/stateMachine_G4.c:64: instance->typesOfEventsToDefer				= typesOfEventsToDefer ;
   0134 74 14               382 	mov	a,#0x14
   0136 2A                  383 	add	a,r2
   0137 FD                  384 	mov	r5,a
   0138 E4                  385 	clr	a
   0139 3B                  386 	addc	a,r3
   013A FE                  387 	mov	r6,a
   013B 8C 01               388 	mov	ar1,r4
   013D 8D 82               389 	mov	dpl,r5
   013F 8E 83               390 	mov	dph,r6
   0141 89 F0               391 	mov	b,r1
   0143 E5*02               392 	mov	a,_allocateStateMachineMemory_sloc1_1_0
   0145 12s00r00            393 	lcall	__gptrput
   0148 A3                  394 	inc	dptr
   0149 E5*03               395 	mov	a,(_allocateStateMachineMemory_sloc1_1_0 + 1)
   014B 12s00r00            396 	lcall	__gptrput
   014E A3                  397 	inc	dptr
   014F E5*04               398 	mov	a,(_allocateStateMachineMemory_sloc1_1_0 + 2)
   0151 12s00r00            399 	lcall	__gptrput
                            400 ;	D:/EiqEnergy/Projects/Software/_SoftwareLibraries/StateMachines/stateMachine_G4.c:66: deferredEventQueue = (event_t**)malloc(eventQueueDepth * sizeof(event_t*)) ;
   0154 8F 82               401 	mov	dpl,r7
   0156 88 83               402 	mov	dph,r0
   0158 C0 02               403 	push	ar2
   015A C0 03               404 	push	ar3
   015C C0 04               405 	push	ar4
   015E C0 07               406 	push	ar7
   0160 C0 00               407 	push	ar0
   0162 12s00r00            408 	lcall	_malloc
   0165 AD 82               409 	mov	r5,dpl
   0167 AE 83               410 	mov	r6,dph
   0169 D0 00               411 	pop	ar0
   016B D0 07               412 	pop	ar7
   016D D0 04               413 	pop	ar4
   016F D0 03               414 	pop	ar3
   0171 D0 02               415 	pop	ar2
   0173 8D*02               416 	mov	_allocateStateMachineMemory_sloc1_1_0,r5
   0175 8E*03               417 	mov	(_allocateStateMachineMemory_sloc1_1_0 + 1),r6
   0177 75*04 00            418 	mov	(_allocateStateMachineMemory_sloc1_1_0 + 2),#0x00
                            419 ;	D:/EiqEnergy/Projects/Software/_SoftwareLibraries/StateMachines/stateMachine_G4.c:68: if(deferredEventQueue)
   017A E5*02               420 	mov	a,_allocateStateMachineMemory_sloc1_1_0
   017C 45*03               421 	orl	a,(_allocateStateMachineMemory_sloc1_1_0 + 1)
   017E 45*04               422 	orl	a,(_allocateStateMachineMemory_sloc1_1_0 + 2)
   0180 60 7C               423 	jz	00108$
                            424 ;	D:/EiqEnergy/Projects/Software/_SoftwareLibraries/StateMachines/stateMachine_G4.c:70: memset((char*)deferredEventQueue, 0, eventQueueDepth * sizeof(event_t*)) ;
   0182 90s00r00            425 	mov	dptr,#_memset_PARM_2
   0185 E4                  426 	clr	a
   0186 F0                  427 	movx	@dptr,a
   0187 90s00r00            428 	mov	dptr,#_memset_PARM_3
   018A EF                  429 	mov	a,r7
   018B F0                  430 	movx	@dptr,a
   018C A3                  431 	inc	dptr
   018D E8                  432 	mov	a,r0
   018E F0                  433 	movx	@dptr,a
   018F 85*02 82            434 	mov	dpl,_allocateStateMachineMemory_sloc1_1_0
   0192 85*03 83            435 	mov	dph,(_allocateStateMachineMemory_sloc1_1_0 + 1)
   0195 85*04 F0            436 	mov	b,(_allocateStateMachineMemory_sloc1_1_0 + 2)
   0198 C0 02               437 	push	ar2
   019A C0 03               438 	push	ar3
   019C C0 04               439 	push	ar4
   019E 12s00r00            440 	lcall	_memset
   01A1 D0 04               441 	pop	ar4
   01A3 D0 03               442 	pop	ar3
   01A5 D0 02               443 	pop	ar2
                            444 ;	D:/EiqEnergy/Projects/Software/_SoftwareLibraries/StateMachines/stateMachine_G4.c:71: eventQueue_initialize(&instance->deferredEventQueue, deferredEventQueue, eventQueueDepth) ;
   01A7 74 17               445 	mov	a,#0x17
   01A9 2A                  446 	add	a,r2
   01AA FF                  447 	mov	r7,a
   01AB E4                  448 	clr	a
   01AC 3B                  449 	addc	a,r3
   01AD F8                  450 	mov	r0,a
   01AE 8C 05               451 	mov	ar5,r4
   01B0 90s00r00            452 	mov	dptr,#_eventQueue_initialize_PARM_2
   01B3 E5*02               453 	mov	a,_allocateStateMachineMemory_sloc1_1_0
   01B5 F0                  454 	movx	@dptr,a
   01B6 A3                  455 	inc	dptr
   01B7 E5*03               456 	mov	a,(_allocateStateMachineMemory_sloc1_1_0 + 1)
   01B9 F0                  457 	movx	@dptr,a
   01BA A3                  458 	inc	dptr
   01BB E5*04               459 	mov	a,(_allocateStateMachineMemory_sloc1_1_0 + 2)
   01BD F0                  460 	movx	@dptr,a
   01BE 90s00r00            461 	mov	dptr,#_eventQueue_initialize_PARM_3
   01C1 E5*00               462 	mov	a,_allocateStateMachineMemory_sloc0_1_0
   01C3 F0                  463 	movx	@dptr,a
   01C4 8F 82               464 	mov	dpl,r7
   01C6 88 83               465 	mov	dph,r0
   01C8 8D F0               466 	mov	b,r5
   01CA C0 02               467 	push	ar2
   01CC C0 03               468 	push	ar3
   01CE C0 04               469 	push	ar4
   01D0 12s00r00            470 	lcall	_eventQueue_initialize
   01D3 D0 04               471 	pop	ar4
   01D5 D0 03               472 	pop	ar3
   01D7 D0 02               473 	pop	ar2
                            474 ;	D:/EiqEnergy/Projects/Software/_SoftwareLibraries/StateMachines/stateMachine_G4.c:73: constructor(instance) ;
   01D9 C0 02               475 	push	ar2
   01DB C0 03               476 	push	ar3
   01DD C0 04               477 	push	ar4
   01DF 74rF8               478 	mov	a,#00119$
   01E1 C0 E0               479 	push	acc
   01E3 74s01               480 	mov	a,#(00119$ >> 8)
   01E5 C0 E0               481 	push	acc
   01E7 90s00r96            482 	mov	dptr,#_allocateStateMachineMemory_PARM_2
   01EA E0                  483 	movx	a,@dptr
   01EB C0 E0               484 	push	acc
   01ED A3                  485 	inc	dptr
   01EE E0                  486 	movx	a,@dptr
   01EF C0 E0               487 	push	acc
   01F1 8A 82               488 	mov	dpl,r2
   01F3 8B 83               489 	mov	dph,r3
   01F5 8C F0               490 	mov	b,r4
   01F7 22                  491 	ret
   01F8                     492 00119$:
   01F8 D0 04               493 	pop	ar4
   01FA D0 03               494 	pop	ar3
   01FC D0 02               495 	pop	ar2
   01FE                     496 00108$:
                            497 ;	D:/EiqEnergy/Projects/Software/_SoftwareLibraries/StateMachines/stateMachine_G4.c:79: return instance ;
   01FE 8A 82               498 	mov	dpl,r2
   0200 8B 83               499 	mov	dph,r3
   0202 8C F0               500 	mov	b,r4
   0204 22                  501 	ret
                            502 ;------------------------------------------------------------
                            503 ;Allocation info for local variables in function 'deallocateStateMachineMemory'
                            504 ;------------------------------------------------------------
                            505 ;destructor                Allocated with name '_deallocateStateMachineMemory_PARM_2'
                            506 ;instance                  Allocated with name '_deallocateStateMachineMemory_instance_1_1'
                            507 ;------------------------------------------------------------
                            508 ;	D:/EiqEnergy/Projects/Software/_SoftwareLibraries/StateMachines/stateMachine_G4.c:83: void deallocateStateMachineMemory(				stateMachine_t* instance, stateMachine_destructor_t destructor)
                            509 ;	-----------------------------------------
                            510 ;	 function deallocateStateMachineMemory
                            511 ;	-----------------------------------------
   0205                     512 _deallocateStateMachineMemory:
   0205 AA F0               513 	mov	r2,b
   0207 AB 83               514 	mov	r3,dph
   0209 E5 82               515 	mov	a,dpl
   020B 90s00r9C            516 	mov	dptr,#_deallocateStateMachineMemory_instance_1_1
   020E F0                  517 	movx	@dptr,a
   020F A3                  518 	inc	dptr
   0210 EB                  519 	mov	a,r3
   0211 F0                  520 	movx	@dptr,a
   0212 A3                  521 	inc	dptr
   0213 EA                  522 	mov	a,r2
   0214 F0                  523 	movx	@dptr,a
                            524 ;	D:/EiqEnergy/Projects/Software/_SoftwareLibraries/StateMachines/stateMachine_G4.c:85: if(instance != 0)
   0215 90s00r9C            525 	mov	dptr,#_deallocateStateMachineMemory_instance_1_1
   0218 E0                  526 	movx	a,@dptr
   0219 FA                  527 	mov	r2,a
   021A A3                  528 	inc	dptr
   021B E0                  529 	movx	a,@dptr
   021C FB                  530 	mov	r3,a
   021D A3                  531 	inc	dptr
   021E E0                  532 	movx	a,@dptr
   021F FC                  533 	mov	r4,a
   0220 EA                  534 	mov	a,r2
   0221 4B                  535 	orl	a,r3
   0222 4C                  536 	orl	a,r4
   0223 60 2D               537 	jz	00103$
                            538 ;	D:/EiqEnergy/Projects/Software/_SoftwareLibraries/StateMachines/stateMachine_G4.c:87: destructor(instance) ;
   0225 74r3E               539 	mov	a,#00107$
   0227 C0 E0               540 	push	acc
   0229 74s02               541 	mov	a,#(00107$ >> 8)
   022B C0 E0               542 	push	acc
   022D 90s00r9A            543 	mov	dptr,#_deallocateStateMachineMemory_PARM_2
   0230 E0                  544 	movx	a,@dptr
   0231 C0 E0               545 	push	acc
   0233 A3                  546 	inc	dptr
   0234 E0                  547 	movx	a,@dptr
   0235 C0 E0               548 	push	acc
   0237 8A 82               549 	mov	dpl,r2
   0239 8B 83               550 	mov	dph,r3
   023B 8C F0               551 	mov	b,r4
   023D 22                  552 	ret
   023E                     553 00107$:
                            554 ;	D:/EiqEnergy/Projects/Software/_SoftwareLibraries/StateMachines/stateMachine_G4.c:89: free((char*)instance) ;
   023E 90s00r9C            555 	mov	dptr,#_deallocateStateMachineMemory_instance_1_1
   0241 E0                  556 	movx	a,@dptr
   0242 FA                  557 	mov	r2,a
   0243 A3                  558 	inc	dptr
   0244 E0                  559 	movx	a,@dptr
   0245 FB                  560 	mov	r3,a
   0246 A3                  561 	inc	dptr
   0247 E0                  562 	movx	a,@dptr
   0248 FC                  563 	mov	r4,a
   0249 8A 82               564 	mov	dpl,r2
   024B 8B 83               565 	mov	dph,r3
   024D 8C F0               566 	mov	b,r4
   024F 02s00r00            567 	ljmp	_free
   0252                     568 00103$:
   0252 22                  569 	ret
                            570 ;------------------------------------------------------------
                            571 ;Allocation info for local variables in function 'registerStateMachine'
                            572 ;------------------------------------------------------------
                            573 ;sm                        Allocated with name '_registerStateMachine_sm_1_1'
                            574 ;statetMachineIndex        Allocated with name '_registerStateMachine_statetMachineIndex_2_2'
                            575 ;------------------------------------------------------------
                            576 ;	D:/EiqEnergy/Projects/Software/_SoftwareLibraries/StateMachines/stateMachine_G4.c:94: bool registerStateMachine(			stateMachine_t* sm)
                            577 ;	-----------------------------------------
                            578 ;	 function registerStateMachine
                            579 ;	-----------------------------------------
   0253                     580 _registerStateMachine:
   0253 AA F0               581 	mov	r2,b
   0255 AB 83               582 	mov	r3,dph
   0257 E5 82               583 	mov	a,dpl
   0259 90s00r9F            584 	mov	dptr,#_registerStateMachine_sm_1_1
   025C F0                  585 	movx	@dptr,a
   025D A3                  586 	inc	dptr
   025E EB                  587 	mov	a,r3
   025F F0                  588 	movx	@dptr,a
   0260 A3                  589 	inc	dptr
   0261 EA                  590 	mov	a,r2
   0262 F0                  591 	movx	@dptr,a
                            592 ;	D:/EiqEnergy/Projects/Software/_SoftwareLibraries/StateMachines/stateMachine_G4.c:96: if(sm)
   0263 90s00r9F            593 	mov	dptr,#_registerStateMachine_sm_1_1
   0266 E0                  594 	movx	a,@dptr
   0267 FA                  595 	mov	r2,a
   0268 A3                  596 	inc	dptr
   0269 E0                  597 	movx	a,@dptr
   026A FB                  598 	mov	r3,a
   026B A3                  599 	inc	dptr
   026C E0                  600 	movx	a,@dptr
   026D FC                  601 	mov	r4,a
   026E EA                  602 	mov	a,r2
   026F 4B                  603 	orl	a,r3
   0270 4C                  604 	orl	a,r4
   0271 60 44               605 	jz	00104$
                            606 ;	D:/EiqEnergy/Projects/Software/_SoftwareLibraries/StateMachines/stateMachine_G4.c:100: for( statetMachineIndex = 0 ; statetMachineIndex < configMAXIMUM_NUMBER_OF_STATE_MACHINES ; statetMachineIndex++ )
   0273 7A 00               607 	mov	r2,#0x00
   0275                     608 00105$:
   0275 BA 32 00            609 	cjne	r2,#0x32,00116$
   0278                     610 00116$:
   0278 50 3D               611 	jnc	00104$
                            612 ;	D:/EiqEnergy/Projects/Software/_SoftwareLibraries/StateMachines/stateMachine_G4.c:102: if(stateMachines[statetMachineIndex] == NULL)
   027A EA                  613 	mov	a,r2
   027B 75 F0 03            614 	mov	b,#0x03
   027E A4                  615 	mul	ab
   027F 24r00               616 	add	a,#_stateMachines
   0281 FB                  617 	mov	r3,a
   0282 E4                  618 	clr	a
   0283 34s00               619 	addc	a,#(_stateMachines >> 8)
   0285 FC                  620 	mov	r4,a
   0286 8B 82               621 	mov	dpl,r3
   0288 8C 83               622 	mov	dph,r4
   028A E0                  623 	movx	a,@dptr
   028B FD                  624 	mov	r5,a
   028C A3                  625 	inc	dptr
   028D E0                  626 	movx	a,@dptr
   028E FE                  627 	mov	r6,a
   028F A3                  628 	inc	dptr
   0290 E0                  629 	movx	a,@dptr
   0291 FF                  630 	mov	r7,a
   0292 BD 00 1F            631 	cjne	r5,#0x00,00107$
   0295 BE 00 1C            632 	cjne	r6,#0x00,00107$
   0298 BF 00 19            633 	cjne	r7,#0x00,00107$
                            634 ;	D:/EiqEnergy/Projects/Software/_SoftwareLibraries/StateMachines/stateMachine_G4.c:104: stateMachines[statetMachineIndex] = sm ;
   029B 90s00r9F            635 	mov	dptr,#_registerStateMachine_sm_1_1
   029E E0                  636 	movx	a,@dptr
   029F FD                  637 	mov	r5,a
   02A0 A3                  638 	inc	dptr
   02A1 E0                  639 	movx	a,@dptr
   02A2 FE                  640 	mov	r6,a
   02A3 A3                  641 	inc	dptr
   02A4 E0                  642 	movx	a,@dptr
   02A5 FF                  643 	mov	r7,a
   02A6 8B 82               644 	mov	dpl,r3
   02A8 8C 83               645 	mov	dph,r4
   02AA ED                  646 	mov	a,r5
   02AB F0                  647 	movx	@dptr,a
   02AC A3                  648 	inc	dptr
   02AD EE                  649 	mov	a,r6
   02AE F0                  650 	movx	@dptr,a
   02AF A3                  651 	inc	dptr
   02B0 EF                  652 	mov	a,r7
   02B1 F0                  653 	movx	@dptr,a
                            654 ;	D:/EiqEnergy/Projects/Software/_SoftwareLibraries/StateMachines/stateMachine_G4.c:106: return true ;
   02B2 D3                  655 	setb	c
   02B3 22                  656 	ret
   02B4                     657 00107$:
                            658 ;	D:/EiqEnergy/Projects/Software/_SoftwareLibraries/StateMachines/stateMachine_G4.c:100: for( statetMachineIndex = 0 ; statetMachineIndex < configMAXIMUM_NUMBER_OF_STATE_MACHINES ; statetMachineIndex++ )
   02B4 0A                  659 	inc	r2
   02B5 80 BE               660 	sjmp	00105$
   02B7                     661 00104$:
                            662 ;	D:/EiqEnergy/Projects/Software/_SoftwareLibraries/StateMachines/stateMachine_G4.c:111: return false ;
   02B7 C3                  663 	clr	c
   02B8 22                  664 	ret
                            665 ;------------------------------------------------------------
                            666 ;Allocation info for local variables in function 'unregisterStateMachine'
                            667 ;------------------------------------------------------------
                            668 ;sm                        Allocated with name '_unregisterStateMachine_sm_1_1'
                            669 ;statetMachineIndex        Allocated with name '_unregisterStateMachine_statetMachineIndex_2_2'
                            670 ;------------------------------------------------------------
                            671 ;	D:/EiqEnergy/Projects/Software/_SoftwareLibraries/StateMachines/stateMachine_G4.c:114: bool unregisterStateMachine(		stateMachine_t* sm)
                            672 ;	-----------------------------------------
                            673 ;	 function unregisterStateMachine
                            674 ;	-----------------------------------------
   02B9                     675 _unregisterStateMachine:
   02B9 AA F0               676 	mov	r2,b
   02BB AB 83               677 	mov	r3,dph
   02BD E5 82               678 	mov	a,dpl
   02BF 90s00rA2            679 	mov	dptr,#_unregisterStateMachine_sm_1_1
   02C2 F0                  680 	movx	@dptr,a
   02C3 A3                  681 	inc	dptr
   02C4 EB                  682 	mov	a,r3
   02C5 F0                  683 	movx	@dptr,a
   02C6 A3                  684 	inc	dptr
   02C7 EA                  685 	mov	a,r2
   02C8 F0                  686 	movx	@dptr,a
                            687 ;	D:/EiqEnergy/Projects/Software/_SoftwareLibraries/StateMachines/stateMachine_G4.c:116: if(sm)
   02C9 90s00rA2            688 	mov	dptr,#_unregisterStateMachine_sm_1_1
   02CC E0                  689 	movx	a,@dptr
   02CD FA                  690 	mov	r2,a
   02CE A3                  691 	inc	dptr
   02CF E0                  692 	movx	a,@dptr
   02D0 FB                  693 	mov	r3,a
   02D1 A3                  694 	inc	dptr
   02D2 E0                  695 	movx	a,@dptr
   02D3 FC                  696 	mov	r4,a
   02D4 EA                  697 	mov	a,r2
   02D5 4B                  698 	orl	a,r3
   02D6 4C                  699 	orl	a,r4
   02D7 60 44               700 	jz	00104$
                            701 ;	D:/EiqEnergy/Projects/Software/_SoftwareLibraries/StateMachines/stateMachine_G4.c:120: for( statetMachineIndex = 0 ; statetMachineIndex < configMAXIMUM_NUMBER_OF_STATE_MACHINES ; statetMachineIndex++ )
   02D9 7D 00               702 	mov	r5,#0x00
   02DB                     703 00105$:
   02DB BD 32 00            704 	cjne	r5,#0x32,00116$
   02DE                     705 00116$:
   02DE 50 3D               706 	jnc	00104$
                            707 ;	D:/EiqEnergy/Projects/Software/_SoftwareLibraries/StateMachines/stateMachine_G4.c:122: if(stateMachines[statetMachineIndex] == sm)
   02E0 ED                  708 	mov	a,r5
   02E1 75 F0 03            709 	mov	b,#0x03
   02E4 A4                  710 	mul	ab
   02E5 24r00               711 	add	a,#_stateMachines
   02E7 FE                  712 	mov	r6,a
   02E8 E4                  713 	clr	a
   02E9 34s00               714 	addc	a,#(_stateMachines >> 8)
   02EB FF                  715 	mov	r7,a
   02EC C0 05               716 	push	ar5
   02EE 8E 82               717 	mov	dpl,r6
   02F0 8F 83               718 	mov	dph,r7
   02F2 E0                  719 	movx	a,@dptr
   02F3 F8                  720 	mov	r0,a
   02F4 A3                  721 	inc	dptr
   02F5 E0                  722 	movx	a,@dptr
   02F6 F9                  723 	mov	r1,a
   02F7 A3                  724 	inc	dptr
   02F8 E0                  725 	movx	a,@dptr
   02F9 FD                  726 	mov	r5,a
   02FA E8                  727 	mov	a,r0
   02FB B5 02 0A            728 	cjne	a,ar2,00118$
   02FE E9                  729 	mov	a,r1
   02FF B5 03 06            730 	cjne	a,ar3,00118$
   0302 ED                  731 	mov	a,r5
   0303 B5 04 02            732 	cjne	a,ar4,00118$
   0306 80 04               733 	sjmp	00119$
   0308                     734 00118$:
   0308 D0 05               735 	pop	ar5
   030A 80 0E               736 	sjmp	00107$
   030C                     737 00119$:
   030C D0 05               738 	pop	ar5
                            739 ;	D:/EiqEnergy/Projects/Software/_SoftwareLibraries/StateMachines/stateMachine_G4.c:124: stateMachines[statetMachineIndex] = NULL ;
   030E 8E 82               740 	mov	dpl,r6
   0310 8F 83               741 	mov	dph,r7
   0312 E4                  742 	clr	a
   0313 F0                  743 	movx	@dptr,a
   0314 A3                  744 	inc	dptr
   0315 F0                  745 	movx	@dptr,a
   0316 A3                  746 	inc	dptr
   0317 F0                  747 	movx	@dptr,a
                            748 ;	D:/EiqEnergy/Projects/Software/_SoftwareLibraries/StateMachines/stateMachine_G4.c:126: return true ;
   0318 D3                  749 	setb	c
   0319 22                  750 	ret
   031A                     751 00107$:
                            752 ;	D:/EiqEnergy/Projects/Software/_SoftwareLibraries/StateMachines/stateMachine_G4.c:120: for( statetMachineIndex = 0 ; statetMachineIndex < configMAXIMUM_NUMBER_OF_STATE_MACHINES ; statetMachineIndex++ )
   031A 0D                  753 	inc	r5
   031B 80 BE               754 	sjmp	00105$
   031D                     755 00104$:
                            756 ;	D:/EiqEnergy/Projects/Software/_SoftwareLibraries/StateMachines/stateMachine_G4.c:131: return false ;
   031D C3                  757 	clr	c
   031E 22                  758 	ret
                            759 ;------------------------------------------------------------
                            760 ;Allocation info for local variables in function 'iterateAllStateMachines'
                            761 ;------------------------------------------------------------
                            762 ;statetMachineIndex        Allocated with name '_iterateAllStateMachines_statetMachineIndex_1_1'
                            763 ;------------------------------------------------------------
                            764 ;	D:/EiqEnergy/Projects/Software/_SoftwareLibraries/StateMachines/stateMachine_G4.c:135: void iterateAllStateMachines(	void)
                            765 ;	-----------------------------------------
                            766 ;	 function iterateAllStateMachines
                            767 ;	-----------------------------------------
   031F                     768 _iterateAllStateMachines:
                            769 ;	D:/EiqEnergy/Projects/Software/_SoftwareLibraries/StateMachines/stateMachine_G4.c:139: for( statetMachineIndex = 0 ; statetMachineIndex < configMAXIMUM_NUMBER_OF_STATE_MACHINES ; statetMachineIndex++ )
   031F 7A 00               770 	mov	r2,#0x00
   0321                     771 00103$:
   0321 BA 32 00            772 	cjne	r2,#0x32,00113$
   0324                     773 00113$:
   0324 50 31               774 	jnc	00107$
                            775 ;	D:/EiqEnergy/Projects/Software/_SoftwareLibraries/StateMachines/stateMachine_G4.c:141: if(stateMachines[statetMachineIndex] != NULL)
   0326 EA                  776 	mov	a,r2
   0327 75 F0 03            777 	mov	b,#0x03
   032A A4                  778 	mul	ab
   032B 24r00               779 	add	a,#_stateMachines
   032D F5 82               780 	mov	dpl,a
   032F E4                  781 	clr	a
   0330 34s00               782 	addc	a,#(_stateMachines >> 8)
   0332 F5 83               783 	mov	dph,a
   0334 E0                  784 	movx	a,@dptr
   0335 FB                  785 	mov	r3,a
   0336 A3                  786 	inc	dptr
   0337 E0                  787 	movx	a,@dptr
   0338 FC                  788 	mov	r4,a
   0339 A3                  789 	inc	dptr
   033A E0                  790 	movx	a,@dptr
   033B FD                  791 	mov	r5,a
   033C BB 00 08            792 	cjne	r3,#0x00,00115$
   033F BC 00 05            793 	cjne	r4,#0x00,00115$
   0342 BD 00 02            794 	cjne	r5,#0x00,00115$
   0345 80 0D               795 	sjmp	00105$
   0347                     796 00115$:
                            797 ;	D:/EiqEnergy/Projects/Software/_SoftwareLibraries/StateMachines/stateMachine_G4.c:143: iterateStateMachine(stateMachines[statetMachineIndex]) ;
   0347 8B 82               798 	mov	dpl,r3
   0349 8C 83               799 	mov	dph,r4
   034B 8D F0               800 	mov	b,r5
   034D C0 02               801 	push	ar2
   034F 12s07r57            802 	lcall	_iterateStateMachine
   0352 D0 02               803 	pop	ar2
   0354                     804 00105$:
                            805 ;	D:/EiqEnergy/Projects/Software/_SoftwareLibraries/StateMachines/stateMachine_G4.c:139: for( statetMachineIndex = 0 ; statetMachineIndex < configMAXIMUM_NUMBER_OF_STATE_MACHINES ; statetMachineIndex++ )
   0354 0A                  806 	inc	r2
   0355 80 CA               807 	sjmp	00103$
   0357                     808 00107$:
   0357 22                  809 	ret
                            810 ;------------------------------------------------------------
                            811 ;Allocation info for local variables in function 'callStateHandler'
                            812 ;------------------------------------------------------------
                            813 ;sloc0                     Allocated with name '_callStateHandler_sloc0_1_0'
                            814 ;sloc1                     Allocated with name '_callStateHandler_sloc1_1_0'
                            815 ;sloc2                     Allocated with name '_callStateHandler_sloc2_1_0'
                            816 ;state                     Allocated with name '_callStateHandler_PARM_2'
                            817 ;event                     Allocated with name '_callStateHandler_PARM_3'
                            818 ;sm                        Allocated with name '_callStateHandler_sm_1_1'
                            819 ;response                  Allocated with name '_callStateHandler_response_1_1'
                            820 ;------------------------------------------------------------
                            821 ;	D:/EiqEnergy/Projects/Software/_SoftwareLibraries/StateMachines/stateMachine_G4.c:157: stateMachine_stateResponse_t callStateHandler(stateMachine_t* sm, state_t* state, event_t* event)
                            822 ;	-----------------------------------------
                            823 ;	 function callStateHandler
                            824 ;	-----------------------------------------
   0358                     825 _callStateHandler:
   0358 AA F0               826 	mov	r2,b
   035A AB 83               827 	mov	r3,dph
   035C E5 82               828 	mov	a,dpl
   035E 90s00rAB            829 	mov	dptr,#_callStateHandler_sm_1_1
   0361 F0                  830 	movx	@dptr,a
   0362 A3                  831 	inc	dptr
   0363 EB                  832 	mov	a,r3
   0364 F0                  833 	movx	@dptr,a
   0365 A3                  834 	inc	dptr
   0366 EA                  835 	mov	a,r2
   0367 F0                  836 	movx	@dptr,a
                            837 ;	D:/EiqEnergy/Projects/Software/_SoftwareLibraries/StateMachines/stateMachine_G4.c:162: printf("\t\t\tCalling state: %s, event: %s, ", state->stateName, event->eventType <= SUBSTATE_EXIT ? eventTypes[event->eventType] : "<USER_EVENT>") ;
   0368 90s00rA8            838 	mov	dptr,#_callStateHandler_PARM_3
   036B E0                  839 	movx	a,@dptr
   036C FA                  840 	mov	r2,a
   036D A3                  841 	inc	dptr
   036E E0                  842 	movx	a,@dptr
   036F FB                  843 	mov	r3,a
   0370 A3                  844 	inc	dptr
   0371 E0                  845 	movx	a,@dptr
   0372 FC                  846 	mov	r4,a
   0373 8A 82               847 	mov	dpl,r2
   0375 8B 83               848 	mov	dph,r3
   0377 8C F0               849 	mov	b,r4
   0379 12s00r00            850 	lcall	__gptrget
   037C FD                  851 	mov	r5,a
   037D C3                  852 	clr	c
   037E 74 05               853 	mov	a,#0x05
   0380 9D                  854 	subb	a,r5
   0381 B3                  855 	cpl	c
   0382 E4                  856 	clr	a
   0383 33                  857 	rlc	a
   0384 FE                  858 	mov	r6,a
   0385 60 18               859 	jz	00117$
   0387 ED                  860 	mov	a,r5
   0388 75 F0 03            861 	mov	b,#0x03
   038B A4                  862 	mul	ab
   038C 24r00               863 	add	a,#_eventTypes
   038E F5 82               864 	mov	dpl,a
   0390 E4                  865 	clr	a
   0391 34s00               866 	addc	a,#(_eventTypes >> 8)
   0393 F5 83               867 	mov	dph,a
   0395 E0                  868 	movx	a,@dptr
   0396 FD                  869 	mov	r5,a
   0397 A3                  870 	inc	dptr
   0398 E0                  871 	movx	a,@dptr
   0399 FE                  872 	mov	r6,a
   039A A3                  873 	inc	dptr
   039B E0                  874 	movx	a,@dptr
   039C FF                  875 	mov	r7,a
   039D 80 06               876 	sjmp	00118$
   039F                     877 00117$:
   039F 7Dr22               878 	mov	r5,#__str_1
   03A1 7Es00               879 	mov	r6,#(__str_1 >> 8)
   03A3 7F 80               880 	mov	r7,#0x80
   03A5                     881 00118$:
   03A5 C0 02               882 	push	ar2
   03A7 C0 03               883 	push	ar3
   03A9 C0 04               884 	push	ar4
   03AB 90s00rA5            885 	mov	dptr,#_callStateHandler_PARM_2
   03AE E0                  886 	movx	a,@dptr
   03AF F5*05               887 	mov	_callStateHandler_sloc0_1_0,a
   03B1 A3                  888 	inc	dptr
   03B2 E0                  889 	movx	a,@dptr
   03B3 F5*06               890 	mov	(_callStateHandler_sloc0_1_0 + 1),a
   03B5 A3                  891 	inc	dptr
   03B6 E0                  892 	movx	a,@dptr
   03B7 F5*07               893 	mov	(_callStateHandler_sloc0_1_0 + 2),a
   03B9 74 06               894 	mov	a,#0x06
   03BB 25*05               895 	add	a,_callStateHandler_sloc0_1_0
   03BD F8                  896 	mov	r0,a
   03BE E4                  897 	clr	a
   03BF 35*06               898 	addc	a,(_callStateHandler_sloc0_1_0 + 1)
   03C1 F9                  899 	mov	r1,a
   03C2 AA*07               900 	mov	r2,(_callStateHandler_sloc0_1_0 + 2)
   03C4 88 82               901 	mov	dpl,r0
   03C6 89 83               902 	mov	dph,r1
   03C8 8A F0               903 	mov	b,r2
   03CA 12s00r00            904 	lcall	__gptrget
   03CD F8                  905 	mov	r0,a
   03CE A3                  906 	inc	dptr
   03CF 12s00r00            907 	lcall	__gptrget
   03D2 F9                  908 	mov	r1,a
   03D3 A3                  909 	inc	dptr
   03D4 12s00r00            910 	lcall	__gptrget
   03D7 FA                  911 	mov	r2,a
   03D8 C0 02               912 	push	ar2
   03DA C0 03               913 	push	ar3
   03DC C0 04               914 	push	ar4
   03DE C0 05               915 	push	ar5
   03E0 C0 06               916 	push	ar6
   03E2 C0 07               917 	push	ar7
   03E4 C0 00               918 	push	ar0
   03E6 C0 01               919 	push	ar1
   03E8 C0 02               920 	push	ar2
   03EA 74r00               921 	mov	a,#__str_0
   03EC C0 E0               922 	push	acc
   03EE 74s00               923 	mov	a,#(__str_0 >> 8)
   03F0 C0 E0               924 	push	acc
   03F2 74 80               925 	mov	a,#0x80
   03F4 C0 E0               926 	push	acc
   03F6 12s00r00            927 	lcall	_printf
   03F9 E5 81               928 	mov	a,sp
   03FB 24 F7               929 	add	a,#0xf7
   03FD F5 81               930 	mov	sp,a
   03FF D0 04               931 	pop	ar4
   0401 D0 03               932 	pop	ar3
   0403 D0 02               933 	pop	ar2
                            934 ;	D:/EiqEnergy/Projects/Software/_SoftwareLibraries/StateMachines/stateMachine_G4.c:165: if(state->type == CHOICE_PSUEDOSTATE)
   0405 74 03               935 	mov	a,#0x03
   0407 25*05               936 	add	a,_callStateHandler_sloc0_1_0
   0409 FA                  937 	mov	r2,a
   040A E4                  938 	clr	a
   040B 35*06               939 	addc	a,(_callStateHandler_sloc0_1_0 + 1)
   040D FB                  940 	mov	r3,a
   040E AC*07               941 	mov	r4,(_callStateHandler_sloc0_1_0 + 2)
   0410 8A 82               942 	mov	dpl,r2
   0412 8B 83               943 	mov	dph,r3
   0414 8C F0               944 	mov	b,r4
   0416 12s00r00            945 	lcall	__gptrget
   0419 F5*08               946 	mov	_callStateHandler_sloc1_1_0,a
   041B 74 01               947 	mov	a,#0x01
   041D B5*08 02            948 	cjne	a,_callStateHandler_sloc1_1_0,00128$
   0420 80 08               949 	sjmp	00129$
   0422                     950 00128$:
   0422 D0 04               951 	pop	ar4
   0424 D0 03               952 	pop	ar3
   0426 D0 02               953 	pop	ar2
   0428 80 4C               954 	sjmp	00111$
   042A                     955 00129$:
   042A D0 04               956 	pop	ar4
   042C D0 03               957 	pop	ar3
   042E D0 02               958 	pop	ar2
                            959 ;	D:/EiqEnergy/Projects/Software/_SoftwareLibraries/StateMachines/stateMachine_G4.c:167: response = ((stateMachine_choiceStateHandler_t)(state->handler))(sm) ;
   0430 74 04               960 	mov	a,#0x04
   0432 25*05               961 	add	a,_callStateHandler_sloc0_1_0
   0434 FD                  962 	mov	r5,a
   0435 E4                  963 	clr	a
   0436 35*06               964 	addc	a,(_callStateHandler_sloc0_1_0 + 1)
   0438 FE                  965 	mov	r6,a
   0439 AF*07               966 	mov	r7,(_callStateHandler_sloc0_1_0 + 2)
   043B 8D 82               967 	mov	dpl,r5
   043D 8E 83               968 	mov	dph,r6
   043F 8F F0               969 	mov	b,r7
   0441 12s00r00            970 	lcall	__gptrget
   0444 FD                  971 	mov	r5,a
   0445 A3                  972 	inc	dptr
   0446 12s00r00            973 	lcall	__gptrget
   0449 FE                  974 	mov	r6,a
   044A 90s00rAB            975 	mov	dptr,#_callStateHandler_sm_1_1
   044D E0                  976 	movx	a,@dptr
   044E FF                  977 	mov	r7,a
   044F A3                  978 	inc	dptr
   0450 E0                  979 	movx	a,@dptr
   0451 F8                  980 	mov	r0,a
   0452 A3                  981 	inc	dptr
   0453 E0                  982 	movx	a,@dptr
   0454 F9                  983 	mov	r1,a
   0455 C0 06               984 	push	ar6
   0457 74r6A               985 	mov	a,#00130$
   0459 C0 E0               986 	push	acc
   045B 74s04               987 	mov	a,#(00130$ >> 8)
   045D C0 E0               988 	push	acc
   045F C0 05               989 	push	ar5
   0461 C0 06               990 	push	ar6
   0463 8F 82               991 	mov	dpl,r7
   0465 88 83               992 	mov	dph,r0
   0467 89 F0               993 	mov	b,r1
   0469 22                  994 	ret
   046A                     995 00130$:
   046A AD 82               996 	mov	r5,dpl
   046C D0 06               997 	pop	ar6
   046E 90s00rAE            998 	mov	dptr,#_callStateHandler_response_1_1
   0471 ED                  999 	mov	a,r5
   0472 F0                 1000 	movx	@dptr,a
   0473 02s06rA3           1001 	ljmp	00112$
   0476                    1002 00111$:
                           1003 ;	D:/EiqEnergy/Projects/Software/_SoftwareLibraries/StateMachines/stateMachine_G4.c:171: if(event == &enterEvent)
   0476 EA                 1004 	mov	a,r2
   0477 B4r20 31           1005 	cjne	a,#_enterEvent,00102$
   047A EB                 1006 	mov	a,r3
   047B B4s00 2D           1007 	cjne	a,#(_enterEvent >> 8),00102$
   047E EC                 1008 	mov	a,r4
   047F B4 00 29           1009 	cjne	a,#0x00,00102$
                           1010 ;	D:/EiqEnergy/Projects/Software/_SoftwareLibraries/StateMachines/stateMachine_G4.c:173: sm->mostRecentlyEnteredState = state ;
   0482 90s00rAB           1011 	mov	dptr,#_callStateHandler_sm_1_1
   0485 E0                 1012 	movx	a,@dptr
   0486 FD                 1013 	mov	r5,a
   0487 A3                 1014 	inc	dptr
   0488 E0                 1015 	movx	a,@dptr
   0489 FE                 1016 	mov	r6,a
   048A A3                 1017 	inc	dptr
   048B E0                 1018 	movx	a,@dptr
   048C FF                 1019 	mov	r7,a
   048D 74 25              1020 	mov	a,#0x25
   048F 2D                 1021 	add	a,r5
   0490 FD                 1022 	mov	r5,a
   0491 E4                 1023 	clr	a
   0492 3E                 1024 	addc	a,r6
   0493 FE                 1025 	mov	r6,a
   0494 8D 82              1026 	mov	dpl,r5
   0496 8E 83              1027 	mov	dph,r6
   0498 8F F0              1028 	mov	b,r7
   049A E5*05              1029 	mov	a,_callStateHandler_sloc0_1_0
   049C 12s00r00           1030 	lcall	__gptrput
   049F A3                 1031 	inc	dptr
   04A0 E5*06              1032 	mov	a,(_callStateHandler_sloc0_1_0 + 1)
   04A2 12s00r00           1033 	lcall	__gptrput
   04A5 A3                 1034 	inc	dptr
   04A6 E5*07              1035 	mov	a,(_callStateHandler_sloc0_1_0 + 2)
   04A8 12s00r00           1036 	lcall	__gptrput
   04AB                    1037 00102$:
                           1038 ;	D:/EiqEnergy/Projects/Software/_SoftwareLibraries/StateMachines/stateMachine_G4.c:175: if(event == &exitEvent)
   04AB EA                 1039 	mov	a,r2
   04AC B4r21 0A           1040 	cjne	a,#_exitEvent,00133$
   04AF EB                 1041 	mov	a,r3
   04B0 B4s00 06           1042 	cjne	a,#(_exitEvent >> 8),00133$
   04B3 EC                 1043 	mov	a,r4
   04B4 B4 00 02           1044 	cjne	a,#0x00,00133$
   04B7 80 03              1045 	sjmp	00134$
   04B9                    1046 00133$:
   04B9 02s06r54           1047 	ljmp	00109$
   04BC                    1048 00134$:
                           1049 ;	D:/EiqEnergy/Projects/Software/_SoftwareLibraries/StateMachines/stateMachine_G4.c:177: if(state->type == STATE_WITH_SHALLOW_HISTORY)
   04BC 74 02              1050 	mov	a,#0x02
   04BE B5*08 02           1051 	cjne	a,_callStateHandler_sloc1_1_0,00135$
   04C1 80 03              1052 	sjmp	00136$
   04C3                    1053 00135$:
   04C3 02s05r75           1054 	ljmp	00106$
   04C6                    1055 00136$:
                           1056 ;	D:/EiqEnergy/Projects/Software/_SoftwareLibraries/StateMachines/stateMachine_G4.c:181: sm->historicalMarkers[((state_with_history_t*)state)->historyMarkerIndex] = sm->mostRecentlyExitedState ;
   04C6 C0 02              1057 	push	ar2
   04C8 C0 03              1058 	push	ar3
   04CA C0 04              1059 	push	ar4
   04CC 90s00rAB           1060 	mov	dptr,#_callStateHandler_sm_1_1
   04CF E0                 1061 	movx	a,@dptr
   04D0 FD                 1062 	mov	r5,a
   04D1 A3                 1063 	inc	dptr
   04D2 E0                 1064 	movx	a,@dptr
   04D3 FE                 1065 	mov	r6,a
   04D4 A3                 1066 	inc	dptr
   04D5 E0                 1067 	movx	a,@dptr
   04D6 FF                 1068 	mov	r7,a
   04D7 74 22              1069 	mov	a,#0x22
   04D9 2D                 1070 	add	a,r5
   04DA F8                 1071 	mov	r0,a
   04DB E4                 1072 	clr	a
   04DC 3E                 1073 	addc	a,r6
   04DD F9                 1074 	mov	r1,a
   04DE 8F 02              1075 	mov	ar2,r7
   04E0 88 82              1076 	mov	dpl,r0
   04E2 89 83              1077 	mov	dph,r1
   04E4 8A F0              1078 	mov	b,r2
   04E6 12s00r00           1079 	lcall	__gptrget
   04E9 F5*09              1080 	mov	_callStateHandler_sloc2_1_0,a
   04EB A3                 1081 	inc	dptr
   04EC 12s00r00           1082 	lcall	__gptrget
   04EF F5*0A              1083 	mov	(_callStateHandler_sloc2_1_0 + 1),a
   04F1 A3                 1084 	inc	dptr
   04F2 12s00r00           1085 	lcall	__gptrget
   04F5 F5*0B              1086 	mov	(_callStateHandler_sloc2_1_0 + 2),a
   04F7 74 09              1087 	mov	a,#0x09
   04F9 25*05              1088 	add	a,_callStateHandler_sloc0_1_0
   04FB FB                 1089 	mov	r3,a
   04FC E4                 1090 	clr	a
   04FD 35*06              1091 	addc	a,(_callStateHandler_sloc0_1_0 + 1)
   04FF FC                 1092 	mov	r4,a
   0500 AA*07              1093 	mov	r2,(_callStateHandler_sloc0_1_0 + 2)
   0502 8B 82              1094 	mov	dpl,r3
   0504 8C 83              1095 	mov	dph,r4
   0506 8A F0              1096 	mov	b,r2
   0508 12s00r00           1097 	lcall	__gptrget
   050B FB                 1098 	mov	r3,a
   050C A3                 1099 	inc	dptr
   050D 12s00r00           1100 	lcall	__gptrget
   0510 FC                 1101 	mov	r4,a
   0511 90s00r00           1102 	mov	dptr,#__mulint_PARM_2
   0514 EB                 1103 	mov	a,r3
   0515 F0                 1104 	movx	@dptr,a
   0516 A3                 1105 	inc	dptr
   0517 EC                 1106 	mov	a,r4
   0518 F0                 1107 	movx	@dptr,a
   0519 90 00 03           1108 	mov	dptr,#0x0003
   051C C0 04              1109 	push	ar4
   051E C0 05              1110 	push	ar5
   0520 C0 06              1111 	push	ar6
   0522 C0 07              1112 	push	ar7
   0524 12s00r00           1113 	lcall	__mulint
   0527 AA 82              1114 	mov	r2,dpl
   0529 AB 83              1115 	mov	r3,dph
   052B D0 07              1116 	pop	ar7
   052D D0 06              1117 	pop	ar6
   052F D0 05              1118 	pop	ar5
   0531 D0 04              1119 	pop	ar4
   0533 EA                 1120 	mov	a,r2
   0534 25*09              1121 	add	a,_callStateHandler_sloc2_1_0
   0536 FA                 1122 	mov	r2,a
   0537 EB                 1123 	mov	a,r3
   0538 35*0A              1124 	addc	a,(_callStateHandler_sloc2_1_0 + 1)
   053A FB                 1125 	mov	r3,a
   053B AC*0B              1126 	mov	r4,(_callStateHandler_sloc2_1_0 + 2)
   053D 74 28              1127 	mov	a,#0x28
   053F 2D                 1128 	add	a,r5
   0540 FD                 1129 	mov	r5,a
   0541 E4                 1130 	clr	a
   0542 3E                 1131 	addc	a,r6
   0543 FE                 1132 	mov	r6,a
   0544 8D 82              1133 	mov	dpl,r5
   0546 8E 83              1134 	mov	dph,r6
   0548 8F F0              1135 	mov	b,r7
   054A 12s00r00           1136 	lcall	__gptrget
   054D FD                 1137 	mov	r5,a
   054E A3                 1138 	inc	dptr
   054F 12s00r00           1139 	lcall	__gptrget
   0552 FE                 1140 	mov	r6,a
   0553 A3                 1141 	inc	dptr
   0554 12s00r00           1142 	lcall	__gptrget
   0557 FF                 1143 	mov	r7,a
   0558 8A 82              1144 	mov	dpl,r2
   055A 8B 83              1145 	mov	dph,r3
   055C 8C F0              1146 	mov	b,r4
   055E ED                 1147 	mov	a,r5
   055F 12s00r00           1148 	lcall	__gptrput
   0562 A3                 1149 	inc	dptr
   0563 EE                 1150 	mov	a,r6
   0564 12s00r00           1151 	lcall	__gptrput
   0567 A3                 1152 	inc	dptr
   0568 EF                 1153 	mov	a,r7
   0569 12s00r00           1154 	lcall	__gptrput
   056C D0 04              1155 	pop	ar4
   056E D0 03              1156 	pop	ar3
   0570 D0 02              1157 	pop	ar2
   0572 02s06r2B           1158 	ljmp	00107$
   0575                    1159 00106$:
                           1160 ;	D:/EiqEnergy/Projects/Software/_SoftwareLibraries/StateMachines/stateMachine_G4.c:183: else if(state->type == STATE_WITH_DEEP_HISTORY)
   0575 74 03              1161 	mov	a,#0x03
   0577 B5*08 02           1162 	cjne	a,_callStateHandler_sloc1_1_0,00137$
   057A 80 03              1163 	sjmp	00138$
   057C                    1164 00137$:
   057C 02s06r2B           1165 	ljmp	00107$
   057F                    1166 00138$:
                           1167 ;	D:/EiqEnergy/Projects/Software/_SoftwareLibraries/StateMachines/stateMachine_G4.c:187: sm->historicalMarkers[((state_with_history_t*)state)->historyMarkerIndex] = sm->mostRecentlyEnteredState ;
   057F C0 02              1168 	push	ar2
   0581 C0 03              1169 	push	ar3
   0583 C0 04              1170 	push	ar4
   0585 90s00rAB           1171 	mov	dptr,#_callStateHandler_sm_1_1
   0588 E0                 1172 	movx	a,@dptr
   0589 FD                 1173 	mov	r5,a
   058A A3                 1174 	inc	dptr
   058B E0                 1175 	movx	a,@dptr
   058C FE                 1176 	mov	r6,a
   058D A3                 1177 	inc	dptr
   058E E0                 1178 	movx	a,@dptr
   058F FF                 1179 	mov	r7,a
   0590 74 22              1180 	mov	a,#0x22
   0592 2D                 1181 	add	a,r5
   0593 F8                 1182 	mov	r0,a
   0594 E4                 1183 	clr	a
   0595 3E                 1184 	addc	a,r6
   0596 F9                 1185 	mov	r1,a
   0597 8F 02              1186 	mov	ar2,r7
   0599 88 82              1187 	mov	dpl,r0
   059B 89 83              1188 	mov	dph,r1
   059D 8A F0              1189 	mov	b,r2
   059F 12s00r00           1190 	lcall	__gptrget
   05A2 F5*09              1191 	mov	_callStateHandler_sloc2_1_0,a
   05A4 A3                 1192 	inc	dptr
   05A5 12s00r00           1193 	lcall	__gptrget
   05A8 F5*0A              1194 	mov	(_callStateHandler_sloc2_1_0 + 1),a
   05AA A3                 1195 	inc	dptr
   05AB 12s00r00           1196 	lcall	__gptrget
   05AE F5*0B              1197 	mov	(_callStateHandler_sloc2_1_0 + 2),a
   05B0 74 09              1198 	mov	a,#0x09
   05B2 25*05              1199 	add	a,_callStateHandler_sloc0_1_0
   05B4 FB                 1200 	mov	r3,a
   05B5 E4                 1201 	clr	a
   05B6 35*06              1202 	addc	a,(_callStateHandler_sloc0_1_0 + 1)
   05B8 FC                 1203 	mov	r4,a
   05B9 AA*07              1204 	mov	r2,(_callStateHandler_sloc0_1_0 + 2)
   05BB 8B 82              1205 	mov	dpl,r3
   05BD 8C 83              1206 	mov	dph,r4
   05BF 8A F0              1207 	mov	b,r2
   05C1 12s00r00           1208 	lcall	__gptrget
   05C4 FB                 1209 	mov	r3,a
   05C5 A3                 1210 	inc	dptr
   05C6 12s00r00           1211 	lcall	__gptrget
   05C9 FC                 1212 	mov	r4,a
   05CA 90s00r00           1213 	mov	dptr,#__mulint_PARM_2
   05CD EB                 1214 	mov	a,r3
   05CE F0                 1215 	movx	@dptr,a
   05CF A3                 1216 	inc	dptr
   05D0 EC                 1217 	mov	a,r4
   05D1 F0                 1218 	movx	@dptr,a
   05D2 90 00 03           1219 	mov	dptr,#0x0003
   05D5 C0 04              1220 	push	ar4
   05D7 C0 05              1221 	push	ar5
   05D9 C0 06              1222 	push	ar6
   05DB C0 07              1223 	push	ar7
   05DD 12s00r00           1224 	lcall	__mulint
   05E0 AA 82              1225 	mov	r2,dpl
   05E2 AB 83              1226 	mov	r3,dph
   05E4 D0 07              1227 	pop	ar7
   05E6 D0 06              1228 	pop	ar6
   05E8 D0 05              1229 	pop	ar5
   05EA D0 04              1230 	pop	ar4
   05EC EA                 1231 	mov	a,r2
   05ED 25*09              1232 	add	a,_callStateHandler_sloc2_1_0
   05EF FA                 1233 	mov	r2,a
   05F0 EB                 1234 	mov	a,r3
   05F1 35*0A              1235 	addc	a,(_callStateHandler_sloc2_1_0 + 1)
   05F3 FB                 1236 	mov	r3,a
   05F4 AC*0B              1237 	mov	r4,(_callStateHandler_sloc2_1_0 + 2)
   05F6 74 25              1238 	mov	a,#0x25
   05F8 2D                 1239 	add	a,r5
   05F9 FD                 1240 	mov	r5,a
   05FA E4                 1241 	clr	a
   05FB 3E                 1242 	addc	a,r6
   05FC FE                 1243 	mov	r6,a
   05FD 8D 82              1244 	mov	dpl,r5
   05FF 8E 83              1245 	mov	dph,r6
   0601 8F F0              1246 	mov	b,r7
   0603 12s00r00           1247 	lcall	__gptrget
   0606 FD                 1248 	mov	r5,a
   0607 A3                 1249 	inc	dptr
   0608 12s00r00           1250 	lcall	__gptrget
   060B FE                 1251 	mov	r6,a
   060C A3                 1252 	inc	dptr
   060D 12s00r00           1253 	lcall	__gptrget
   0610 FF                 1254 	mov	r7,a
   0611 8A 82              1255 	mov	dpl,r2
   0613 8B 83              1256 	mov	dph,r3
   0615 8C F0              1257 	mov	b,r4
   0617 ED                 1258 	mov	a,r5
   0618 12s00r00           1259 	lcall	__gptrput
   061B A3                 1260 	inc	dptr
   061C EE                 1261 	mov	a,r6
   061D 12s00r00           1262 	lcall	__gptrput
   0620 A3                 1263 	inc	dptr
   0621 EF                 1264 	mov	a,r7
   0622 12s00r00           1265 	lcall	__gptrput
                           1266 ;	D:/EiqEnergy/Projects/Software/_SoftwareLibraries/StateMachines/stateMachine_G4.c:211: return response ;
   0625 D0 04              1267 	pop	ar4
   0627 D0 03              1268 	pop	ar3
   0629 D0 02              1269 	pop	ar2
                           1270 ;	D:/EiqEnergy/Projects/Software/_SoftwareLibraries/StateMachines/stateMachine_G4.c:187: sm->historicalMarkers[((state_with_history_t*)state)->historyMarkerIndex] = sm->mostRecentlyEnteredState ;
   062B                    1271 00107$:
                           1272 ;	D:/EiqEnergy/Projects/Software/_SoftwareLibraries/StateMachines/stateMachine_G4.c:190: sm->mostRecentlyExitedState = (void*)state ;
   062B 90s00rAB           1273 	mov	dptr,#_callStateHandler_sm_1_1
   062E E0                 1274 	movx	a,@dptr
   062F FD                 1275 	mov	r5,a
   0630 A3                 1276 	inc	dptr
   0631 E0                 1277 	movx	a,@dptr
   0632 FE                 1278 	mov	r6,a
   0633 A3                 1279 	inc	dptr
   0634 E0                 1280 	movx	a,@dptr
   0635 FF                 1281 	mov	r7,a
   0636 74 28              1282 	mov	a,#0x28
   0638 2D                 1283 	add	a,r5
   0639 FD                 1284 	mov	r5,a
   063A E4                 1285 	clr	a
   063B 3E                 1286 	addc	a,r6
   063C FE                 1287 	mov	r6,a
   063D 8D 82              1288 	mov	dpl,r5
   063F 8E 83              1289 	mov	dph,r6
   0641 8F F0              1290 	mov	b,r7
   0643 E5*05              1291 	mov	a,_callStateHandler_sloc0_1_0
   0645 12s00r00           1292 	lcall	__gptrput
   0648 A3                 1293 	inc	dptr
   0649 E5*06              1294 	mov	a,(_callStateHandler_sloc0_1_0 + 1)
   064B 12s00r00           1295 	lcall	__gptrput
   064E A3                 1296 	inc	dptr
   064F E5*07              1297 	mov	a,(_callStateHandler_sloc0_1_0 + 2)
   0651 12s00r00           1298 	lcall	__gptrput
   0654                    1299 00109$:
                           1300 ;	D:/EiqEnergy/Projects/Software/_SoftwareLibraries/StateMachines/stateMachine_G4.c:193: response = ((stateMachine_callStateHandler_t)(state->handler))(sm, event) ;
   0654 74 04              1301 	mov	a,#0x04
   0656 25*05              1302 	add	a,_callStateHandler_sloc0_1_0
   0658 FD                 1303 	mov	r5,a
   0659 E4                 1304 	clr	a
   065A 35*06              1305 	addc	a,(_callStateHandler_sloc0_1_0 + 1)
   065C FE                 1306 	mov	r6,a
   065D AF*07              1307 	mov	r7,(_callStateHandler_sloc0_1_0 + 2)
   065F 8D 82              1308 	mov	dpl,r5
   0661 8E 83              1309 	mov	dph,r6
   0663 8F F0              1310 	mov	b,r7
   0665 12s00r00           1311 	lcall	__gptrget
   0668 FD                 1312 	mov	r5,a
   0669 A3                 1313 	inc	dptr
   066A 12s00r00           1314 	lcall	__gptrget
   066D FE                 1315 	mov	r6,a
   066E 90s00rAB           1316 	mov	dptr,#_callStateHandler_sm_1_1
   0671 E0                 1317 	movx	a,@dptr
   0672 FF                 1318 	mov	r7,a
   0673 A3                 1319 	inc	dptr
   0674 E0                 1320 	movx	a,@dptr
   0675 F8                 1321 	mov	r0,a
   0676 A3                 1322 	inc	dptr
   0677 E0                 1323 	movx	a,@dptr
   0678 F9                 1324 	mov	r1,a
   0679 C0 06              1325 	push	ar6
   067B C0 02              1326 	push	ar2
   067D C0 03              1327 	push	ar3
   067F C0 04              1328 	push	ar4
   0681 74r94              1329 	mov	a,#00139$
   0683 C0 E0              1330 	push	acc
   0685 74s06              1331 	mov	a,#(00139$ >> 8)
   0687 C0 E0              1332 	push	acc
   0689 C0 05              1333 	push	ar5
   068B C0 06              1334 	push	ar6
   068D 8F 82              1335 	mov	dpl,r7
   068F 88 83              1336 	mov	dph,r0
   0691 89 F0              1337 	mov	b,r1
   0693 22                 1338 	ret
   0694                    1339 00139$:
   0694 AD 82              1340 	mov	r5,dpl
   0696 15 81              1341 	dec	sp
   0698 15 81              1342 	dec	sp
   069A 15 81              1343 	dec	sp
   069C D0 06              1344 	pop	ar6
   069E 90s00rAE           1345 	mov	dptr,#_callStateHandler_response_1_1
   06A1 ED                 1346 	mov	a,r5
   06A2 F0                 1347 	movx	@dptr,a
   06A3                    1348 00112$:
                           1349 ;	D:/EiqEnergy/Projects/Software/_SoftwareLibraries/StateMachines/stateMachine_G4.c:197: printf("response: %s ", responseTypes[response]) ;
   06A3 90s00rAE           1350 	mov	dptr,#_callStateHandler_response_1_1
   06A6 E0                 1351 	movx	a,@dptr
   06A7 FA                 1352 	mov	r2,a
   06A8 75 F0 03           1353 	mov	b,#0x03
   06AB A4                 1354 	mul	ab
   06AC 24r12              1355 	add	a,#_responseTypes
   06AE F5 82              1356 	mov	dpl,a
   06B0 E4                 1357 	clr	a
   06B1 34s00              1358 	addc	a,#(_responseTypes >> 8)
   06B3 F5 83              1359 	mov	dph,a
   06B5 E0                 1360 	movx	a,@dptr
   06B6 FB                 1361 	mov	r3,a
   06B7 A3                 1362 	inc	dptr
   06B8 E0                 1363 	movx	a,@dptr
   06B9 FC                 1364 	mov	r4,a
   06BA A3                 1365 	inc	dptr
   06BB E0                 1366 	movx	a,@dptr
   06BC FD                 1367 	mov	r5,a
   06BD C0 02              1368 	push	ar2
   06BF C0 03              1369 	push	ar3
   06C1 C0 04              1370 	push	ar4
   06C3 C0 05              1371 	push	ar5
   06C5 74r2F              1372 	mov	a,#__str_2
   06C7 C0 E0              1373 	push	acc
   06C9 74s00              1374 	mov	a,#(__str_2 >> 8)
   06CB C0 E0              1375 	push	acc
   06CD 74 80              1376 	mov	a,#0x80
   06CF C0 E0              1377 	push	acc
   06D1 12s00r00           1378 	lcall	_printf
   06D4 E5 81              1379 	mov	a,sp
   06D6 24 FA              1380 	add	a,#0xfa
   06D8 F5 81              1381 	mov	sp,a
   06DA D0 02              1382 	pop	ar2
                           1383 ;	D:/EiqEnergy/Projects/Software/_SoftwareLibraries/StateMachines/stateMachine_G4.c:200: if(response == TRANSITION)
   06DC BA 02 5C           1384 	cjne	r2,#0x02,00114$
                           1385 ;	D:/EiqEnergy/Projects/Software/_SoftwareLibraries/StateMachines/stateMachine_G4.c:203: printf("to %s ", ((state_t*)(sm->nextState))->stateName) ;
   06DF 90s00rAB           1386 	mov	dptr,#_callStateHandler_sm_1_1
   06E2 E0                 1387 	movx	a,@dptr
   06E3 FA                 1388 	mov	r2,a
   06E4 A3                 1389 	inc	dptr
   06E5 E0                 1390 	movx	a,@dptr
   06E6 FB                 1391 	mov	r3,a
   06E7 A3                 1392 	inc	dptr
   06E8 E0                 1393 	movx	a,@dptr
   06E9 FC                 1394 	mov	r4,a
   06EA 74 08              1395 	mov	a,#0x08
   06EC 2A                 1396 	add	a,r2
   06ED FA                 1397 	mov	r2,a
   06EE E4                 1398 	clr	a
   06EF 3B                 1399 	addc	a,r3
   06F0 FB                 1400 	mov	r3,a
   06F1 8A 82              1401 	mov	dpl,r2
   06F3 8B 83              1402 	mov	dph,r3
   06F5 8C F0              1403 	mov	b,r4
   06F7 12s00r00           1404 	lcall	__gptrget
   06FA FA                 1405 	mov	r2,a
   06FB A3                 1406 	inc	dptr
   06FC 12s00r00           1407 	lcall	__gptrget
   06FF FB                 1408 	mov	r3,a
   0700 A3                 1409 	inc	dptr
   0701 12s00r00           1410 	lcall	__gptrget
   0704 FC                 1411 	mov	r4,a
   0705 74 06              1412 	mov	a,#0x06
   0707 2A                 1413 	add	a,r2
   0708 FA                 1414 	mov	r2,a
   0709 E4                 1415 	clr	a
   070A 3B                 1416 	addc	a,r3
   070B FB                 1417 	mov	r3,a
   070C 8A 82              1418 	mov	dpl,r2
   070E 8B 83              1419 	mov	dph,r3
   0710 8C F0              1420 	mov	b,r4
   0712 12s00r00           1421 	lcall	__gptrget
   0715 FA                 1422 	mov	r2,a
   0716 A3                 1423 	inc	dptr
   0717 12s00r00           1424 	lcall	__gptrget
   071A FB                 1425 	mov	r3,a
   071B A3                 1426 	inc	dptr
   071C 12s00r00           1427 	lcall	__gptrget
   071F FC                 1428 	mov	r4,a
   0720 C0 02              1429 	push	ar2
   0722 C0 03              1430 	push	ar3
   0724 C0 04              1431 	push	ar4
   0726 74r3D              1432 	mov	a,#__str_3
   0728 C0 E0              1433 	push	acc
   072A 74s00              1434 	mov	a,#(__str_3 >> 8)
   072C C0 E0              1435 	push	acc
   072E 74 80              1436 	mov	a,#0x80
   0730 C0 E0              1437 	push	acc
   0732 12s00r00           1438 	lcall	_printf
   0735 E5 81              1439 	mov	a,sp
   0737 24 FA              1440 	add	a,#0xfa
   0739 F5 81              1441 	mov	sp,a
   073B                    1442 00114$:
                           1443 ;	D:/EiqEnergy/Projects/Software/_SoftwareLibraries/StateMachines/stateMachine_G4.c:208: printf("\n") ;
   073B 74r44              1444 	mov	a,#__str_4
   073D C0 E0              1445 	push	acc
   073F 74s00              1446 	mov	a,#(__str_4 >> 8)
   0741 C0 E0              1447 	push	acc
   0743 74 80              1448 	mov	a,#0x80
   0745 C0 E0              1449 	push	acc
   0747 12s00r00           1450 	lcall	_printf
   074A 15 81              1451 	dec	sp
   074C 15 81              1452 	dec	sp
   074E 15 81              1453 	dec	sp
                           1454 ;	D:/EiqEnergy/Projects/Software/_SoftwareLibraries/StateMachines/stateMachine_G4.c:211: return response ;
   0750 90s00rAE           1455 	mov	dptr,#_callStateHandler_response_1_1
   0753 E0                 1456 	movx	a,@dptr
   0754 F5 82              1457 	mov	dpl,a
   0756 22                 1458 	ret
                           1459 ;------------------------------------------------------------
                           1460 ;Allocation info for local variables in function 'iterateStateMachine'
                           1461 ;------------------------------------------------------------
                           1462 ;sloc0                     Allocated with name '_iterateStateMachine_sloc0_1_0'
                           1463 ;sloc1                     Allocated with name '_iterateStateMachine_sloc1_1_0'
                           1464 ;sloc2                     Allocated with name '_iterateStateMachine_sloc2_1_0'
                           1465 ;sloc3                     Allocated with name '_iterateStateMachine_sloc3_1_0'
                           1466 ;sloc4                     Allocated with name '_iterateStateMachine_sloc4_1_0'
                           1467 ;sloc5                     Allocated with name '_iterateStateMachine_sloc5_1_0'
                           1468 ;sm                        Allocated with name '_iterateStateMachine_sm_1_1'
                           1469 ;eventToProcess            Allocated with name '_iterateStateMachine_eventToProcess_2_3'
                           1470 ;stateBeingProcessed       Allocated with name '_iterateStateMachine_stateBeingProcessed_2_3'
                           1471 ;action                    Allocated with name '_iterateStateMachine_action_2_3'
                           1472 ;nextState                 Allocated with name '_iterateStateMachine_nextState_4_11'
                           1473 ;source                    Allocated with name '_iterateStateMachine_source_3_14'
                           1474 ;target                    Allocated with name '_iterateStateMachine_target_3_14'
                           1475 ;sourceHierarchy           Allocated with name '_iterateStateMachine_sourceHierarchy_4_19'
                           1476 ;sourceIndex               Allocated with name '_iterateStateMachine_sourceIndex_4_19'
                           1477 ;targetHierarchy           Allocated with name '_iterateStateMachine_targetHierarchy_4_19'
                           1478 ;targetIndex               Allocated with name '_iterateStateMachine_targetIndex_4_19'
                           1479 ;LCA                       Allocated with name '_iterateStateMachine_LCA_4_19'
                           1480 ;entryIndex                Allocated with name '_iterateStateMachine_entryIndex_4_19'
                           1481 ;exitIndex                 Allocated with name '_iterateStateMachine_exitIndex_4_19'
                           1482 ;exitIndex                 Allocated with name '_iterateStateMachine_exitIndex_6_21'
                           1483 ;LCAindex                  Allocated with name '_iterateStateMachine_LCAindex_5_27'
                           1484 ;------------------------------------------------------------
                           1485 ;	D:/EiqEnergy/Projects/Software/_SoftwareLibraries/StateMachines/stateMachine_G4.c:215: void iterateStateMachine(	stateMachine_t* sm)
                           1486 ;	-----------------------------------------
                           1487 ;	 function iterateStateMachine
                           1488 ;	-----------------------------------------
   0757                    1489 _iterateStateMachine:
   0757 AA F0              1490 	mov	r2,b
   0759 AB 83              1491 	mov	r3,dph
   075B E5 82              1492 	mov	a,dpl
   075D 90s00rAF           1493 	mov	dptr,#_iterateStateMachine_sm_1_1
   0760 F0                 1494 	movx	@dptr,a
   0761 A3                 1495 	inc	dptr
   0762 EB                 1496 	mov	a,r3
   0763 F0                 1497 	movx	@dptr,a
   0764 A3                 1498 	inc	dptr
   0765 EA                 1499 	mov	a,r2
   0766 F0                 1500 	movx	@dptr,a
                           1501 ;	D:/EiqEnergy/Projects/Software/_SoftwareLibraries/StateMachines/stateMachine_G4.c:218: printf("\titerating %s\n", sm->stateMachineName) ;
   0767 90s00rAF           1502 	mov	dptr,#_iterateStateMachine_sm_1_1
   076A E0                 1503 	movx	a,@dptr
   076B FA                 1504 	mov	r2,a
   076C A3                 1505 	inc	dptr
   076D E0                 1506 	movx	a,@dptr
   076E FB                 1507 	mov	r3,a
   076F A3                 1508 	inc	dptr
   0770 E0                 1509 	movx	a,@dptr
   0771 FC                 1510 	mov	r4,a
   0772 74 02              1511 	mov	a,#0x02
   0774 2A                 1512 	add	a,r2
   0775 FD                 1513 	mov	r5,a
   0776 E4                 1514 	clr	a
   0777 3B                 1515 	addc	a,r3
   0778 FE                 1516 	mov	r6,a
   0779 8C 07              1517 	mov	ar7,r4
   077B 8D 82              1518 	mov	dpl,r5
   077D 8E 83              1519 	mov	dph,r6
   077F 8F F0              1520 	mov	b,r7
   0781 12s00r00           1521 	lcall	__gptrget
   0784 FD                 1522 	mov	r5,a
   0785 A3                 1523 	inc	dptr
   0786 12s00r00           1524 	lcall	__gptrget
   0789 FE                 1525 	mov	r6,a
   078A A3                 1526 	inc	dptr
   078B 12s00r00           1527 	lcall	__gptrget
   078E FF                 1528 	mov	r7,a
   078F C0 02              1529 	push	ar2
   0791 C0 03              1530 	push	ar3
   0793 C0 04              1531 	push	ar4
   0795 C0 05              1532 	push	ar5
   0797 C0 06              1533 	push	ar6
   0799 C0 07              1534 	push	ar7
   079B 74r46              1535 	mov	a,#__str_5
   079D C0 E0              1536 	push	acc
   079F 74s00              1537 	mov	a,#(__str_5 >> 8)
   07A1 C0 E0              1538 	push	acc
   07A3 74 80              1539 	mov	a,#0x80
   07A5 C0 E0              1540 	push	acc
   07A7 12s00r00           1541 	lcall	_printf
   07AA E5 81              1542 	mov	a,sp
   07AC 24 FA              1543 	add	a,#0xfa
   07AE F5 81              1544 	mov	sp,a
   07B0 D0 04              1545 	pop	ar4
   07B2 D0 03              1546 	pop	ar3
   07B4 D0 02              1547 	pop	ar2
                           1548 ;	D:/EiqEnergy/Projects/Software/_SoftwareLibraries/StateMachines/stateMachine_G4.c:225: if(!sm->stateMachineInitialized)
   07B6 74 1E              1549 	mov	a,#0x1E
   07B8 2A                 1550 	add	a,r2
   07B9 FD                 1551 	mov	r5,a
   07BA E4                 1552 	clr	a
   07BB 3B                 1553 	addc	a,r3
   07BC FE                 1554 	mov	r6,a
   07BD 8C 07              1555 	mov	ar7,r4
   07BF 8D 82              1556 	mov	dpl,r5
   07C1 8E 83              1557 	mov	dph,r6
   07C3 8F F0              1558 	mov	b,r7
   07C5 12s00r00           1559 	lcall	__gptrget
   07C8 60 03              1560 	jz	00210$
   07CA 02s08r73           1561 	ljmp	00102$
   07CD                    1562 00210$:
                           1563 ;	D:/EiqEnergy/Projects/Software/_SoftwareLibraries/StateMachines/stateMachine_G4.c:228: printf("\t\tinitializing...\n") ;
   07CD C0 02              1564 	push	ar2
   07CF C0 03              1565 	push	ar3
   07D1 C0 04              1566 	push	ar4
   07D3 74r55              1567 	mov	a,#__str_6
   07D5 C0 E0              1568 	push	acc
   07D7 74s00              1569 	mov	a,#(__str_6 >> 8)
   07D9 C0 E0              1570 	push	acc
   07DB 74 80              1571 	mov	a,#0x80
   07DD C0 E0              1572 	push	acc
   07DF 12s00r00           1573 	lcall	_printf
   07E2 15 81              1574 	dec	sp
   07E4 15 81              1575 	dec	sp
   07E6 15 81              1576 	dec	sp
   07E8 D0 04              1577 	pop	ar4
   07EA D0 03              1578 	pop	ar3
   07EC D0 02              1579 	pop	ar2
                           1580 ;	D:/EiqEnergy/Projects/Software/_SoftwareLibraries/StateMachines/stateMachine_G4.c:231: sm->currentState = (state_t*)sm->topState ;
   07EE 74 05              1581 	mov	a,#0x05
   07F0 2A                 1582 	add	a,r2
   07F1 F5*0C              1583 	mov	_iterateStateMachine_sloc0_1_0,a
   07F3 E4                 1584 	clr	a
   07F4 3B                 1585 	addc	a,r3
   07F5 F5*0D              1586 	mov	(_iterateStateMachine_sloc0_1_0 + 1),a
   07F7 8C*0E              1587 	mov	(_iterateStateMachine_sloc0_1_0 + 2),r4
   07F9 8A 82              1588 	mov	dpl,r2
   07FB 8B 83              1589 	mov	dph,r3
   07FD 8C F0              1590 	mov	b,r4
   07FF 12s00r00           1591 	lcall	__gptrget
   0802 F8                 1592 	mov	r0,a
   0803 A3                 1593 	inc	dptr
   0804 12s00r00           1594 	lcall	__gptrget
   0807 F9                 1595 	mov	r1,a
   0808 7D 80              1596 	mov	r5,#0x80
   080A 85*0C 82           1597 	mov	dpl,_iterateStateMachine_sloc0_1_0
   080D 85*0D 83           1598 	mov	dph,(_iterateStateMachine_sloc0_1_0 + 1)
   0810 85*0E F0           1599 	mov	b,(_iterateStateMachine_sloc0_1_0 + 2)
   0813 E8                 1600 	mov	a,r0
   0814 12s00r00           1601 	lcall	__gptrput
   0817 A3                 1602 	inc	dptr
   0818 E9                 1603 	mov	a,r1
   0819 12s00r00           1604 	lcall	__gptrput
   081C A3                 1605 	inc	dptr
   081D ED                 1606 	mov	a,r5
   081E 12s00r00           1607 	lcall	__gptrput
                           1608 ;	D:/EiqEnergy/Projects/Software/_SoftwareLibraries/StateMachines/stateMachine_G4.c:233: callStateHandler(sm, sm->currentState, &enterEvent) ;
   0821 90s00rA5           1609 	mov	dptr,#_callStateHandler_PARM_2
   0824 E8                 1610 	mov	a,r0
   0825 F0                 1611 	movx	@dptr,a
   0826 A3                 1612 	inc	dptr
   0827 E9                 1613 	mov	a,r1
   0828 F0                 1614 	movx	@dptr,a
   0829 A3                 1615 	inc	dptr
   082A ED                 1616 	mov	a,r5
   082B F0                 1617 	movx	@dptr,a
   082C 90s00rA8           1618 	mov	dptr,#_callStateHandler_PARM_3
   082F 74r20              1619 	mov	a,#_enterEvent
   0831 F0                 1620 	movx	@dptr,a
   0832 A3                 1621 	inc	dptr
   0833 74s00              1622 	mov	a,#(_enterEvent >> 8)
   0835 F0                 1623 	movx	@dptr,a
   0836 A3                 1624 	inc	dptr
   0837 E4                 1625 	clr	a
   0838 F0                 1626 	movx	@dptr,a
   0839 8A 82              1627 	mov	dpl,r2
   083B 8B 83              1628 	mov	dph,r3
   083D 8C F0              1629 	mov	b,r4
   083F 12s03r58           1630 	lcall	_callStateHandler
                           1631 ;	D:/EiqEnergy/Projects/Software/_SoftwareLibraries/StateMachines/stateMachine_G4.c:235: sm->stateMachineInitialized	= true ;
   0842 90s00rAF           1632 	mov	dptr,#_iterateStateMachine_sm_1_1
   0845 E0                 1633 	movx	a,@dptr
   0846 FA                 1634 	mov	r2,a
   0847 A3                 1635 	inc	dptr
   0848 E0                 1636 	movx	a,@dptr
   0849 FB                 1637 	mov	r3,a
   084A A3                 1638 	inc	dptr
   084B E0                 1639 	movx	a,@dptr
   084C FC                 1640 	mov	r4,a
   084D 74 1E              1641 	mov	a,#0x1E
   084F 2A                 1642 	add	a,r2
   0850 FD                 1643 	mov	r5,a
   0851 E4                 1644 	clr	a
   0852 3B                 1645 	addc	a,r3
   0853 FE                 1646 	mov	r6,a
   0854 8C 07              1647 	mov	ar7,r4
   0856 8D 82              1648 	mov	dpl,r5
   0858 8E 83              1649 	mov	dph,r6
   085A 8F F0              1650 	mov	b,r7
   085C 74 01              1651 	mov	a,#0x01
   085E 12s00r00           1652 	lcall	__gptrput
                           1653 ;	D:/EiqEnergy/Projects/Software/_SoftwareLibraries/StateMachines/stateMachine_G4.c:236: sm->forceTransition			= true ;
   0861 74 1F              1654 	mov	a,#0x1F
   0863 2A                 1655 	add	a,r2
   0864 FA                 1656 	mov	r2,a
   0865 E4                 1657 	clr	a
   0866 3B                 1658 	addc	a,r3
   0867 FB                 1659 	mov	r3,a
   0868 8A 82              1660 	mov	dpl,r2
   086A 8B 83              1661 	mov	dph,r3
   086C 8C F0              1662 	mov	b,r4
   086E 74 01              1663 	mov	a,#0x01
   0870 12s00r00           1664 	lcall	__gptrput
   0873                    1665 00102$:
                           1666 ;	D:/EiqEnergy/Projects/Software/_SoftwareLibraries/StateMachines/stateMachine_G4.c:241: if((!eventQueue_isEmpty(&sm->eventQueue)) || (sm->forceTransition))
   0873 90s00rAF           1667 	mov	dptr,#_iterateStateMachine_sm_1_1
   0876 E0                 1668 	movx	a,@dptr
   0877 FA                 1669 	mov	r2,a
   0878 A3                 1670 	inc	dptr
   0879 E0                 1671 	movx	a,@dptr
   087A FB                 1672 	mov	r3,a
   087B A3                 1673 	inc	dptr
   087C E0                 1674 	movx	a,@dptr
   087D FC                 1675 	mov	r4,a
   087E 74 0B              1676 	mov	a,#0x0B
   0880 2A                 1677 	add	a,r2
   0881 FD                 1678 	mov	r5,a
   0882 E4                 1679 	clr	a
   0883 3B                 1680 	addc	a,r3
   0884 FE                 1681 	mov	r6,a
   0885 8C 07              1682 	mov	ar7,r4
   0887 8D 82              1683 	mov	dpl,r5
   0889 8E 83              1684 	mov	dph,r6
   088B 8F F0              1685 	mov	b,r7
   088D C0 02              1686 	push	ar2
   088F C0 03              1687 	push	ar3
   0891 C0 04              1688 	push	ar4
   0893 12s00r00           1689 	lcall	_eventQueue_isEmpty
   0896 E5 82              1690 	mov	a,dpl
   0898 D0 04              1691 	pop	ar4
   089A D0 03              1692 	pop	ar3
   089C D0 02              1693 	pop	ar2
   089E 60 15              1694 	jz	00166$
   08A0 74 1F              1695 	mov	a,#0x1F
   08A2 2A                 1696 	add	a,r2
   08A3 FA                 1697 	mov	r2,a
   08A4 E4                 1698 	clr	a
   08A5 3B                 1699 	addc	a,r3
   08A6 FB                 1700 	mov	r3,a
   08A7 8A 82              1701 	mov	dpl,r2
   08A9 8B 83              1702 	mov	dph,r3
   08AB 8C F0              1703 	mov	b,r4
   08AD 12s00r00           1704 	lcall	__gptrget
   08B0 70 03              1705 	jnz	00212$
   08B2 02s15rB7           1706 	ljmp	00167$
   08B5                    1707 00212$:
   08B5                    1708 00166$:
                           1709 ;	D:/EiqEnergy/Projects/Software/_SoftwareLibraries/StateMachines/stateMachine_G4.c:244: state_t*						stateBeingProcessed	= sm->currentState ;
   08B5 90s00rAF           1710 	mov	dptr,#_iterateStateMachine_sm_1_1
   08B8 E0                 1711 	movx	a,@dptr
   08B9 FA                 1712 	mov	r2,a
   08BA A3                 1713 	inc	dptr
   08BB E0                 1714 	movx	a,@dptr
   08BC FB                 1715 	mov	r3,a
   08BD A3                 1716 	inc	dptr
   08BE E0                 1717 	movx	a,@dptr
   08BF FC                 1718 	mov	r4,a
   08C0 74 05              1719 	mov	a,#0x05
   08C2 2A                 1720 	add	a,r2
   08C3 FD                 1721 	mov	r5,a
   08C4 E4                 1722 	clr	a
   08C5 3B                 1723 	addc	a,r3
   08C6 FE                 1724 	mov	r6,a
   08C7 8C 07              1725 	mov	ar7,r4
   08C9 8D 82              1726 	mov	dpl,r5
   08CB 8E 83              1727 	mov	dph,r6
   08CD 8F F0              1728 	mov	b,r7
   08CF 12s00r00           1729 	lcall	__gptrget
   08D2 FD                 1730 	mov	r5,a
   08D3 A3                 1731 	inc	dptr
   08D4 12s00r00           1732 	lcall	__gptrget
   08D7 FE                 1733 	mov	r6,a
   08D8 A3                 1734 	inc	dptr
   08D9 12s00r00           1735 	lcall	__gptrget
   08DC FF                 1736 	mov	r7,a
   08DD 90s00rB5           1737 	mov	dptr,#_iterateStateMachine_stateBeingProcessed_2_3
   08E0 ED                 1738 	mov	a,r5
   08E1 F0                 1739 	movx	@dptr,a
   08E2 A3                 1740 	inc	dptr
   08E3 EE                 1741 	mov	a,r6
   08E4 F0                 1742 	movx	@dptr,a
   08E5 A3                 1743 	inc	dptr
   08E6 EF                 1744 	mov	a,r7
   08E7 F0                 1745 	movx	@dptr,a
                           1746 ;	D:/EiqEnergy/Projects/Software/_SoftwareLibraries/StateMachines/stateMachine_G4.c:247: if(sm->forceTransition)
   08E8 74 1F              1747 	mov	a,#0x1F
   08EA 2A                 1748 	add	a,r2
   08EB FD                 1749 	mov	r5,a
   08EC E4                 1750 	clr	a
   08ED 3B                 1751 	addc	a,r3
   08EE FE                 1752 	mov	r6,a
   08EF 8C 07              1753 	mov	ar7,r4
   08F1 8D 82              1754 	mov	dpl,r5
   08F3 8E 83              1755 	mov	dph,r6
   08F5 8F F0              1756 	mov	b,r7
   08F7 12s00r00           1757 	lcall	__gptrget
   08FA 60 19              1758 	jz	00104$
                           1759 ;	D:/EiqEnergy/Projects/Software/_SoftwareLibraries/StateMachines/stateMachine_G4.c:249: sm->forceTransition	= false ;
   08FC 8D 82              1760 	mov	dpl,r5
   08FE 8E 83              1761 	mov	dph,r6
   0900 8F F0              1762 	mov	b,r7
   0902 E4                 1763 	clr	a
   0903 12s00r00           1764 	lcall	__gptrput
                           1765 ;	D:/EiqEnergy/Projects/Software/_SoftwareLibraries/StateMachines/stateMachine_G4.c:250: eventToProcess		= &initialTransitionEvent ;
   0906 90s00rB2           1766 	mov	dptr,#_iterateStateMachine_eventToProcess_2_3
   0909 74r1E              1767 	mov	a,#_initialTransitionEvent
   090B F0                 1768 	movx	@dptr,a
   090C A3                 1769 	inc	dptr
   090D 74s00              1770 	mov	a,#(_initialTransitionEvent >> 8)
   090F F0                 1771 	movx	@dptr,a
   0910 A3                 1772 	inc	dptr
   0911 E4                 1773 	clr	a
   0912 F0                 1774 	movx	@dptr,a
   0913 80 21              1775 	sjmp	00105$
   0915                    1776 00104$:
                           1777 ;	D:/EiqEnergy/Projects/Software/_SoftwareLibraries/StateMachines/stateMachine_G4.c:254: eventToProcess = eventQueue_remove(&sm->eventQueue) ; ;
   0915 74 0B              1778 	mov	a,#0x0B
   0917 2A                 1779 	add	a,r2
   0918 FA                 1780 	mov	r2,a
   0919 E4                 1781 	clr	a
   091A 3B                 1782 	addc	a,r3
   091B FB                 1783 	mov	r3,a
   091C 8A 82              1784 	mov	dpl,r2
   091E 8B 83              1785 	mov	dph,r3
   0920 8C F0              1786 	mov	b,r4
   0922 12s00r00           1787 	lcall	_eventQueue_remove
   0925 AA 82              1788 	mov	r2,dpl
   0927 AB 83              1789 	mov	r3,dph
   0929 AC F0              1790 	mov	r4,b
   092B 90s00rB2           1791 	mov	dptr,#_iterateStateMachine_eventToProcess_2_3
   092E EA                 1792 	mov	a,r2
   092F F0                 1793 	movx	@dptr,a
   0930 A3                 1794 	inc	dptr
   0931 EB                 1795 	mov	a,r3
   0932 F0                 1796 	movx	@dptr,a
   0933 A3                 1797 	inc	dptr
   0934 EC                 1798 	mov	a,r4
   0935 F0                 1799 	movx	@dptr,a
   0936                    1800 00105$:
                           1801 ;	D:/EiqEnergy/Projects/Software/_SoftwareLibraries/StateMachines/stateMachine_G4.c:257: sm->nextState = (state_t*)0 ;	/* just a little housecleaning */
   0936 90s00rAF           1802 	mov	dptr,#_iterateStateMachine_sm_1_1
   0939 E0                 1803 	movx	a,@dptr
   093A FA                 1804 	mov	r2,a
   093B A3                 1805 	inc	dptr
   093C E0                 1806 	movx	a,@dptr
   093D FB                 1807 	mov	r3,a
   093E A3                 1808 	inc	dptr
   093F E0                 1809 	movx	a,@dptr
   0940 FC                 1810 	mov	r4,a
   0941 74 08              1811 	mov	a,#0x08
   0943 2A                 1812 	add	a,r2
   0944 FA                 1813 	mov	r2,a
   0945 E4                 1814 	clr	a
   0946 3B                 1815 	addc	a,r3
   0947 FB                 1816 	mov	r3,a
   0948 8A 82              1817 	mov	dpl,r2
   094A 8B 83              1818 	mov	dph,r3
   094C 8C F0              1819 	mov	b,r4
   094E E4                 1820 	clr	a
   094F 12s00r00           1821 	lcall	__gptrput
   0952 A3                 1822 	inc	dptr
   0953 E4                 1823 	clr	a
   0954 12s00r00           1824 	lcall	__gptrput
   0957 A3                 1825 	inc	dptr
   0958 E4                 1826 	clr	a
   0959 12s00r00           1827 	lcall	__gptrput
                           1828 ;	D:/EiqEnergy/Projects/Software/_SoftwareLibraries/StateMachines/stateMachine_G4.c:260: printf("\t\tProcessing event...\n") ;
   095C 74r68              1829 	mov	a,#__str_7
   095E C0 E0              1830 	push	acc
   0960 74s00              1831 	mov	a,#(__str_7 >> 8)
   0962 C0 E0              1832 	push	acc
   0964 74 80              1833 	mov	a,#0x80
   0966 C0 E0              1834 	push	acc
   0968 12s00r00           1835 	lcall	_printf
   096B 15 81              1836 	dec	sp
   096D 15 81              1837 	dec	sp
   096F 15 81              1838 	dec	sp
                           1839 ;	D:/EiqEnergy/Projects/Software/_SoftwareLibraries/StateMachines/stateMachine_G4.c:270: do
   0971 90s00rB2           1840 	mov	dptr,#_iterateStateMachine_eventToProcess_2_3
   0974 E0                 1841 	movx	a,@dptr
   0975 FA                 1842 	mov	r2,a
   0976 A3                 1843 	inc	dptr
   0977 E0                 1844 	movx	a,@dptr
   0978 FB                 1845 	mov	r3,a
   0979 A3                 1846 	inc	dptr
   097A E0                 1847 	movx	a,@dptr
   097B FC                 1848 	mov	r4,a
   097C                    1849 00110$:
                           1850 ;	D:/EiqEnergy/Projects/Software/_SoftwareLibraries/StateMachines/stateMachine_G4.c:272: action = callStateHandler(sm, stateBeingProcessed, eventToProcess) ;
   097C C0 02              1851 	push	ar2
   097E C0 03              1852 	push	ar3
   0980 C0 04              1853 	push	ar4
   0982 90s00rAF           1854 	mov	dptr,#_iterateStateMachine_sm_1_1
   0985 E0                 1855 	movx	a,@dptr
   0986 FD                 1856 	mov	r5,a
   0987 A3                 1857 	inc	dptr
   0988 E0                 1858 	movx	a,@dptr
   0989 FE                 1859 	mov	r6,a
   098A A3                 1860 	inc	dptr
   098B E0                 1861 	movx	a,@dptr
   098C FF                 1862 	mov	r7,a
   098D 90s00rB5           1863 	mov	dptr,#_iterateStateMachine_stateBeingProcessed_2_3
   0990 E0                 1864 	movx	a,@dptr
   0991 F5*0C              1865 	mov	_iterateStateMachine_sloc0_1_0,a
   0993 A3                 1866 	inc	dptr
   0994 E0                 1867 	movx	a,@dptr
   0995 F5*0D              1868 	mov	(_iterateStateMachine_sloc0_1_0 + 1),a
   0997 A3                 1869 	inc	dptr
   0998 E0                 1870 	movx	a,@dptr
   0999 F5*0E              1871 	mov	(_iterateStateMachine_sloc0_1_0 + 2),a
   099B 90s00rB2           1872 	mov	dptr,#_iterateStateMachine_eventToProcess_2_3
   099E E0                 1873 	movx	a,@dptr
   099F FB                 1874 	mov	r3,a
   09A0 A3                 1875 	inc	dptr
   09A1 E0                 1876 	movx	a,@dptr
   09A2 FC                 1877 	mov	r4,a
   09A3 A3                 1878 	inc	dptr
   09A4 E0                 1879 	movx	a,@dptr
   09A5 FA                 1880 	mov	r2,a
   09A6 90s00rA5           1881 	mov	dptr,#_callStateHandler_PARM_2
   09A9 E5*0C              1882 	mov	a,_iterateStateMachine_sloc0_1_0
   09AB F0                 1883 	movx	@dptr,a
   09AC A3                 1884 	inc	dptr
   09AD E5*0D              1885 	mov	a,(_iterateStateMachine_sloc0_1_0 + 1)
   09AF F0                 1886 	movx	@dptr,a
   09B0 A3                 1887 	inc	dptr
   09B1 E5*0E              1888 	mov	a,(_iterateStateMachine_sloc0_1_0 + 2)
   09B3 F0                 1889 	movx	@dptr,a
   09B4 90s00rA8           1890 	mov	dptr,#_callStateHandler_PARM_3
   09B7 EB                 1891 	mov	a,r3
   09B8 F0                 1892 	movx	@dptr,a
   09B9 A3                 1893 	inc	dptr
   09BA EC                 1894 	mov	a,r4
   09BB F0                 1895 	movx	@dptr,a
   09BC A3                 1896 	inc	dptr
   09BD EA                 1897 	mov	a,r2
   09BE F0                 1898 	movx	@dptr,a
   09BF 8D 82              1899 	mov	dpl,r5
   09C1 8E 83              1900 	mov	dph,r6
   09C3 8F F0              1901 	mov	b,r7
   09C5 C0 03              1902 	push	ar3
   09C7 C0 04              1903 	push	ar4
   09C9 12s03r58           1904 	lcall	_callStateHandler
   09CC AA 82              1905 	mov	r2,dpl
   09CE D0 04              1906 	pop	ar4
   09D0 D0 03              1907 	pop	ar3
   09D2 90s00rB8           1908 	mov	dptr,#_iterateStateMachine_action_2_3
   09D5 EA                 1909 	mov	a,r2
   09D6 F0                 1910 	movx	@dptr,a
                           1911 ;	D:/EiqEnergy/Projects/Software/_SoftwareLibraries/StateMachines/stateMachine_G4.c:274: if((action == IGNORED) && (eventToProcess->eventType > SUBSTATE_EXIT))
   09D7 EA                 1912 	mov	a,r2
   09D8 D0 04              1913 	pop	ar4
   09DA D0 03              1914 	pop	ar3
   09DC D0 02              1915 	pop	ar2
   09DE 60 03              1916 	jz	00214$
   09E0 02s0Ar8B           1917 	ljmp	00183$
   09E3                    1918 00214$:
   09E3 8A 82              1919 	mov	dpl,r2
   09E5 8B 83              1920 	mov	dph,r3
   09E7 8C F0              1921 	mov	b,r4
   09E9 12s00r00           1922 	lcall	__gptrget
   09EC FD                 1923 	mov  r5,a
   09ED 24 FA              1924 	add	a,#0xff - 0x05
   09EF 40 03              1925 	jc	00215$
   09F1 02s0Ar8B           1926 	ljmp	00183$
   09F4                    1927 00215$:
                           1928 ;	D:/EiqEnergy/Projects/Software/_SoftwareLibraries/StateMachines/stateMachine_G4.c:276: stateBeingProcessed = (state_t*)(stateBeingProcessed->parent) ;
   09F4 90s00rB5           1929 	mov	dptr,#_iterateStateMachine_stateBeingProcessed_2_3
   09F7 E0                 1930 	movx	a,@dptr
   09F8 FD                 1931 	mov	r5,a
   09F9 A3                 1932 	inc	dptr
   09FA E0                 1933 	movx	a,@dptr
   09FB FE                 1934 	mov	r6,a
   09FC A3                 1935 	inc	dptr
   09FD E0                 1936 	movx	a,@dptr
   09FE FF                 1937 	mov	r7,a
   09FF 8D 82              1938 	mov	dpl,r5
   0A01 8E 83              1939 	mov	dph,r6
   0A03 8F F0              1940 	mov	b,r7
   0A05 12s00r00           1941 	lcall	__gptrget
   0A08 FD                 1942 	mov	r5,a
   0A09 A3                 1943 	inc	dptr
   0A0A 12s00r00           1944 	lcall	__gptrget
   0A0D FE                 1945 	mov	r6,a
   0A0E A3                 1946 	inc	dptr
   0A0F 12s00r00           1947 	lcall	__gptrget
   0A12 FF                 1948 	mov	r7,a
   0A13 90s00rB5           1949 	mov	dptr,#_iterateStateMachine_stateBeingProcessed_2_3
   0A16 ED                 1950 	mov	a,r5
   0A17 F0                 1951 	movx	@dptr,a
   0A18 A3                 1952 	inc	dptr
   0A19 EE                 1953 	mov	a,r6
   0A1A F0                 1954 	movx	@dptr,a
   0A1B A3                 1955 	inc	dptr
   0A1C EF                 1956 	mov	a,r7
   0A1D F0                 1957 	movx	@dptr,a
                           1958 ;	D:/EiqEnergy/Projects/Software/_SoftwareLibraries/StateMachines/stateMachine_G4.c:279: printf("\t\t\t\t\t\t\tmoving to parent: %s\n", stateBeingProcessed ? stateBeingProcessed->stateName : "<root>") ;
   0A1E 90s00rB5           1959 	mov	dptr,#_iterateStateMachine_stateBeingProcessed_2_3
   0A21 E0                 1960 	movx	a,@dptr
   0A22 FD                 1961 	mov	r5,a
   0A23 A3                 1962 	inc	dptr
   0A24 E0                 1963 	movx	a,@dptr
   0A25 FE                 1964 	mov	r6,a
   0A26 A3                 1965 	inc	dptr
   0A27 E0                 1966 	movx	a,@dptr
   0A28 FF                 1967 	mov	r7,a
   0A29 ED                 1968 	mov	a,r5
   0A2A 4E                 1969 	orl	a,r6
   0A2B 4F                 1970 	orl	a,r7
   0A2C 60 1D              1971 	jz	00171$
   0A2E 74 06              1972 	mov	a,#0x06
   0A30 2D                 1973 	add	a,r5
   0A31 FD                 1974 	mov	r5,a
   0A32 E4                 1975 	clr	a
   0A33 3E                 1976 	addc	a,r6
   0A34 FE                 1977 	mov	r6,a
   0A35 8D 82              1978 	mov	dpl,r5
   0A37 8E 83              1979 	mov	dph,r6
   0A39 8F F0              1980 	mov	b,r7
   0A3B 12s00r00           1981 	lcall	__gptrget
   0A3E FD                 1982 	mov	r5,a
   0A3F A3                 1983 	inc	dptr
   0A40 12s00r00           1984 	lcall	__gptrget
   0A43 FE                 1985 	mov	r6,a
   0A44 A3                 1986 	inc	dptr
   0A45 12s00r00           1987 	lcall	__gptrget
   0A48 FF                 1988 	mov	r7,a
   0A49 80 06              1989 	sjmp	00172$
   0A4B                    1990 00171$:
   0A4B 7Dr9C              1991 	mov	r5,#__str_9
   0A4D 7Es00              1992 	mov	r6,#(__str_9 >> 8)
   0A4F 7F 80              1993 	mov	r7,#0x80
   0A51                    1994 00172$:
   0A51 C0 02              1995 	push	ar2
   0A53 C0 03              1996 	push	ar3
   0A55 C0 04              1997 	push	ar4
   0A57 C0 05              1998 	push	ar5
   0A59 C0 06              1999 	push	ar6
   0A5B C0 07              2000 	push	ar7
   0A5D 74r7F              2001 	mov	a,#__str_8
   0A5F C0 E0              2002 	push	acc
   0A61 74s00              2003 	mov	a,#(__str_8 >> 8)
   0A63 C0 E0              2004 	push	acc
   0A65 74 80              2005 	mov	a,#0x80
   0A67 C0 E0              2006 	push	acc
   0A69 12s00r00           2007 	lcall	_printf
   0A6C E5 81              2008 	mov	a,sp
   0A6E 24 FA              2009 	add	a,#0xfa
   0A70 F5 81              2010 	mov	sp,a
   0A72 D0 04              2011 	pop	ar4
   0A74 D0 03              2012 	pop	ar3
   0A76 D0 02              2013 	pop	ar2
                           2014 ;	D:/EiqEnergy/Projects/Software/_SoftwareLibraries/StateMachines/stateMachine_G4.c:289: } while(stateBeingProcessed) ;
   0A78 90s00rB5           2015 	mov	dptr,#_iterateStateMachine_stateBeingProcessed_2_3
   0A7B E0                 2016 	movx	a,@dptr
   0A7C FD                 2017 	mov	r5,a
   0A7D A3                 2018 	inc	dptr
   0A7E E0                 2019 	movx	a,@dptr
   0A7F FE                 2020 	mov	r6,a
   0A80 A3                 2021 	inc	dptr
   0A81 E0                 2022 	movx	a,@dptr
   0A82 FF                 2023 	mov	r7,a
   0A83 ED                 2024 	mov	a,r5
   0A84 4E                 2025 	orl	a,r6
   0A85 4F                 2026 	orl	a,r7
   0A86 60 03              2027 	jz	00217$
   0A88 02s09r7C           2028 	ljmp	00110$
   0A8B                    2029 00217$:
                           2030 ;	D:/EiqEnergy/Projects/Software/_SoftwareLibraries/StateMachines/stateMachine_G4.c:291: while(action == TRANSITION_TO_HISTORY)
   0A8B                    2031 00183$:
   0A8B 90s00rAF           2032 	mov	dptr,#_iterateStateMachine_sm_1_1
   0A8E E0                 2033 	movx	a,@dptr
   0A8F FA                 2034 	mov	r2,a
   0A90 A3                 2035 	inc	dptr
   0A91 E0                 2036 	movx	a,@dptr
   0A92 FB                 2037 	mov	r3,a
   0A93 A3                 2038 	inc	dptr
   0A94 E0                 2039 	movx	a,@dptr
   0A95 FC                 2040 	mov	r4,a
   0A96 74 08              2041 	mov	a,#0x08
   0A98 2A                 2042 	add	a,r2
   0A99 FD                 2043 	mov	r5,a
   0A9A E4                 2044 	clr	a
   0A9B 3B                 2045 	addc	a,r3
   0A9C FE                 2046 	mov	r6,a
   0A9D 8C 07              2047 	mov	ar7,r4
   0A9F 8A*0C              2048 	mov	_iterateStateMachine_sloc0_1_0,r2
   0AA1 8B*0D              2049 	mov	(_iterateStateMachine_sloc0_1_0 + 1),r3
   0AA3 8C*0E              2050 	mov	(_iterateStateMachine_sloc0_1_0 + 2),r4
   0AA5 74 22              2051 	mov	a,#0x22
   0AA7 2A                 2052 	add	a,r2
   0AA8 FA                 2053 	mov	r2,a
   0AA9 E4                 2054 	clr	a
   0AAA 3B                 2055 	addc	a,r3
   0AAB FB                 2056 	mov	r3,a
   0AAC                    2057 00120$:
   0AAC 90s00rB8           2058 	mov	dptr,#_iterateStateMachine_action_2_3
   0AAF E0                 2059 	movx	a,@dptr
   0AB0 F8                 2060 	mov	r0,a
   0AB1 B8 03 02           2061 	cjne	r0,#0x03,00218$
   0AB4 80 03              2062 	sjmp	00219$
   0AB6                    2063 00218$:
   0AB6 02s0Cr3B           2064 	ljmp	00122$
   0AB9                    2065 00219$:
                           2066 ;	D:/EiqEnergy/Projects/Software/_SoftwareLibraries/StateMachines/stateMachine_G4.c:293: if(		(((state_t*)(sm->nextState))->type != STATE_WITH_SHALLOW_HISTORY)
   0AB9 C0 02              2067 	push	ar2
   0ABB C0 03              2068 	push	ar3
   0ABD C0 04              2069 	push	ar4
   0ABF 8D 82              2070 	mov	dpl,r5
   0AC1 8E 83              2071 	mov	dph,r6
   0AC3 8F F0              2072 	mov	b,r7
   0AC5 12s00r00           2073 	lcall	__gptrget
   0AC8 F8                 2074 	mov	r0,a
   0AC9 A3                 2075 	inc	dptr
   0ACA 12s00r00           2076 	lcall	__gptrget
   0ACD F9                 2077 	mov	r1,a
   0ACE A3                 2078 	inc	dptr
   0ACF 12s00r00           2079 	lcall	__gptrget
   0AD2 FA                 2080 	mov	r2,a
   0AD3 74 03              2081 	mov	a,#0x03
   0AD5 28                 2082 	add	a,r0
   0AD6 F8                 2083 	mov	r0,a
   0AD7 E4                 2084 	clr	a
   0AD8 39                 2085 	addc	a,r1
   0AD9 F9                 2086 	mov	r1,a
   0ADA 88 82              2087 	mov	dpl,r0
   0ADC 89 83              2088 	mov	dph,r1
   0ADE 8A F0              2089 	mov	b,r2
   0AE0 12s00r00           2090 	lcall	__gptrget
   0AE3 F5*0F              2091 	mov	_iterateStateMachine_sloc1_1_0,a
   0AE5 74 02              2092 	mov	a,#0x02
   0AE7 B5*0F 08           2093 	cjne	a,_iterateStateMachine_sloc1_1_0,00220$
   0AEA D0 04              2094 	pop	ar4
   0AEC D0 03              2095 	pop	ar3
   0AEE D0 02              2096 	pop	ar2
   0AF0 80 10              2097 	sjmp	00117$
   0AF2                    2098 00220$:
   0AF2 D0 04              2099 	pop	ar4
   0AF4 D0 03              2100 	pop	ar3
   0AF6 D0 02              2101 	pop	ar2
                           2102 ;	D:/EiqEnergy/Projects/Software/_SoftwareLibraries/StateMachines/stateMachine_G4.c:294: &&	(((state_t*)(sm->nextState))->type != STATE_WITH_DEEP_HISTORY))
   0AF8 74 03              2103 	mov	a,#0x03
   0AFA B5*0F 02           2104 	cjne	a,_iterateStateMachine_sloc1_1_0,00221$
   0AFD 80 03              2105 	sjmp	00222$
   0AFF                    2106 00221$:
   0AFF 02s0Cr3B           2107 	ljmp	00122$
   0B02                    2108 00222$:
                           2109 ;	D:/EiqEnergy/Projects/Software/_SoftwareLibraries/StateMachines/stateMachine_G4.c:300: break ;
   0B02                    2110 00117$:
                           2111 ;	D:/EiqEnergy/Projects/Software/_SoftwareLibraries/StateMachines/stateMachine_G4.c:304: state_t* nextState = sm->historicalMarkers[((state_with_history_t*)(sm->nextState))->historyMarkerIndex] ;
   0B02 C0 05              2112 	push	ar5
   0B04 C0 06              2113 	push	ar6
   0B06 C0 07              2114 	push	ar7
   0B08 8A 82              2115 	mov	dpl,r2
   0B0A 8B 83              2116 	mov	dph,r3
   0B0C 8C F0              2117 	mov	b,r4
   0B0E 12s00r00           2118 	lcall	__gptrget
   0B11 F5*13              2119 	mov	_iterateStateMachine_sloc3_1_0,a
   0B13 A3                 2120 	inc	dptr
   0B14 12s00r00           2121 	lcall	__gptrget
   0B17 F5*14              2122 	mov	(_iterateStateMachine_sloc3_1_0 + 1),a
   0B19 A3                 2123 	inc	dptr
   0B1A 12s00r00           2124 	lcall	__gptrget
   0B1D F5*15              2125 	mov	(_iterateStateMachine_sloc3_1_0 + 2),a
   0B1F 74 08              2126 	mov	a,#0x08
   0B21 25*0C              2127 	add	a,_iterateStateMachine_sloc0_1_0
   0B23 F5*10              2128 	mov	_iterateStateMachine_sloc2_1_0,a
   0B25 E4                 2129 	clr	a
   0B26 35*0D              2130 	addc	a,(_iterateStateMachine_sloc0_1_0 + 1)
   0B28 F5*11              2131 	mov	(_iterateStateMachine_sloc2_1_0 + 1),a
   0B2A 85*0E*12           2132 	mov	(_iterateStateMachine_sloc2_1_0 + 2),(_iterateStateMachine_sloc0_1_0 + 2)
   0B2D 85*10 82           2133 	mov	dpl,_iterateStateMachine_sloc2_1_0
   0B30 85*11 83           2134 	mov	dph,(_iterateStateMachine_sloc2_1_0 + 1)
   0B33 85*12 F0           2135 	mov	b,(_iterateStateMachine_sloc2_1_0 + 2)
   0B36 12s00r00           2136 	lcall	__gptrget
   0B39 FE                 2137 	mov	r6,a
   0B3A A3                 2138 	inc	dptr
   0B3B 12s00r00           2139 	lcall	__gptrget
   0B3E FF                 2140 	mov	r7,a
   0B3F A3                 2141 	inc	dptr
   0B40 12s00r00           2142 	lcall	__gptrget
   0B43 FD                 2143 	mov	r5,a
   0B44 74 09              2144 	mov	a,#0x09
   0B46 2E                 2145 	add	a,r6
   0B47 FE                 2146 	mov	r6,a
   0B48 E4                 2147 	clr	a
   0B49 3F                 2148 	addc	a,r7
   0B4A FF                 2149 	mov	r7,a
   0B4B 8E 82              2150 	mov	dpl,r6
   0B4D 8F 83              2151 	mov	dph,r7
   0B4F 8D F0              2152 	mov	b,r5
   0B51 12s00r00           2153 	lcall	__gptrget
   0B54 FE                 2154 	mov	r6,a
   0B55 A3                 2155 	inc	dptr
   0B56 12s00r00           2156 	lcall	__gptrget
   0B59 FF                 2157 	mov	r7,a
   0B5A 90s00r00           2158 	mov	dptr,#__mulint_PARM_2
   0B5D EE                 2159 	mov	a,r6
   0B5E F0                 2160 	movx	@dptr,a
   0B5F A3                 2161 	inc	dptr
   0B60 EF                 2162 	mov	a,r7
   0B61 F0                 2163 	movx	@dptr,a
   0B62 90 00 03           2164 	mov	dptr,#0x0003
   0B65 C0 02              2165 	push	ar2
   0B67 C0 03              2166 	push	ar3
   0B69 C0 04              2167 	push	ar4
   0B6B C0 07              2168 	push	ar7
   0B6D 12s00r00           2169 	lcall	__mulint
   0B70 AD 82              2170 	mov	r5,dpl
   0B72 AE 83              2171 	mov	r6,dph
   0B74 D0 07              2172 	pop	ar7
   0B76 D0 04              2173 	pop	ar4
   0B78 D0 03              2174 	pop	ar3
   0B7A D0 02              2175 	pop	ar2
   0B7C ED                 2176 	mov	a,r5
   0B7D 25*13              2177 	add	a,_iterateStateMachine_sloc3_1_0
   0B7F FD                 2178 	mov	r5,a
   0B80 EE                 2179 	mov	a,r6
   0B81 35*14              2180 	addc	a,(_iterateStateMachine_sloc3_1_0 + 1)
   0B83 FE                 2181 	mov	r6,a
   0B84 AF*15              2182 	mov	r7,(_iterateStateMachine_sloc3_1_0 + 2)
   0B86 8D 82              2183 	mov	dpl,r5
   0B88 8E 83              2184 	mov	dph,r6
   0B8A 8F F0              2185 	mov	b,r7
   0B8C 12s00r00           2186 	lcall	__gptrget
   0B8F F5*13              2187 	mov	_iterateStateMachine_sloc3_1_0,a
   0B91 A3                 2188 	inc	dptr
   0B92 12s00r00           2189 	lcall	__gptrget
   0B95 F5*14              2190 	mov	(_iterateStateMachine_sloc3_1_0 + 1),a
   0B97 A3                 2191 	inc	dptr
   0B98 12s00r00           2192 	lcall	__gptrget
   0B9B F5*15              2193 	mov	(_iterateStateMachine_sloc3_1_0 + 2),a
                           2194 ;	D:/EiqEnergy/Projects/Software/_SoftwareLibraries/StateMachines/stateMachine_G4.c:309: if(nextState != (void*)0)
   0B9D E4                 2195 	clr	a
   0B9E B5*13 10           2196 	cjne	a,_iterateStateMachine_sloc3_1_0,00223$
   0BA1 E4                 2197 	clr	a
   0BA2 B5*14 0C           2198 	cjne	a,(_iterateStateMachine_sloc3_1_0 + 1),00223$
   0BA5 E4                 2199 	clr	a
   0BA6 B5*15 08           2200 	cjne	a,(_iterateStateMachine_sloc3_1_0 + 2),00223$
   0BA9 D0 07              2201 	pop	ar7
   0BAB D0 06              2202 	pop	ar6
   0BAD D0 05              2203 	pop	ar5
   0BAF 80 22              2204 	sjmp	00114$
   0BB1                    2205 00223$:
   0BB1 D0 07              2206 	pop	ar7
   0BB3 D0 06              2207 	pop	ar6
   0BB5 D0 05              2208 	pop	ar5
                           2209 ;	D:/EiqEnergy/Projects/Software/_SoftwareLibraries/StateMachines/stateMachine_G4.c:316: sm->nextState = nextState ;
   0BB7 85*10 82           2210 	mov	dpl,_iterateStateMachine_sloc2_1_0
   0BBA 85*11 83           2211 	mov	dph,(_iterateStateMachine_sloc2_1_0 + 1)
   0BBD 85*12 F0           2212 	mov	b,(_iterateStateMachine_sloc2_1_0 + 2)
   0BC0 E5*13              2213 	mov	a,_iterateStateMachine_sloc3_1_0
   0BC2 12s00r00           2214 	lcall	__gptrput
   0BC5 A3                 2215 	inc	dptr
   0BC6 E5*14              2216 	mov	a,(_iterateStateMachine_sloc3_1_0 + 1)
   0BC8 12s00r00           2217 	lcall	__gptrput
   0BCB A3                 2218 	inc	dptr
   0BCC E5*15              2219 	mov	a,(_iterateStateMachine_sloc3_1_0 + 2)
   0BCE 12s00r00           2220 	lcall	__gptrput
   0BD1 80 5F              2221 	sjmp	00118$
   0BD3                    2222 00114$:
                           2223 ;	D:/EiqEnergy/Projects/Software/_SoftwareLibraries/StateMachines/stateMachine_G4.c:331: action = callStateHandler(sm, (state_t*)(sm->nextState), &jumpToHistoryEvent) ;
   0BD3 C0 02              2224 	push	ar2
   0BD5 C0 03              2225 	push	ar3
   0BD7 C0 04              2226 	push	ar4
   0BD9 85*10 82           2227 	mov	dpl,_iterateStateMachine_sloc2_1_0
   0BDC 85*11 83           2228 	mov	dph,(_iterateStateMachine_sloc2_1_0 + 1)
   0BDF 85*12 F0           2229 	mov	b,(_iterateStateMachine_sloc2_1_0 + 2)
   0BE2 12s00r00           2230 	lcall	__gptrget
   0BE5 F8                 2231 	mov	r0,a
   0BE6 A3                 2232 	inc	dptr
   0BE7 12s00r00           2233 	lcall	__gptrget
   0BEA F9                 2234 	mov	r1,a
   0BEB A3                 2235 	inc	dptr
   0BEC 12s00r00           2236 	lcall	__gptrget
   0BEF FA                 2237 	mov	r2,a
   0BF0 90s00rA5           2238 	mov	dptr,#_callStateHandler_PARM_2
   0BF3 E8                 2239 	mov	a,r0
   0BF4 F0                 2240 	movx	@dptr,a
   0BF5 A3                 2241 	inc	dptr
   0BF6 E9                 2242 	mov	a,r1
   0BF7 F0                 2243 	movx	@dptr,a
   0BF8 A3                 2244 	inc	dptr
   0BF9 EA                 2245 	mov	a,r2
   0BFA F0                 2246 	movx	@dptr,a
   0BFB 90s00rA8           2247 	mov	dptr,#_callStateHandler_PARM_3
   0BFE 74r1F              2248 	mov	a,#_jumpToHistoryEvent
   0C00 F0                 2249 	movx	@dptr,a
   0C01 A3                 2250 	inc	dptr
   0C02 74s00              2251 	mov	a,#(_jumpToHistoryEvent >> 8)
   0C04 F0                 2252 	movx	@dptr,a
   0C05 A3                 2253 	inc	dptr
   0C06 E4                 2254 	clr	a
   0C07 F0                 2255 	movx	@dptr,a
   0C08 85*0C 82           2256 	mov	dpl,_iterateStateMachine_sloc0_1_0
   0C0B 85*0D 83           2257 	mov	dph,(_iterateStateMachine_sloc0_1_0 + 1)
   0C0E 85*0E F0           2258 	mov	b,(_iterateStateMachine_sloc0_1_0 + 2)
   0C11 C0 02              2259 	push	ar2
   0C13 C0 03              2260 	push	ar3
   0C15 C0 04              2261 	push	ar4
   0C17 C0 05              2262 	push	ar5
   0C19 C0 06              2263 	push	ar6
   0C1B C0 07              2264 	push	ar7
   0C1D 12s03r58           2265 	lcall	_callStateHandler
   0C20 D0 07              2266 	pop	ar7
   0C22 D0 06              2267 	pop	ar6
   0C24 D0 05              2268 	pop	ar5
   0C26 D0 04              2269 	pop	ar4
   0C28 D0 03              2270 	pop	ar3
   0C2A D0 02              2271 	pop	ar2
                           2272 ;	D:/EiqEnergy/Projects/Software/_SoftwareLibraries/StateMachines/stateMachine_G4.c:567: printf("\t\tEvent queue empty.\n") ;
   0C2C D0 04              2273 	pop	ar4
   0C2E D0 03              2274 	pop	ar3
   0C30 D0 02              2275 	pop	ar2
                           2276 ;	D:/EiqEnergy/Projects/Software/_SoftwareLibraries/StateMachines/stateMachine_G4.c:331: action = callStateHandler(sm, (state_t*)(sm->nextState), &jumpToHistoryEvent) ;
   0C32                    2277 00118$:
                           2278 ;	D:/EiqEnergy/Projects/Software/_SoftwareLibraries/StateMachines/stateMachine_G4.c:339: action = TRANSITION ;
   0C32 90s00rB8           2279 	mov	dptr,#_iterateStateMachine_action_2_3
   0C35 74 02              2280 	mov	a,#0x02
   0C37 F0                 2281 	movx	@dptr,a
   0C38 02s0ArAC           2282 	ljmp	00120$
   0C3B                    2283 00122$:
                           2284 ;	D:/EiqEnergy/Projects/Software/_SoftwareLibraries/StateMachines/stateMachine_G4.c:342: if(action == TRANSITION)
   0C3B 90s00rB8           2285 	mov	dptr,#_iterateStateMachine_action_2_3
   0C3E E0                 2286 	movx	a,@dptr
   0C3F FA                 2287 	mov	r2,a
   0C40 BA 02 02           2288 	cjne	r2,#0x02,00224$
   0C43 80 03              2289 	sjmp	00225$
   0C45                    2290 00224$:
   0C45 02s15rB7           2291 	ljmp	00167$
   0C48                    2292 00225$:
                           2293 ;	D:/EiqEnergy/Projects/Software/_SoftwareLibraries/StateMachines/stateMachine_G4.c:344: state_t*	source	= sm->currentState ;
   0C48 90s00rAF           2294 	mov	dptr,#_iterateStateMachine_sm_1_1
   0C4B E0                 2295 	movx	a,@dptr
   0C4C FA                 2296 	mov	r2,a
   0C4D A3                 2297 	inc	dptr
   0C4E E0                 2298 	movx	a,@dptr
   0C4F FB                 2299 	mov	r3,a
   0C50 A3                 2300 	inc	dptr
   0C51 E0                 2301 	movx	a,@dptr
   0C52 FC                 2302 	mov	r4,a
   0C53 74 05              2303 	mov	a,#0x05
   0C55 2A                 2304 	add	a,r2
   0C56 F5*10              2305 	mov	_iterateStateMachine_sloc2_1_0,a
   0C58 E4                 2306 	clr	a
   0C59 3B                 2307 	addc	a,r3
   0C5A F5*11              2308 	mov	(_iterateStateMachine_sloc2_1_0 + 1),a
   0C5C 8C*12              2309 	mov	(_iterateStateMachine_sloc2_1_0 + 2),r4
   0C5E 85*10 82           2310 	mov	dpl,_iterateStateMachine_sloc2_1_0
   0C61 85*11 83           2311 	mov	dph,(_iterateStateMachine_sloc2_1_0 + 1)
   0C64 85*12 F0           2312 	mov	b,(_iterateStateMachine_sloc2_1_0 + 2)
   0C67 12s00r00           2313 	lcall	__gptrget
   0C6A F5*13              2314 	mov	_iterateStateMachine_sloc3_1_0,a
   0C6C A3                 2315 	inc	dptr
   0C6D 12s00r00           2316 	lcall	__gptrget
   0C70 F5*14              2317 	mov	(_iterateStateMachine_sloc3_1_0 + 1),a
   0C72 A3                 2318 	inc	dptr
   0C73 12s00r00           2319 	lcall	__gptrget
   0C76 F5*15              2320 	mov	(_iterateStateMachine_sloc3_1_0 + 2),a
                           2321 ;	D:/EiqEnergy/Projects/Software/_SoftwareLibraries/StateMachines/stateMachine_G4.c:345: state_t*	target	= sm->nextState ;
   0C78 74 08              2322 	mov	a,#0x08
   0C7A 2A                 2323 	add	a,r2
   0C7B F8                 2324 	mov	r0,a
   0C7C E4                 2325 	clr	a
   0C7D 3B                 2326 	addc	a,r3
   0C7E F9                 2327 	mov	r1,a
   0C7F 8C 05              2328 	mov	ar5,r4
   0C81 88 82              2329 	mov	dpl,r0
   0C83 89 83              2330 	mov	dph,r1
   0C85 8D F0              2331 	mov	b,r5
   0C87 12s00r00           2332 	lcall	__gptrget
   0C8A F5*0C              2333 	mov	_iterateStateMachine_sloc0_1_0,a
   0C8C A3                 2334 	inc	dptr
   0C8D 12s00r00           2335 	lcall	__gptrget
   0C90 F5*0D              2336 	mov	(_iterateStateMachine_sloc0_1_0 + 1),a
   0C92 A3                 2337 	inc	dptr
   0C93 12s00r00           2338 	lcall	__gptrget
   0C96 F5*0E              2339 	mov	(_iterateStateMachine_sloc0_1_0 + 2),a
                           2340 ;	D:/EiqEnergy/Projects/Software/_SoftwareLibraries/StateMachines/stateMachine_G4.c:349: if(source == target)
   0C98 E5*0C              2341 	mov	a,_iterateStateMachine_sloc0_1_0
   0C9A B5*13 0C           2342 	cjne	a,_iterateStateMachine_sloc3_1_0,00226$
   0C9D E5*0D              2343 	mov	a,(_iterateStateMachine_sloc0_1_0 + 1)
   0C9F B5*14 07           2344 	cjne	a,(_iterateStateMachine_sloc3_1_0 + 1),00226$
   0CA2 E5*0E              2345 	mov	a,(_iterateStateMachine_sloc0_1_0 + 2)
   0CA4 B5*15 02           2346 	cjne	a,(_iterateStateMachine_sloc3_1_0 + 2),00226$
   0CA7 80 03              2347 	sjmp	00227$
   0CA9                    2348 00226$:
   0CA9 02s0Dr4B           2349 	ljmp	00162$
   0CAC                    2350 00227$:
                           2351 ;	D:/EiqEnergy/Projects/Software/_SoftwareLibraries/StateMachines/stateMachine_G4.c:352: printf("\t\t\t\tSelf transition.\n") ;
   0CAC C0 02              2352 	push	ar2
   0CAE C0 03              2353 	push	ar3
   0CB0 C0 04              2354 	push	ar4
   0CB2 74rA3              2355 	mov	a,#__str_10
   0CB4 C0 E0              2356 	push	acc
   0CB6 74s00              2357 	mov	a,#(__str_10 >> 8)
   0CB8 C0 E0              2358 	push	acc
   0CBA 74 80              2359 	mov	a,#0x80
   0CBC C0 E0              2360 	push	acc
   0CBE 12s00r00           2361 	lcall	_printf
   0CC1 15 81              2362 	dec	sp
   0CC3 15 81              2363 	dec	sp
   0CC5 15 81              2364 	dec	sp
   0CC7 D0 04              2365 	pop	ar4
   0CC9 D0 03              2366 	pop	ar3
   0CCB D0 02              2367 	pop	ar2
                           2368 ;	D:/EiqEnergy/Projects/Software/_SoftwareLibraries/StateMachines/stateMachine_G4.c:357: callStateHandler(sm, source, &exitEvent) ;
   0CCD 90s00rA5           2369 	mov	dptr,#_callStateHandler_PARM_2
   0CD0 E5*13              2370 	mov	a,_iterateStateMachine_sloc3_1_0
   0CD2 F0                 2371 	movx	@dptr,a
   0CD3 A3                 2372 	inc	dptr
   0CD4 E5*14              2373 	mov	a,(_iterateStateMachine_sloc3_1_0 + 1)
   0CD6 F0                 2374 	movx	@dptr,a
   0CD7 A3                 2375 	inc	dptr
   0CD8 E5*15              2376 	mov	a,(_iterateStateMachine_sloc3_1_0 + 2)
   0CDA F0                 2377 	movx	@dptr,a
   0CDB 90s00rA8           2378 	mov	dptr,#_callStateHandler_PARM_3
   0CDE 74r21              2379 	mov	a,#_exitEvent
   0CE0 F0                 2380 	movx	@dptr,a
   0CE1 A3                 2381 	inc	dptr
   0CE2 74s00              2382 	mov	a,#(_exitEvent >> 8)
   0CE4 F0                 2383 	movx	@dptr,a
   0CE5 A3                 2384 	inc	dptr
   0CE6 E4                 2385 	clr	a
   0CE7 F0                 2386 	movx	@dptr,a
   0CE8 8A 82              2387 	mov	dpl,r2
   0CEA 8B 83              2388 	mov	dph,r3
   0CEC 8C F0              2389 	mov	b,r4
   0CEE 12s03r58           2390 	lcall	_callStateHandler
                           2391 ;	D:/EiqEnergy/Projects/Software/_SoftwareLibraries/StateMachines/stateMachine_G4.c:358: sm->currentState = target ;
   0CF1 90s00rAF           2392 	mov	dptr,#_iterateStateMachine_sm_1_1
   0CF4 E0                 2393 	movx	a,@dptr
   0CF5 F5*16              2394 	mov	_iterateStateMachine_sloc4_1_0,a
   0CF7 A3                 2395 	inc	dptr
   0CF8 E0                 2396 	movx	a,@dptr
   0CF9 F5*17              2397 	mov	(_iterateStateMachine_sloc4_1_0 + 1),a
   0CFB A3                 2398 	inc	dptr
   0CFC E0                 2399 	movx	a,@dptr
   0CFD F5*18              2400 	mov	(_iterateStateMachine_sloc4_1_0 + 2),a
   0CFF 74 05              2401 	mov	a,#0x05
   0D01 25*16              2402 	add	a,_iterateStateMachine_sloc4_1_0
   0D03 FE                 2403 	mov	r6,a
   0D04 E4                 2404 	clr	a
   0D05 35*17              2405 	addc	a,(_iterateStateMachine_sloc4_1_0 + 1)
   0D07 FF                 2406 	mov	r7,a
   0D08 AD*18              2407 	mov	r5,(_iterateStateMachine_sloc4_1_0 + 2)
   0D0A 8E 82              2408 	mov	dpl,r6
   0D0C 8F 83              2409 	mov	dph,r7
   0D0E 8D F0              2410 	mov	b,r5
   0D10 E5*0C              2411 	mov	a,_iterateStateMachine_sloc0_1_0
   0D12 12s00r00           2412 	lcall	__gptrput
   0D15 A3                 2413 	inc	dptr
   0D16 E5*0D              2414 	mov	a,(_iterateStateMachine_sloc0_1_0 + 1)
   0D18 12s00r00           2415 	lcall	__gptrput
   0D1B A3                 2416 	inc	dptr
   0D1C E5*0E              2417 	mov	a,(_iterateStateMachine_sloc0_1_0 + 2)
   0D1E 12s00r00           2418 	lcall	__gptrput
                           2419 ;	D:/EiqEnergy/Projects/Software/_SoftwareLibraries/StateMachines/stateMachine_G4.c:359: callStateHandler(sm, target, &enterEvent) ;
   0D21 90s00rA5           2420 	mov	dptr,#_callStateHandler_PARM_2
   0D24 E5*0C              2421 	mov	a,_iterateStateMachine_sloc0_1_0
   0D26 F0                 2422 	movx	@dptr,a
   0D27 A3                 2423 	inc	dptr
   0D28 E5*0D              2424 	mov	a,(_iterateStateMachine_sloc0_1_0 + 1)
   0D2A F0                 2425 	movx	@dptr,a
   0D2B A3                 2426 	inc	dptr
   0D2C E5*0E              2427 	mov	a,(_iterateStateMachine_sloc0_1_0 + 2)
   0D2E F0                 2428 	movx	@dptr,a
   0D2F 90s00rA8           2429 	mov	dptr,#_callStateHandler_PARM_3
   0D32 74r20              2430 	mov	a,#_enterEvent
   0D34 F0                 2431 	movx	@dptr,a
   0D35 A3                 2432 	inc	dptr
   0D36 74s00              2433 	mov	a,#(_enterEvent >> 8)
   0D38 F0                 2434 	movx	@dptr,a
   0D39 A3                 2435 	inc	dptr
   0D3A E4                 2436 	clr	a
   0D3B F0                 2437 	movx	@dptr,a
   0D3C 85*16 82           2438 	mov	dpl,_iterateStateMachine_sloc4_1_0
   0D3F 85*17 83           2439 	mov	dph,(_iterateStateMachine_sloc4_1_0 + 1)
   0D42 85*18 F0           2440 	mov	b,(_iterateStateMachine_sloc4_1_0 + 2)
   0D45 12s03r58           2441 	lcall	_callStateHandler
   0D48 02s15r9A           2442 	ljmp	00163$
   0D4B                    2443 00162$:
                           2444 ;	D:/EiqEnergy/Projects/Software/_SoftwareLibraries/StateMachines/stateMachine_G4.c:361: else if(source == (state_t*)(target->parent))
   0D4B 85*0C 82           2445 	mov	dpl,_iterateStateMachine_sloc0_1_0
   0D4E 85*0D 83           2446 	mov	dph,(_iterateStateMachine_sloc0_1_0 + 1)
   0D51 85*0E F0           2447 	mov	b,(_iterateStateMachine_sloc0_1_0 + 2)
   0D54 12s00r00           2448 	lcall	__gptrget
   0D57 FD                 2449 	mov	r5,a
   0D58 A3                 2450 	inc	dptr
   0D59 12s00r00           2451 	lcall	__gptrget
   0D5C FE                 2452 	mov	r6,a
   0D5D A3                 2453 	inc	dptr
   0D5E 12s00r00           2454 	lcall	__gptrget
   0D61 FF                 2455 	mov	r7,a
   0D62 ED                 2456 	mov	a,r5
   0D63 B5*13 6A           2457 	cjne	a,_iterateStateMachine_sloc3_1_0,00159$
   0D66 EE                 2458 	mov	a,r6
   0D67 B5*14 66           2459 	cjne	a,(_iterateStateMachine_sloc3_1_0 + 1),00159$
   0D6A EF                 2460 	mov	a,r7
   0D6B B5*15 62           2461 	cjne	a,(_iterateStateMachine_sloc3_1_0 + 2),00159$
                           2462 ;	D:/EiqEnergy/Projects/Software/_SoftwareLibraries/StateMachines/stateMachine_G4.c:364: printf("\t\t\t\tTransition to direct child.\n") ;
   0D6E C0 02              2463 	push	ar2
   0D70 C0 03              2464 	push	ar3
   0D72 C0 04              2465 	push	ar4
   0D74 74rB9              2466 	mov	a,#__str_11
   0D76 C0 E0              2467 	push	acc
   0D78 74s00              2468 	mov	a,#(__str_11 >> 8)
   0D7A C0 E0              2469 	push	acc
   0D7C 74 80              2470 	mov	a,#0x80
   0D7E C0 E0              2471 	push	acc
   0D80 12s00r00           2472 	lcall	_printf
   0D83 15 81              2473 	dec	sp
   0D85 15 81              2474 	dec	sp
   0D87 15 81              2475 	dec	sp
   0D89 D0 04              2476 	pop	ar4
   0D8B D0 03              2477 	pop	ar3
   0D8D D0 02              2478 	pop	ar2
                           2479 ;	D:/EiqEnergy/Projects/Software/_SoftwareLibraries/StateMachines/stateMachine_G4.c:370: sm->currentState = target ;
   0D8F 85*10 82           2480 	mov	dpl,_iterateStateMachine_sloc2_1_0
   0D92 85*11 83           2481 	mov	dph,(_iterateStateMachine_sloc2_1_0 + 1)
   0D95 85*12 F0           2482 	mov	b,(_iterateStateMachine_sloc2_1_0 + 2)
   0D98 E5*0C              2483 	mov	a,_iterateStateMachine_sloc0_1_0
   0D9A 12s00r00           2484 	lcall	__gptrput
   0D9D A3                 2485 	inc	dptr
   0D9E E5*0D              2486 	mov	a,(_iterateStateMachine_sloc0_1_0 + 1)
   0DA0 12s00r00           2487 	lcall	__gptrput
   0DA3 A3                 2488 	inc	dptr
   0DA4 E5*0E              2489 	mov	a,(_iterateStateMachine_sloc0_1_0 + 2)
   0DA6 12s00r00           2490 	lcall	__gptrput
                           2491 ;	D:/EiqEnergy/Projects/Software/_SoftwareLibraries/StateMachines/stateMachine_G4.c:371: callStateHandler(sm, target, &enterEvent) ;
   0DA9 90s00rA5           2492 	mov	dptr,#_callStateHandler_PARM_2
   0DAC E5*0C              2493 	mov	a,_iterateStateMachine_sloc0_1_0
   0DAE F0                 2494 	movx	@dptr,a
   0DAF A3                 2495 	inc	dptr
   0DB0 E5*0D              2496 	mov	a,(_iterateStateMachine_sloc0_1_0 + 1)
   0DB2 F0                 2497 	movx	@dptr,a
   0DB3 A3                 2498 	inc	dptr
   0DB4 E5*0E              2499 	mov	a,(_iterateStateMachine_sloc0_1_0 + 2)
   0DB6 F0                 2500 	movx	@dptr,a
   0DB7 90s00rA8           2501 	mov	dptr,#_callStateHandler_PARM_3
   0DBA 74r20              2502 	mov	a,#_enterEvent
   0DBC F0                 2503 	movx	@dptr,a
   0DBD A3                 2504 	inc	dptr
   0DBE 74s00              2505 	mov	a,#(_enterEvent >> 8)
   0DC0 F0                 2506 	movx	@dptr,a
   0DC1 A3                 2507 	inc	dptr
   0DC2 E4                 2508 	clr	a
   0DC3 F0                 2509 	movx	@dptr,a
   0DC4 8A 82              2510 	mov	dpl,r2
   0DC6 8B 83              2511 	mov	dph,r3
   0DC8 8C F0              2512 	mov	b,r4
   0DCA 12s03r58           2513 	lcall	_callStateHandler
   0DCD 02s15r9A           2514 	ljmp	00163$
   0DD0                    2515 00159$:
                           2516 ;	D:/EiqEnergy/Projects/Software/_SoftwareLibraries/StateMachines/stateMachine_G4.c:373: else if((state_t*)(source->parent) == (state_t*)(target->parent))
   0DD0 85*13 82           2517 	mov	dpl,_iterateStateMachine_sloc3_1_0
   0DD3 85*14 83           2518 	mov	dph,(_iterateStateMachine_sloc3_1_0 + 1)
   0DD6 85*15 F0           2519 	mov	b,(_iterateStateMachine_sloc3_1_0 + 2)
   0DD9 12s00r00           2520 	lcall	__gptrget
   0DDC F5*16              2521 	mov	_iterateStateMachine_sloc4_1_0,a
   0DDE A3                 2522 	inc	dptr
   0DDF 12s00r00           2523 	lcall	__gptrget
   0DE2 F5*17              2524 	mov	(_iterateStateMachine_sloc4_1_0 + 1),a
   0DE4 A3                 2525 	inc	dptr
   0DE5 12s00r00           2526 	lcall	__gptrget
   0DE8 F5*18              2527 	mov	(_iterateStateMachine_sloc4_1_0 + 2),a
   0DEA ED                 2528 	mov	a,r5
   0DEB B5*16 0A           2529 	cjne	a,_iterateStateMachine_sloc4_1_0,00230$
   0DEE EE                 2530 	mov	a,r6
   0DEF B5*17 06           2531 	cjne	a,(_iterateStateMachine_sloc4_1_0 + 1),00230$
   0DF2 EF                 2532 	mov	a,r7
   0DF3 B5*18 02           2533 	cjne	a,(_iterateStateMachine_sloc4_1_0 + 2),00230$
   0DF6 80 03              2534 	sjmp	00231$
   0DF8                    2535 00230$:
   0DF8 02s0Er9A           2536 	ljmp	00156$
   0DFB                    2537 00231$:
                           2538 ;	D:/EiqEnergy/Projects/Software/_SoftwareLibraries/StateMachines/stateMachine_G4.c:376: printf("\t\t\t\tTransition to direct peer.\n") ;
   0DFB C0 02              2539 	push	ar2
   0DFD C0 03              2540 	push	ar3
   0DFF C0 04              2541 	push	ar4
   0E01 74rDA              2542 	mov	a,#__str_12
   0E03 C0 E0              2543 	push	acc
   0E05 74s00              2544 	mov	a,#(__str_12 >> 8)
   0E07 C0 E0              2545 	push	acc
   0E09 74 80              2546 	mov	a,#0x80
   0E0B C0 E0              2547 	push	acc
   0E0D 12s00r00           2548 	lcall	_printf
   0E10 15 81              2549 	dec	sp
   0E12 15 81              2550 	dec	sp
   0E14 15 81              2551 	dec	sp
   0E16 D0 04              2552 	pop	ar4
   0E18 D0 03              2553 	pop	ar3
   0E1A D0 02              2554 	pop	ar2
                           2555 ;	D:/EiqEnergy/Projects/Software/_SoftwareLibraries/StateMachines/stateMachine_G4.c:382: callStateHandler(sm, source, &exitEvent) ;
   0E1C 90s00rA5           2556 	mov	dptr,#_callStateHandler_PARM_2
   0E1F E5*13              2557 	mov	a,_iterateStateMachine_sloc3_1_0
   0E21 F0                 2558 	movx	@dptr,a
   0E22 A3                 2559 	inc	dptr
   0E23 E5*14              2560 	mov	a,(_iterateStateMachine_sloc3_1_0 + 1)
   0E25 F0                 2561 	movx	@dptr,a
   0E26 A3                 2562 	inc	dptr
   0E27 E5*15              2563 	mov	a,(_iterateStateMachine_sloc3_1_0 + 2)
   0E29 F0                 2564 	movx	@dptr,a
   0E2A 90s00rA8           2565 	mov	dptr,#_callStateHandler_PARM_3
   0E2D 74r21              2566 	mov	a,#_exitEvent
   0E2F F0                 2567 	movx	@dptr,a
   0E30 A3                 2568 	inc	dptr
   0E31 74s00              2569 	mov	a,#(_exitEvent >> 8)
   0E33 F0                 2570 	movx	@dptr,a
   0E34 A3                 2571 	inc	dptr
   0E35 E4                 2572 	clr	a
   0E36 F0                 2573 	movx	@dptr,a
   0E37 8A 82              2574 	mov	dpl,r2
   0E39 8B 83              2575 	mov	dph,r3
   0E3B 8C F0              2576 	mov	b,r4
   0E3D 12s03r58           2577 	lcall	_callStateHandler
                           2578 ;	D:/EiqEnergy/Projects/Software/_SoftwareLibraries/StateMachines/stateMachine_G4.c:383: sm->currentState = target ;
   0E40 90s00rAF           2579 	mov	dptr,#_iterateStateMachine_sm_1_1
   0E43 E0                 2580 	movx	a,@dptr
   0E44 F5*19              2581 	mov	_iterateStateMachine_sloc5_1_0,a
   0E46 A3                 2582 	inc	dptr
   0E47 E0                 2583 	movx	a,@dptr
   0E48 F5*1A              2584 	mov	(_iterateStateMachine_sloc5_1_0 + 1),a
   0E4A A3                 2585 	inc	dptr
   0E4B E0                 2586 	movx	a,@dptr
   0E4C F5*1B              2587 	mov	(_iterateStateMachine_sloc5_1_0 + 2),a
   0E4E 74 05              2588 	mov	a,#0x05
   0E50 25*19              2589 	add	a,_iterateStateMachine_sloc5_1_0
   0E52 F8                 2590 	mov	r0,a
   0E53 E4                 2591 	clr	a
   0E54 35*1A              2592 	addc	a,(_iterateStateMachine_sloc5_1_0 + 1)
   0E56 F9                 2593 	mov	r1,a
   0E57 AD*1B              2594 	mov	r5,(_iterateStateMachine_sloc5_1_0 + 2)
   0E59 88 82              2595 	mov	dpl,r0
   0E5B 89 83              2596 	mov	dph,r1
   0E5D 8D F0              2597 	mov	b,r5
   0E5F E5*0C              2598 	mov	a,_iterateStateMachine_sloc0_1_0
   0E61 12s00r00           2599 	lcall	__gptrput
   0E64 A3                 2600 	inc	dptr
   0E65 E5*0D              2601 	mov	a,(_iterateStateMachine_sloc0_1_0 + 1)
   0E67 12s00r00           2602 	lcall	__gptrput
   0E6A A3                 2603 	inc	dptr
   0E6B E5*0E              2604 	mov	a,(_iterateStateMachine_sloc0_1_0 + 2)
   0E6D 12s00r00           2605 	lcall	__gptrput
                           2606 ;	D:/EiqEnergy/Projects/Software/_SoftwareLibraries/StateMachines/stateMachine_G4.c:384: callStateHandler(sm, target, &enterEvent) ;
   0E70 90s00rA5           2607 	mov	dptr,#_callStateHandler_PARM_2
   0E73 E5*0C              2608 	mov	a,_iterateStateMachine_sloc0_1_0
   0E75 F0                 2609 	movx	@dptr,a
   0E76 A3                 2610 	inc	dptr
   0E77 E5*0D              2611 	mov	a,(_iterateStateMachine_sloc0_1_0 + 1)
   0E79 F0                 2612 	movx	@dptr,a
   0E7A A3                 2613 	inc	dptr
   0E7B E5*0E              2614 	mov	a,(_iterateStateMachine_sloc0_1_0 + 2)
   0E7D F0                 2615 	movx	@dptr,a
   0E7E 90s00rA8           2616 	mov	dptr,#_callStateHandler_PARM_3
   0E81 74r20              2617 	mov	a,#_enterEvent
   0E83 F0                 2618 	movx	@dptr,a
   0E84 A3                 2619 	inc	dptr
   0E85 74s00              2620 	mov	a,#(_enterEvent >> 8)
   0E87 F0                 2621 	movx	@dptr,a
   0E88 A3                 2622 	inc	dptr
   0E89 E4                 2623 	clr	a
   0E8A F0                 2624 	movx	@dptr,a
   0E8B 85*19 82           2625 	mov	dpl,_iterateStateMachine_sloc5_1_0
   0E8E 85*1A 83           2626 	mov	dph,(_iterateStateMachine_sloc5_1_0 + 1)
   0E91 85*1B F0           2627 	mov	b,(_iterateStateMachine_sloc5_1_0 + 2)
   0E94 12s03r58           2628 	lcall	_callStateHandler
   0E97 02s15r9A           2629 	ljmp	00163$
   0E9A                    2630 00156$:
                           2631 ;	D:/EiqEnergy/Projects/Software/_SoftwareLibraries/StateMachines/stateMachine_G4.c:386: else if((state_t*)(source->parent) == target)
   0E9A E5*0C              2632 	mov	a,_iterateStateMachine_sloc0_1_0
   0E9C B5*16 6C           2633 	cjne	a,_iterateStateMachine_sloc4_1_0,00153$
   0E9F E5*0D              2634 	mov	a,(_iterateStateMachine_sloc0_1_0 + 1)
   0EA1 B5*17 67           2635 	cjne	a,(_iterateStateMachine_sloc4_1_0 + 1),00153$
   0EA4 E5*0E              2636 	mov	a,(_iterateStateMachine_sloc0_1_0 + 2)
   0EA6 B5*18 62           2637 	cjne	a,(_iterateStateMachine_sloc4_1_0 + 2),00153$
                           2638 ;	D:/EiqEnergy/Projects/Software/_SoftwareLibraries/StateMachines/stateMachine_G4.c:389: printf("\t\t\t\tTransition to direct parent.\n") ;
   0EA9 C0 02              2639 	push	ar2
   0EAB C0 03              2640 	push	ar3
   0EAD C0 04              2641 	push	ar4
   0EAF 74rFA              2642 	mov	a,#__str_13
   0EB1 C0 E0              2643 	push	acc
   0EB3 74s00              2644 	mov	a,#(__str_13 >> 8)
   0EB5 C0 E0              2645 	push	acc
   0EB7 74 80              2646 	mov	a,#0x80
   0EB9 C0 E0              2647 	push	acc
   0EBB 12s00r00           2648 	lcall	_printf
   0EBE 15 81              2649 	dec	sp
   0EC0 15 81              2650 	dec	sp
   0EC2 15 81              2651 	dec	sp
   0EC4 D0 04              2652 	pop	ar4
   0EC6 D0 03              2653 	pop	ar3
   0EC8 D0 02              2654 	pop	ar2
                           2655 ;	D:/EiqEnergy/Projects/Software/_SoftwareLibraries/StateMachines/stateMachine_G4.c:396: sm->currentState = target ;
   0ECA 85*10 82           2656 	mov	dpl,_iterateStateMachine_sloc2_1_0
   0ECD 85*11 83           2657 	mov	dph,(_iterateStateMachine_sloc2_1_0 + 1)
   0ED0 85*12 F0           2658 	mov	b,(_iterateStateMachine_sloc2_1_0 + 2)
   0ED3 E5*0C              2659 	mov	a,_iterateStateMachine_sloc0_1_0
   0ED5 12s00r00           2660 	lcall	__gptrput
   0ED8 A3                 2661 	inc	dptr
   0ED9 E5*0D              2662 	mov	a,(_iterateStateMachine_sloc0_1_0 + 1)
   0EDB 12s00r00           2663 	lcall	__gptrput
   0EDE A3                 2664 	inc	dptr
   0EDF E5*0E              2665 	mov	a,(_iterateStateMachine_sloc0_1_0 + 2)
   0EE1 12s00r00           2666 	lcall	__gptrput
                           2667 ;	D:/EiqEnergy/Projects/Software/_SoftwareLibraries/StateMachines/stateMachine_G4.c:397: callStateHandler(sm, source, &exitEvent) ;
   0EE4 90s00rA5           2668 	mov	dptr,#_callStateHandler_PARM_2
   0EE7 E5*13              2669 	mov	a,_iterateStateMachine_sloc3_1_0
   0EE9 F0                 2670 	movx	@dptr,a
   0EEA A3                 2671 	inc	dptr
   0EEB E5*14              2672 	mov	a,(_iterateStateMachine_sloc3_1_0 + 1)
   0EED F0                 2673 	movx	@dptr,a
   0EEE A3                 2674 	inc	dptr
   0EEF E5*15              2675 	mov	a,(_iterateStateMachine_sloc3_1_0 + 2)
   0EF1 F0                 2676 	movx	@dptr,a
   0EF2 90s00rA8           2677 	mov	dptr,#_callStateHandler_PARM_3
   0EF5 74r21              2678 	mov	a,#_exitEvent
   0EF7 F0                 2679 	movx	@dptr,a
   0EF8 A3                 2680 	inc	dptr
   0EF9 74s00              2681 	mov	a,#(_exitEvent >> 8)
   0EFB F0                 2682 	movx	@dptr,a
   0EFC A3                 2683 	inc	dptr
   0EFD E4                 2684 	clr	a
   0EFE F0                 2685 	movx	@dptr,a
   0EFF 8A 82              2686 	mov	dpl,r2
   0F01 8B 83              2687 	mov	dph,r3
   0F03 8C F0              2688 	mov	b,r4
   0F05 12s03r58           2689 	lcall	_callStateHandler
   0F08 02s15r9A           2690 	ljmp	00163$
   0F0B                    2691 00153$:
                           2692 ;	D:/EiqEnergy/Projects/Software/_SoftwareLibraries/StateMachines/stateMachine_G4.c:412: printf("\t\t\t\tScanning source hierarchy...\n") ;
   0F0B 74r1C              2693 	mov	a,#__str_14
   0F0D C0 E0              2694 	push	acc
   0F0F 74s01              2695 	mov	a,#(__str_14 >> 8)
   0F11 C0 E0              2696 	push	acc
   0F13 74 80              2697 	mov	a,#0x80
   0F15 C0 E0              2698 	push	acc
   0F17 12s00r00           2699 	lcall	_printf
   0F1A 15 81              2700 	dec	sp
   0F1C 15 81              2701 	dec	sp
   0F1E 15 81              2702 	dec	sp
                           2703 ;	D:/EiqEnergy/Projects/Software/_SoftwareLibraries/StateMachines/stateMachine_G4.c:416: targetIndex			= 0 ;
   0F20 90s01r1A           2704 	mov	dptr,#_iterateStateMachine_targetIndex_4_19
   0F23 E4                 2705 	clr	a
   0F24 F0                 2706 	movx	@dptr,a
                           2707 ;	D:/EiqEnergy/Projects/Software/_SoftwareLibraries/StateMachines/stateMachine_G4.c:417: stateBeingProcessed	= source ;
   0F25 90s00rB5           2708 	mov	dptr,#_iterateStateMachine_stateBeingProcessed_2_3
   0F28 E5*13              2709 	mov	a,_iterateStateMachine_sloc3_1_0
   0F2A F0                 2710 	movx	@dptr,a
   0F2B A3                 2711 	inc	dptr
   0F2C E5*14              2712 	mov	a,(_iterateStateMachine_sloc3_1_0 + 1)
   0F2E F0                 2713 	movx	@dptr,a
   0F2F A3                 2714 	inc	dptr
   0F30 E5*15              2715 	mov	a,(_iterateStateMachine_sloc3_1_0 + 2)
   0F32 F0                 2716 	movx	@dptr,a
                           2717 ;	D:/EiqEnergy/Projects/Software/_SoftwareLibraries/StateMachines/stateMachine_G4.c:419: do
   0F33 7A 00              2718 	mov	r2,#0x00
   0F35                    2719 00128$:
                           2720 ;	D:/EiqEnergy/Projects/Software/_SoftwareLibraries/StateMachines/stateMachine_G4.c:421: sourceHierarchy[sourceIndex++] = stateBeingProcessed ;
   0F35 8A 03              2721 	mov	ar3,r2
   0F37 0A                 2722 	inc	r2
   0F38 90s00rE9           2723 	mov	dptr,#_iterateStateMachine_sourceIndex_4_19
   0F3B EA                 2724 	mov	a,r2
   0F3C F0                 2725 	movx	@dptr,a
   0F3D EB                 2726 	mov	a,r3
   0F3E 75 F0 03           2727 	mov	b,#0x03
   0F41 A4                 2728 	mul	ab
   0F42 24rB9              2729 	add	a,#_iterateStateMachine_sourceHierarchy_4_19
   0F44 FB                 2730 	mov	r3,a
   0F45 E4                 2731 	clr	a
   0F46 34s00              2732 	addc	a,#(_iterateStateMachine_sourceHierarchy_4_19 >> 8)
   0F48 FC                 2733 	mov	r4,a
   0F49 90s00rB5           2734 	mov	dptr,#_iterateStateMachine_stateBeingProcessed_2_3
   0F4C E0                 2735 	movx	a,@dptr
   0F4D FD                 2736 	mov	r5,a
   0F4E A3                 2737 	inc	dptr
   0F4F E0                 2738 	movx	a,@dptr
   0F50 FE                 2739 	mov	r6,a
   0F51 A3                 2740 	inc	dptr
   0F52 E0                 2741 	movx	a,@dptr
   0F53 FF                 2742 	mov	r7,a
   0F54 8B 82              2743 	mov	dpl,r3
   0F56 8C 83              2744 	mov	dph,r4
   0F58 ED                 2745 	mov	a,r5
   0F59 F0                 2746 	movx	@dptr,a
   0F5A A3                 2747 	inc	dptr
   0F5B EE                 2748 	mov	a,r6
   0F5C F0                 2749 	movx	@dptr,a
   0F5D A3                 2750 	inc	dptr
   0F5E EF                 2751 	mov	a,r7
   0F5F F0                 2752 	movx	@dptr,a
                           2753 ;	D:/EiqEnergy/Projects/Software/_SoftwareLibraries/StateMachines/stateMachine_G4.c:424: printf("\t\t\t\t\tsourceHierarchy[%d] = %s\n", sourceIndex - 1, stateBeingProcessed->stateName) ;
   0F60 74 06              2754 	mov	a,#0x06
   0F62 2D                 2755 	add	a,r5
   0F63 FB                 2756 	mov	r3,a
   0F64 E4                 2757 	clr	a
   0F65 3E                 2758 	addc	a,r6
   0F66 FC                 2759 	mov	r4,a
   0F67 8F 00              2760 	mov	ar0,r7
   0F69 8B 82              2761 	mov	dpl,r3
   0F6B 8C 83              2762 	mov	dph,r4
   0F6D 88 F0              2763 	mov	b,r0
   0F6F 12s00r00           2764 	lcall	__gptrget
   0F72 F5*19              2765 	mov	_iterateStateMachine_sloc5_1_0,a
   0F74 A3                 2766 	inc	dptr
   0F75 12s00r00           2767 	lcall	__gptrget
   0F78 F5*1A              2768 	mov	(_iterateStateMachine_sloc5_1_0 + 1),a
   0F7A A3                 2769 	inc	dptr
   0F7B 12s00r00           2770 	lcall	__gptrget
   0F7E F5*1B              2771 	mov	(_iterateStateMachine_sloc5_1_0 + 2),a
   0F80 8A 01              2772 	mov	ar1,r2
   0F82 7B 00              2773 	mov	r3,#0x00
   0F84 19                 2774 	dec	r1
   0F85 B9 FF 01           2775 	cjne	r1,#0xff,00234$
   0F88 1B                 2776 	dec	r3
   0F89                    2777 00234$:
   0F89 C0 02              2778 	push	ar2
   0F8B C0 05              2779 	push	ar5
   0F8D C0 06              2780 	push	ar6
   0F8F C0 07              2781 	push	ar7
   0F91 C0*19              2782 	push	_iterateStateMachine_sloc5_1_0
   0F93 C0*1A              2783 	push	(_iterateStateMachine_sloc5_1_0 + 1)
   0F95 C0*1B              2784 	push	(_iterateStateMachine_sloc5_1_0 + 2)
   0F97 C0 01              2785 	push	ar1
   0F99 C0 03              2786 	push	ar3
   0F9B 74r3E              2787 	mov	a,#__str_15
   0F9D C0 E0              2788 	push	acc
   0F9F 74s01              2789 	mov	a,#(__str_15 >> 8)
   0FA1 C0 E0              2790 	push	acc
   0FA3 74 80              2791 	mov	a,#0x80
   0FA5 C0 E0              2792 	push	acc
   0FA7 12s00r00           2793 	lcall	_printf
   0FAA E5 81              2794 	mov	a,sp
   0FAC 24 F8              2795 	add	a,#0xf8
   0FAE F5 81              2796 	mov	sp,a
   0FB0 D0 07              2797 	pop	ar7
   0FB2 D0 06              2798 	pop	ar6
   0FB4 D0 05              2799 	pop	ar5
   0FB6 D0 02              2800 	pop	ar2
                           2801 ;	D:/EiqEnergy/Projects/Software/_SoftwareLibraries/StateMachines/stateMachine_G4.c:427: if(stateBeingProcessed == target)
   0FB8 ED                 2802 	mov	a,r5
   0FB9 B5*0C 0A           2803 	cjne	a,_iterateStateMachine_sloc0_1_0,00235$
   0FBC EE                 2804 	mov	a,r6
   0FBD B5*0D 06           2805 	cjne	a,(_iterateStateMachine_sloc0_1_0 + 1),00235$
   0FC0 EF                 2806 	mov	a,r7
   0FC1 B5*0E 02           2807 	cjne	a,(_iterateStateMachine_sloc0_1_0 + 2),00235$
   0FC4 80 03              2808 	sjmp	00236$
   0FC6                    2809 00235$:
   0FC6 02s10r8F           2810 	ljmp	00127$
   0FC9                    2811 00236$:
                           2812 ;	D:/EiqEnergy/Projects/Software/_SoftwareLibraries/StateMachines/stateMachine_G4.c:432: printf("\t\t\t\t\t\tFound target as ancestor of source\n") ;
   0FC9 C0 02              2813 	push	ar2
   0FCB 74r5D              2814 	mov	a,#__str_16
   0FCD C0 E0              2815 	push	acc
   0FCF 74s01              2816 	mov	a,#(__str_16 >> 8)
   0FD1 C0 E0              2817 	push	acc
   0FD3 74 80              2818 	mov	a,#0x80
   0FD5 C0 E0              2819 	push	acc
   0FD7 12s00r00           2820 	lcall	_printf
   0FDA 15 81              2821 	dec	sp
   0FDC 15 81              2822 	dec	sp
   0FDE 15 81              2823 	dec	sp
   0FE0 D0 02              2824 	pop	ar2
                           2825 ;	D:/EiqEnergy/Projects/Software/_SoftwareLibraries/StateMachines/stateMachine_G4.c:435: sourceIndex-- ;
   0FE2 EA                 2826 	mov	a,r2
   0FE3 14                 2827 	dec	a
   0FE4 FB                 2828 	mov	r3,a
   0FE5 90s00rE9           2829 	mov	dptr,#_iterateStateMachine_sourceIndex_4_19
   0FE8 F0                 2830 	movx	@dptr,a
                           2831 ;	D:/EiqEnergy/Projects/Software/_SoftwareLibraries/StateMachines/stateMachine_G4.c:437: while(exitIndex < sourceIndex)
   0FE9 7C 00              2832 	mov	r4,#0x00
   0FEB                    2833 00123$:
   0FEB C3                 2834 	clr	c
   0FEC EC                 2835 	mov	a,r4
   0FED 9B                 2836 	subb	a,r3
   0FEE 50 74              2837 	jnc	00125$
                           2838 ;	D:/EiqEnergy/Projects/Software/_SoftwareLibraries/StateMachines/stateMachine_G4.c:440: printf("\t\t\t\t") ;
   0FF0 C0 03              2839 	push	ar3
   0FF2 C0 03              2840 	push	ar3
   0FF4 C0 04              2841 	push	ar4
   0FF6 74r87              2842 	mov	a,#__str_17
   0FF8 C0 E0              2843 	push	acc
   0FFA 74s01              2844 	mov	a,#(__str_17 >> 8)
   0FFC C0 E0              2845 	push	acc
   0FFE 74 80              2846 	mov	a,#0x80
   1000 C0 E0              2847 	push	acc
   1002 12s00r00           2848 	lcall	_printf
   1005 15 81              2849 	dec	sp
   1007 15 81              2850 	dec	sp
   1009 15 81              2851 	dec	sp
   100B D0 04              2852 	pop	ar4
   100D D0 03              2853 	pop	ar3
                           2854 ;	D:/EiqEnergy/Projects/Software/_SoftwareLibraries/StateMachines/stateMachine_G4.c:443: callStateHandler(sm, sourceHierarchy[exitIndex], &exitEvent) ;
   100F 90s00rAF           2855 	mov	dptr,#_iterateStateMachine_sm_1_1
   1012 E0                 2856 	movx	a,@dptr
   1013 F5*19              2857 	mov	_iterateStateMachine_sloc5_1_0,a
   1015 A3                 2858 	inc	dptr
   1016 E0                 2859 	movx	a,@dptr
   1017 F5*1A              2860 	mov	(_iterateStateMachine_sloc5_1_0 + 1),a
   1019 A3                 2861 	inc	dptr
   101A E0                 2862 	movx	a,@dptr
   101B F5*1B              2863 	mov	(_iterateStateMachine_sloc5_1_0 + 2),a
   101D EC                 2864 	mov	a,r4
   101E 75 F0 03           2865 	mov	b,#0x03
   1021 A4                 2866 	mul	ab
   1022 24rB9              2867 	add	a,#_iterateStateMachine_sourceHierarchy_4_19
   1024 F5 82              2868 	mov	dpl,a
   1026 E4                 2869 	clr	a
   1027 34s00              2870 	addc	a,#(_iterateStateMachine_sourceHierarchy_4_19 >> 8)
   1029 F5 83              2871 	mov	dph,a
   102B E0                 2872 	movx	a,@dptr
   102C FB                 2873 	mov	r3,a
   102D A3                 2874 	inc	dptr
   102E E0                 2875 	movx	a,@dptr
   102F F8                 2876 	mov	r0,a
   1030 A3                 2877 	inc	dptr
   1031 E0                 2878 	movx	a,@dptr
   1032 F9                 2879 	mov	r1,a
   1033 90s00rA5           2880 	mov	dptr,#_callStateHandler_PARM_2
   1036 EB                 2881 	mov	a,r3
   1037 F0                 2882 	movx	@dptr,a
   1038 A3                 2883 	inc	dptr
   1039 E8                 2884 	mov	a,r0
   103A F0                 2885 	movx	@dptr,a
   103B A3                 2886 	inc	dptr
   103C E9                 2887 	mov	a,r1
   103D F0                 2888 	movx	@dptr,a
   103E 90s00rA8           2889 	mov	dptr,#_callStateHandler_PARM_3
   1041 74r21              2890 	mov	a,#_exitEvent
   1043 F0                 2891 	movx	@dptr,a
   1044 A3                 2892 	inc	dptr
   1045 74s00              2893 	mov	a,#(_exitEvent >> 8)
   1047 F0                 2894 	movx	@dptr,a
   1048 A3                 2895 	inc	dptr
   1049 E4                 2896 	clr	a
   104A F0                 2897 	movx	@dptr,a
   104B 85*19 82           2898 	mov	dpl,_iterateStateMachine_sloc5_1_0
   104E 85*1A 83           2899 	mov	dph,(_iterateStateMachine_sloc5_1_0 + 1)
   1051 85*1B F0           2900 	mov	b,(_iterateStateMachine_sloc5_1_0 + 2)
   1054 C0 03              2901 	push	ar3
   1056 C0 04              2902 	push	ar4
   1058 12s03r58           2903 	lcall	_callStateHandler
   105B D0 04              2904 	pop	ar4
   105D D0 03              2905 	pop	ar3
                           2906 ;	D:/EiqEnergy/Projects/Software/_SoftwareLibraries/StateMachines/stateMachine_G4.c:445: exitIndex++ ;
   105F 0C                 2907 	inc	r4
   1060 D0 03              2908 	pop	ar3
   1062 80 87              2909 	sjmp	00123$
   1064                    2910 00125$:
                           2911 ;	D:/EiqEnergy/Projects/Software/_SoftwareLibraries/StateMachines/stateMachine_G4.c:448: sm->currentState = target ;
   1064 90s00rAF           2912 	mov	dptr,#_iterateStateMachine_sm_1_1
   1067 E0                 2913 	movx	a,@dptr
   1068 FB                 2914 	mov	r3,a
   1069 A3                 2915 	inc	dptr
   106A E0                 2916 	movx	a,@dptr
   106B FC                 2917 	mov	r4,a
   106C A3                 2918 	inc	dptr
   106D E0                 2919 	movx	a,@dptr
   106E F8                 2920 	mov	r0,a
   106F 74 05              2921 	mov	a,#0x05
   1071 2B                 2922 	add	a,r3
   1072 FB                 2923 	mov	r3,a
   1073 E4                 2924 	clr	a
   1074 3C                 2925 	addc	a,r4
   1075 FC                 2926 	mov	r4,a
   1076 8B 82              2927 	mov	dpl,r3
   1078 8C 83              2928 	mov	dph,r4
   107A 88 F0              2929 	mov	b,r0
   107C E5*0C              2930 	mov	a,_iterateStateMachine_sloc0_1_0
   107E 12s00r00           2931 	lcall	__gptrput
   1081 A3                 2932 	inc	dptr
   1082 E5*0D              2933 	mov	a,(_iterateStateMachine_sloc0_1_0 + 1)
   1084 12s00r00           2934 	lcall	__gptrput
   1087 A3                 2935 	inc	dptr
   1088 E5*0E              2936 	mov	a,(_iterateStateMachine_sloc0_1_0 + 2)
   108A 12s00r00           2937 	lcall	__gptrput
                           2938 ;	D:/EiqEnergy/Projects/Software/_SoftwareLibraries/StateMachines/stateMachine_G4.c:450: break ;
   108D 80 32              2939 	sjmp	00130$
   108F                    2940 00127$:
                           2941 ;	D:/EiqEnergy/Projects/Software/_SoftwareLibraries/StateMachines/stateMachine_G4.c:453: stateBeingProcessed = (state_t*)(stateBeingProcessed->parent) ;
   108F 8D 82              2942 	mov	dpl,r5
   1091 8E 83              2943 	mov	dph,r6
   1093 8F F0              2944 	mov	b,r7
   1095 12s00r00           2945 	lcall	__gptrget
   1098 FD                 2946 	mov	r5,a
   1099 A3                 2947 	inc	dptr
   109A 12s00r00           2948 	lcall	__gptrget
   109D FE                 2949 	mov	r6,a
   109E A3                 2950 	inc	dptr
   109F 12s00r00           2951 	lcall	__gptrget
   10A2 FF                 2952 	mov	r7,a
   10A3 90s00rB5           2953 	mov	dptr,#_iterateStateMachine_stateBeingProcessed_2_3
   10A6 ED                 2954 	mov	a,r5
   10A7 F0                 2955 	movx	@dptr,a
   10A8 A3                 2956 	inc	dptr
   10A9 EE                 2957 	mov	a,r6
   10AA F0                 2958 	movx	@dptr,a
   10AB A3                 2959 	inc	dptr
   10AC EF                 2960 	mov	a,r7
   10AD F0                 2961 	movx	@dptr,a
                           2962 ;	D:/EiqEnergy/Projects/Software/_SoftwareLibraries/StateMachines/stateMachine_G4.c:454: } while(stateBeingProcessed) ;
   10AE 90s00rB5           2963 	mov	dptr,#_iterateStateMachine_stateBeingProcessed_2_3
   10B1 E0                 2964 	movx	a,@dptr
   10B2 FB                 2965 	mov	r3,a
   10B3 A3                 2966 	inc	dptr
   10B4 E0                 2967 	movx	a,@dptr
   10B5 FC                 2968 	mov	r4,a
   10B6 A3                 2969 	inc	dptr
   10B7 E0                 2970 	movx	a,@dptr
   10B8 FD                 2971 	mov	r5,a
   10B9 EB                 2972 	mov	a,r3
   10BA 4C                 2973 	orl	a,r4
   10BB 4D                 2974 	orl	a,r5
   10BC 60 03              2975 	jz	00238$
   10BE 02s0Fr35           2976 	ljmp	00128$
   10C1                    2977 00238$:
   10C1                    2978 00130$:
                           2979 ;	D:/EiqEnergy/Projects/Software/_SoftwareLibraries/StateMachines/stateMachine_G4.c:456: if(sm->currentState != target)
   10C1 90s00rAF           2980 	mov	dptr,#_iterateStateMachine_sm_1_1
   10C4 E0                 2981 	movx	a,@dptr
   10C5 FA                 2982 	mov	r2,a
   10C6 A3                 2983 	inc	dptr
   10C7 E0                 2984 	movx	a,@dptr
   10C8 FB                 2985 	mov	r3,a
   10C9 A3                 2986 	inc	dptr
   10CA E0                 2987 	movx	a,@dptr
   10CB FC                 2988 	mov	r4,a
   10CC 74 05              2989 	mov	a,#0x05
   10CE 2A                 2990 	add	a,r2
   10CF FA                 2991 	mov	r2,a
   10D0 E4                 2992 	clr	a
   10D1 3B                 2993 	addc	a,r3
   10D2 FB                 2994 	mov	r3,a
   10D3 8A 82              2995 	mov	dpl,r2
   10D5 8B 83              2996 	mov	dph,r3
   10D7 8C F0              2997 	mov	b,r4
   10D9 12s00r00           2998 	lcall	__gptrget
   10DC FA                 2999 	mov	r2,a
   10DD A3                 3000 	inc	dptr
   10DE 12s00r00           3001 	lcall	__gptrget
   10E1 FB                 3002 	mov	r3,a
   10E2 A3                 3003 	inc	dptr
   10E3 12s00r00           3004 	lcall	__gptrget
   10E6 FC                 3005 	mov	r4,a
   10E7 EA                 3006 	mov	a,r2
   10E8 B5*0C 0B           3007 	cjne	a,_iterateStateMachine_sloc0_1_0,00239$
   10EB EB                 3008 	mov	a,r3
   10EC B5*0D 07           3009 	cjne	a,(_iterateStateMachine_sloc0_1_0 + 1),00239$
   10EF EC                 3010 	mov	a,r4
   10F0 B5*0E 03           3011 	cjne	a,(_iterateStateMachine_sloc0_1_0 + 2),00239$
   10F3 02s12r9A           3012 	ljmp	00140$
   10F6                    3013 00239$:
                           3014 ;	D:/EiqEnergy/Projects/Software/_SoftwareLibraries/StateMachines/stateMachine_G4.c:459: printf("\t\t\t\tScanning target hierarchy...\n") ;
   10F6 74r8C              3015 	mov	a,#__str_18
   10F8 C0 E0              3016 	push	acc
   10FA 74s01              3017 	mov	a,#(__str_18 >> 8)
   10FC C0 E0              3018 	push	acc
   10FE 74 80              3019 	mov	a,#0x80
   1100 C0 E0              3020 	push	acc
   1102 12s00r00           3021 	lcall	_printf
   1105 15 81              3022 	dec	sp
   1107 15 81              3023 	dec	sp
   1109 15 81              3024 	dec	sp
                           3025 ;	D:/EiqEnergy/Projects/Software/_SoftwareLibraries/StateMachines/stateMachine_G4.c:462: targetIndex			= 0 ;
   110B 90s01r1A           3026 	mov	dptr,#_iterateStateMachine_targetIndex_4_19
   110E E4                 3027 	clr	a
   110F F0                 3028 	movx	@dptr,a
                           3029 ;	D:/EiqEnergy/Projects/Software/_SoftwareLibraries/StateMachines/stateMachine_G4.c:463: stateBeingProcessed	= target ;
   1110 90s00rB5           3030 	mov	dptr,#_iterateStateMachine_stateBeingProcessed_2_3
   1113 E5*0C              3031 	mov	a,_iterateStateMachine_sloc0_1_0
   1115 F0                 3032 	movx	@dptr,a
   1116 A3                 3033 	inc	dptr
   1117 E5*0D              3034 	mov	a,(_iterateStateMachine_sloc0_1_0 + 1)
   1119 F0                 3035 	movx	@dptr,a
   111A A3                 3036 	inc	dptr
   111B E5*0E              3037 	mov	a,(_iterateStateMachine_sloc0_1_0 + 2)
   111D F0                 3038 	movx	@dptr,a
                           3039 ;	D:/EiqEnergy/Projects/Software/_SoftwareLibraries/StateMachines/stateMachine_G4.c:465: do
   111E 7A 00              3040 	mov	r2,#0x00
   1120                    3041 00136$:
                           3042 ;	D:/EiqEnergy/Projects/Software/_SoftwareLibraries/StateMachines/stateMachine_G4.c:467: targetHierarchy[targetIndex] = stateBeingProcessed ;
   1120 EA                 3043 	mov	a,r2
   1121 75 F0 03           3044 	mov	b,#0x03
   1124 A4                 3045 	mul	ab
   1125 24rEA              3046 	add	a,#_iterateStateMachine_targetHierarchy_4_19
   1127 FB                 3047 	mov	r3,a
   1128 E4                 3048 	clr	a
   1129 34s00              3049 	addc	a,#(_iterateStateMachine_targetHierarchy_4_19 >> 8)
   112B FC                 3050 	mov	r4,a
   112C 90s00rB5           3051 	mov	dptr,#_iterateStateMachine_stateBeingProcessed_2_3
   112F E0                 3052 	movx	a,@dptr
   1130 FD                 3053 	mov	r5,a
   1131 A3                 3054 	inc	dptr
   1132 E0                 3055 	movx	a,@dptr
   1133 FE                 3056 	mov	r6,a
   1134 A3                 3057 	inc	dptr
   1135 E0                 3058 	movx	a,@dptr
   1136 FF                 3059 	mov	r7,a
   1137 8B 82              3060 	mov	dpl,r3
   1139 8C 83              3061 	mov	dph,r4
   113B ED                 3062 	mov	a,r5
   113C F0                 3063 	movx	@dptr,a
   113D A3                 3064 	inc	dptr
   113E EE                 3065 	mov	a,r6
   113F F0                 3066 	movx	@dptr,a
   1140 A3                 3067 	inc	dptr
   1141 EF                 3068 	mov	a,r7
   1142 F0                 3069 	movx	@dptr,a
                           3070 ;	D:/EiqEnergy/Projects/Software/_SoftwareLibraries/StateMachines/stateMachine_G4.c:470: printf("\t\t\t\t\ttargetHierarchy[%d] = %s\n", targetIndex, stateBeingProcessed->stateName) ;
   1143 74 06              3071 	mov	a,#0x06
   1145 2D                 3072 	add	a,r5
   1146 FB                 3073 	mov	r3,a
   1147 E4                 3074 	clr	a
   1148 3E                 3075 	addc	a,r6
   1149 FC                 3076 	mov	r4,a
   114A 8F 00              3077 	mov	ar0,r7
   114C 8B 82              3078 	mov	dpl,r3
   114E 8C 83              3079 	mov	dph,r4
   1150 88 F0              3080 	mov	b,r0
   1152 12s00r00           3081 	lcall	__gptrget
   1155 F5*19              3082 	mov	_iterateStateMachine_sloc5_1_0,a
   1157 A3                 3083 	inc	dptr
   1158 12s00r00           3084 	lcall	__gptrget
   115B F5*1A              3085 	mov	(_iterateStateMachine_sloc5_1_0 + 1),a
   115D A3                 3086 	inc	dptr
   115E 12s00r00           3087 	lcall	__gptrget
   1161 F5*1B              3088 	mov	(_iterateStateMachine_sloc5_1_0 + 2),a
   1163 8A 01              3089 	mov	ar1,r2
   1165 7B 00              3090 	mov	r3,#0x00
   1167 C0 02              3091 	push	ar2
   1169 C0 05              3092 	push	ar5
   116B C0 06              3093 	push	ar6
   116D C0 07              3094 	push	ar7
   116F C0*19              3095 	push	_iterateStateMachine_sloc5_1_0
   1171 C0*1A              3096 	push	(_iterateStateMachine_sloc5_1_0 + 1)
   1173 C0*1B              3097 	push	(_iterateStateMachine_sloc5_1_0 + 2)
   1175 C0 01              3098 	push	ar1
   1177 C0 03              3099 	push	ar3
   1179 74rAE              3100 	mov	a,#__str_19
   117B C0 E0              3101 	push	acc
   117D 74s01              3102 	mov	a,#(__str_19 >> 8)
   117F C0 E0              3103 	push	acc
   1181 74 80              3104 	mov	a,#0x80
   1183 C0 E0              3105 	push	acc
   1185 12s00r00           3106 	lcall	_printf
   1188 E5 81              3107 	mov	a,sp
   118A 24 F8              3108 	add	a,#0xf8
   118C F5 81              3109 	mov	sp,a
   118E D0 07              3110 	pop	ar7
   1190 D0 06              3111 	pop	ar6
   1192 D0 05              3112 	pop	ar5
   1194 D0 02              3113 	pop	ar2
                           3114 ;	D:/EiqEnergy/Projects/Software/_SoftwareLibraries/StateMachines/stateMachine_G4.c:473: if(stateBeingProcessed == source)
   1196 ED                 3115 	mov	a,r5
   1197 B5*13 0A           3116 	cjne	a,_iterateStateMachine_sloc3_1_0,00240$
   119A EE                 3117 	mov	a,r6
   119B B5*14 06           3118 	cjne	a,(_iterateStateMachine_sloc3_1_0 + 1),00240$
   119E EF                 3119 	mov	a,r7
   119F B5*15 02           3120 	cjne	a,(_iterateStateMachine_sloc3_1_0 + 2),00240$
   11A2 80 03              3121 	sjmp	00241$
   11A4                    3122 00240$:
   11A4 02s12r62           3123 	ljmp	00135$
   11A7                    3124 00241$:
                           3125 ;	D:/EiqEnergy/Projects/Software/_SoftwareLibraries/StateMachines/stateMachine_G4.c:476: printf("\t\t\t\t\t\tFound source as ancestor of target\n") ;
   11A7 74rCD              3126 	mov	a,#__str_20
   11A9 C0 E0              3127 	push	acc
   11AB 74s01              3128 	mov	a,#(__str_20 >> 8)
   11AD C0 E0              3129 	push	acc
   11AF 74 80              3130 	mov	a,#0x80
   11B1 C0 E0              3131 	push	acc
   11B3 12s00r00           3132 	lcall	_printf
   11B6 15 81              3133 	dec	sp
   11B8 15 81              3134 	dec	sp
   11BA 15 81              3135 	dec	sp
                           3136 ;	D:/EiqEnergy/Projects/Software/_SoftwareLibraries/StateMachines/stateMachine_G4.c:479: while(targetIndex--)
   11BC 90s01r1A           3137 	mov	dptr,#_iterateStateMachine_targetIndex_4_19
   11BF E0                 3138 	movx	a,@dptr
   11C0 FB                 3139 	mov	r3,a
   11C1                    3140 00131$:
   11C1 8B 04              3141 	mov	ar4,r3
   11C3 1B                 3142 	dec	r3
   11C4 EC                 3143 	mov	a,r4
   11C5 60 6B              3144 	jz	00206$
                           3145 ;	D:/EiqEnergy/Projects/Software/_SoftwareLibraries/StateMachines/stateMachine_G4.c:482: printf("\t\t\t\t") ;
   11C7 C0 03              3146 	push	ar3
   11C9 74r87              3147 	mov	a,#__str_17
   11CB C0 E0              3148 	push	acc
   11CD 74s01              3149 	mov	a,#(__str_17 >> 8)
   11CF C0 E0              3150 	push	acc
   11D1 74 80              3151 	mov	a,#0x80
   11D3 C0 E0              3152 	push	acc
   11D5 12s00r00           3153 	lcall	_printf
   11D8 15 81              3154 	dec	sp
   11DA 15 81              3155 	dec	sp
   11DC 15 81              3156 	dec	sp
   11DE D0 03              3157 	pop	ar3
                           3158 ;	D:/EiqEnergy/Projects/Software/_SoftwareLibraries/StateMachines/stateMachine_G4.c:484: callStateHandler(sm, targetHierarchy[targetIndex], &enterEvent) ;
   11E0 90s00rAF           3159 	mov	dptr,#_iterateStateMachine_sm_1_1
   11E3 E0                 3160 	movx	a,@dptr
   11E4 F5*19              3161 	mov	_iterateStateMachine_sloc5_1_0,a
   11E6 A3                 3162 	inc	dptr
   11E7 E0                 3163 	movx	a,@dptr
   11E8 F5*1A              3164 	mov	(_iterateStateMachine_sloc5_1_0 + 1),a
   11EA A3                 3165 	inc	dptr
   11EB E0                 3166 	movx	a,@dptr
   11EC F5*1B              3167 	mov	(_iterateStateMachine_sloc5_1_0 + 2),a
   11EE EB                 3168 	mov	a,r3
   11EF 75 F0 03           3169 	mov	b,#0x03
   11F2 A4                 3170 	mul	ab
   11F3 24rEA              3171 	add	a,#_iterateStateMachine_targetHierarchy_4_19
   11F5 F5 82              3172 	mov	dpl,a
   11F7 E4                 3173 	clr	a
   11F8 34s00              3174 	addc	a,#(_iterateStateMachine_targetHierarchy_4_19 >> 8)
   11FA F5 83              3175 	mov	dph,a
   11FC C0 03              3176 	push	ar3
   11FE E0                 3177 	movx	a,@dptr
   11FF FB                 3178 	mov	r3,a
   1200 A3                 3179 	inc	dptr
   1201 E0                 3180 	movx	a,@dptr
   1202 FC                 3181 	mov	r4,a
   1203 A3                 3182 	inc	dptr
   1204 E0                 3183 	movx	a,@dptr
   1205 F8                 3184 	mov	r0,a
   1206 90s00rA5           3185 	mov	dptr,#_callStateHandler_PARM_2
   1209 EB                 3186 	mov	a,r3
   120A F0                 3187 	movx	@dptr,a
   120B A3                 3188 	inc	dptr
   120C EC                 3189 	mov	a,r4
   120D F0                 3190 	movx	@dptr,a
   120E A3                 3191 	inc	dptr
   120F E8                 3192 	mov	a,r0
   1210 F0                 3193 	movx	@dptr,a
   1211 90s00rA8           3194 	mov	dptr,#_callStateHandler_PARM_3
   1214 74r20              3195 	mov	a,#_enterEvent
   1216 F0                 3196 	movx	@dptr,a
   1217 A3                 3197 	inc	dptr
   1218 74s00              3198 	mov	a,#(_enterEvent >> 8)
   121A F0                 3199 	movx	@dptr,a
   121B A3                 3200 	inc	dptr
   121C E4                 3201 	clr	a
   121D F0                 3202 	movx	@dptr,a
   121E 85*19 82           3203 	mov	dpl,_iterateStateMachine_sloc5_1_0
   1221 85*1A 83           3204 	mov	dph,(_iterateStateMachine_sloc5_1_0 + 1)
   1224 85*1B F0           3205 	mov	b,(_iterateStateMachine_sloc5_1_0 + 2)
   1227 C0 03              3206 	push	ar3
   1229 12s03r58           3207 	lcall	_callStateHandler
   122C D0 03              3208 	pop	ar3
   122E D0 03              3209 	pop	ar3
   1230 80 8F              3210 	sjmp	00131$
   1232                    3211 00206$:
   1232 90s01r1A           3212 	mov	dptr,#_iterateStateMachine_targetIndex_4_19
   1235 EB                 3213 	mov	a,r3
   1236 F0                 3214 	movx	@dptr,a
                           3215 ;	D:/EiqEnergy/Projects/Software/_SoftwareLibraries/StateMachines/stateMachine_G4.c:487: sm->currentState = target ;
   1237 90s00rAF           3216 	mov	dptr,#_iterateStateMachine_sm_1_1
   123A E0                 3217 	movx	a,@dptr
   123B FB                 3218 	mov	r3,a
   123C A3                 3219 	inc	dptr
   123D E0                 3220 	movx	a,@dptr
   123E FC                 3221 	mov	r4,a
   123F A3                 3222 	inc	dptr
   1240 E0                 3223 	movx	a,@dptr
   1241 F8                 3224 	mov	r0,a
   1242 74 05              3225 	mov	a,#0x05
   1244 2B                 3226 	add	a,r3
   1245 FB                 3227 	mov	r3,a
   1246 E4                 3228 	clr	a
   1247 3C                 3229 	addc	a,r4
   1248 FC                 3230 	mov	r4,a
   1249 8B 82              3231 	mov	dpl,r3
   124B 8C 83              3232 	mov	dph,r4
   124D 88 F0              3233 	mov	b,r0
   124F E5*0C              3234 	mov	a,_iterateStateMachine_sloc0_1_0
   1251 12s00r00           3235 	lcall	__gptrput
   1254 A3                 3236 	inc	dptr
   1255 E5*0D              3237 	mov	a,(_iterateStateMachine_sloc0_1_0 + 1)
   1257 12s00r00           3238 	lcall	__gptrput
   125A A3                 3239 	inc	dptr
   125B E5*0E              3240 	mov	a,(_iterateStateMachine_sloc0_1_0 + 2)
   125D 12s00r00           3241 	lcall	__gptrput
                           3242 ;	D:/EiqEnergy/Projects/Software/_SoftwareLibraries/StateMachines/stateMachine_G4.c:489: break ;
   1260 80 38              3243 	sjmp	00140$
   1262                    3244 00135$:
                           3245 ;	D:/EiqEnergy/Projects/Software/_SoftwareLibraries/StateMachines/stateMachine_G4.c:492: targetIndex++ ;
   1262 0A                 3246 	inc	r2
   1263 90s01r1A           3247 	mov	dptr,#_iterateStateMachine_targetIndex_4_19
   1266 EA                 3248 	mov	a,r2
   1267 F0                 3249 	movx	@dptr,a
                           3250 ;	D:/EiqEnergy/Projects/Software/_SoftwareLibraries/StateMachines/stateMachine_G4.c:493: stateBeingProcessed = (state_t*)(stateBeingProcessed->parent) ;
   1268 8D 82              3251 	mov	dpl,r5
   126A 8E 83              3252 	mov	dph,r6
   126C 8F F0              3253 	mov	b,r7
   126E 12s00r00           3254 	lcall	__gptrget
   1271 FD                 3255 	mov	r5,a
   1272 A3                 3256 	inc	dptr
   1273 12s00r00           3257 	lcall	__gptrget
   1276 FE                 3258 	mov	r6,a
   1277 A3                 3259 	inc	dptr
   1278 12s00r00           3260 	lcall	__gptrget
   127B FF                 3261 	mov	r7,a
   127C 90s00rB5           3262 	mov	dptr,#_iterateStateMachine_stateBeingProcessed_2_3
   127F ED                 3263 	mov	a,r5
   1280 F0                 3264 	movx	@dptr,a
   1281 A3                 3265 	inc	dptr
   1282 EE                 3266 	mov	a,r6
   1283 F0                 3267 	movx	@dptr,a
   1284 A3                 3268 	inc	dptr
   1285 EF                 3269 	mov	a,r7
   1286 F0                 3270 	movx	@dptr,a
                           3271 ;	D:/EiqEnergy/Projects/Software/_SoftwareLibraries/StateMachines/stateMachine_G4.c:494: } while(stateBeingProcessed) ;
   1287 90s00rB5           3272 	mov	dptr,#_iterateStateMachine_stateBeingProcessed_2_3
   128A E0                 3273 	movx	a,@dptr
   128B FB                 3274 	mov	r3,a
   128C A3                 3275 	inc	dptr
   128D E0                 3276 	movx	a,@dptr
   128E FC                 3277 	mov	r4,a
   128F A3                 3278 	inc	dptr
   1290 E0                 3279 	movx	a,@dptr
   1291 FD                 3280 	mov	r5,a
   1292 EB                 3281 	mov	a,r3
   1293 4C                 3282 	orl	a,r4
   1294 4D                 3283 	orl	a,r5
   1295 60 03              3284 	jz	00243$
   1297 02s11r20           3285 	ljmp	00136$
   129A                    3286 00243$:
   129A                    3287 00140$:
                           3288 ;	D:/EiqEnergy/Projects/Software/_SoftwareLibraries/StateMachines/stateMachine_G4.c:497: if(sm->currentState != target)
   129A 90s00rAF           3289 	mov	dptr,#_iterateStateMachine_sm_1_1
   129D E0                 3290 	movx	a,@dptr
   129E FA                 3291 	mov	r2,a
   129F A3                 3292 	inc	dptr
   12A0 E0                 3293 	movx	a,@dptr
   12A1 FB                 3294 	mov	r3,a
   12A2 A3                 3295 	inc	dptr
   12A3 E0                 3296 	movx	a,@dptr
   12A4 FC                 3297 	mov	r4,a
   12A5 74 05              3298 	mov	a,#0x05
   12A7 2A                 3299 	add	a,r2
   12A8 FA                 3300 	mov	r2,a
   12A9 E4                 3301 	clr	a
   12AA 3B                 3302 	addc	a,r3
   12AB FB                 3303 	mov	r3,a
   12AC 8A 82              3304 	mov	dpl,r2
   12AE 8B 83              3305 	mov	dph,r3
   12B0 8C F0              3306 	mov	b,r4
   12B2 12s00r00           3307 	lcall	__gptrget
   12B5 FA                 3308 	mov	r2,a
   12B6 A3                 3309 	inc	dptr
   12B7 12s00r00           3310 	lcall	__gptrget
   12BA FB                 3311 	mov	r3,a
   12BB A3                 3312 	inc	dptr
   12BC 12s00r00           3313 	lcall	__gptrget
   12BF FC                 3314 	mov	r4,a
   12C0 EA                 3315 	mov	a,r2
   12C1 B5*0C 0B           3316 	cjne	a,_iterateStateMachine_sloc0_1_0,00244$
   12C4 EB                 3317 	mov	a,r3
   12C5 B5*0D 07           3318 	cjne	a,(_iterateStateMachine_sloc0_1_0 + 1),00244$
   12C8 EC                 3319 	mov	a,r4
   12C9 B5*0E 03           3320 	cjne	a,(_iterateStateMachine_sloc0_1_0 + 2),00244$
   12CC 02s15r9A           3321 	ljmp	00163$
   12CF                    3322 00244$:
                           3323 ;	D:/EiqEnergy/Projects/Software/_SoftwareLibraries/StateMachines/stateMachine_G4.c:502: printf("\t\t\t\tStill haven't found relationship. Scanning for LCA...\n") ;
   12CF 74rF7              3324 	mov	a,#__str_21
   12D1 C0 E0              3325 	push	acc
   12D3 74s01              3326 	mov	a,#(__str_21 >> 8)
   12D5 C0 E0              3327 	push	acc
   12D7 74 80              3328 	mov	a,#0x80
   12D9 C0 E0              3329 	push	acc
   12DB 12s00r00           3330 	lcall	_printf
   12DE 15 81              3331 	dec	sp
   12E0 15 81              3332 	dec	sp
   12E2 15 81              3333 	dec	sp
                           3334 ;	D:/EiqEnergy/Projects/Software/_SoftwareLibraries/StateMachines/stateMachine_G4.c:504: LCA			= 0 ;
   12E4 90s01r1B           3335 	mov	dptr,#_iterateStateMachine_LCA_4_19
   12E7 E4                 3336 	clr	a
   12E8 F0                 3337 	movx	@dptr,a
   12E9 A3                 3338 	inc	dptr
   12EA F0                 3339 	movx	@dptr,a
   12EB A3                 3340 	inc	dptr
   12EC F0                 3341 	movx	@dptr,a
                           3342 ;	D:/EiqEnergy/Projects/Software/_SoftwareLibraries/StateMachines/stateMachine_G4.c:505: entryIndex	= targetIndex - 1 ;
   12ED 90s01r1A           3343 	mov	dptr,#_iterateStateMachine_targetIndex_4_19
   12F0 E0                 3344 	movx	a,@dptr
   12F1 FA                 3345 	mov	r2,a
   12F2 1A                 3346 	dec	r2
   12F3 90s01r1E           3347 	mov	dptr,#_iterateStateMachine_entryIndex_4_19
   12F6 EA                 3348 	mov	a,r2
   12F7 F0                 3349 	movx	@dptr,a
                           3350 ;	D:/EiqEnergy/Projects/Software/_SoftwareLibraries/StateMachines/stateMachine_G4.c:506: exitIndex	= sourceIndex - 1 ;
   12F8 90s00rE9           3351 	mov	dptr,#_iterateStateMachine_sourceIndex_4_19
   12FB E0                 3352 	movx	a,@dptr
   12FC FB                 3353 	mov	r3,a
   12FD 1B                 3354 	dec	r3
                           3355 ;	D:/EiqEnergy/Projects/Software/_SoftwareLibraries/StateMachines/stateMachine_G4.c:508: printf("\t\t\t\t\tentryIndex = %d, exitIndex = %d\n", entryIndex, exitIndex) ;
   12FE 8B 04              3356 	mov	ar4,r3
   1300 7D 00              3357 	mov	r5,#0x00
   1302 8A 06              3358 	mov	ar6,r2
   1304 7F 00              3359 	mov	r7,#0x00
   1306 C0 02              3360 	push	ar2
   1308 C0 03              3361 	push	ar3
   130A C0 04              3362 	push	ar4
   130C C0 05              3363 	push	ar5
   130E C0 06              3364 	push	ar6
   1310 C0 07              3365 	push	ar7
   1312 74r32              3366 	mov	a,#__str_22
   1314 C0 E0              3367 	push	acc
   1316 74s02              3368 	mov	a,#(__str_22 >> 8)
   1318 C0 E0              3369 	push	acc
   131A 74 80              3370 	mov	a,#0x80
   131C C0 E0              3371 	push	acc
   131E 12s00r00           3372 	lcall	_printf
   1321 E5 81              3373 	mov	a,sp
   1323 24 F9              3374 	add	a,#0xf9
   1325 F5 81              3375 	mov	sp,a
   1327 D0 03              3376 	pop	ar3
   1329 D0 02              3377 	pop	ar2
                           3378 ;	D:/EiqEnergy/Projects/Software/_SoftwareLibraries/StateMachines/stateMachine_G4.c:511: while(sourceHierarchy[exitIndex] == targetHierarchy[entryIndex])
   132B 7C 00              3379 	mov	r4,#0x00
   132D                    3380 00141$:
   132D C0 04              3381 	push	ar4
   132F EB                 3382 	mov	a,r3
   1330 75 F0 03           3383 	mov	b,#0x03
   1333 A4                 3384 	mul	ab
   1334 24rB9              3385 	add	a,#_iterateStateMachine_sourceHierarchy_4_19
   1336 F5 82              3386 	mov	dpl,a
   1338 E4                 3387 	clr	a
   1339 34s00              3388 	addc	a,#(_iterateStateMachine_sourceHierarchy_4_19 >> 8)
   133B F5 83              3389 	mov	dph,a
   133D E0                 3390 	movx	a,@dptr
   133E FD                 3391 	mov	r5,a
   133F A3                 3392 	inc	dptr
   1340 E0                 3393 	movx	a,@dptr
   1341 FE                 3394 	mov	r6,a
   1342 A3                 3395 	inc	dptr
   1343 E0                 3396 	movx	a,@dptr
   1344 FF                 3397 	mov	r7,a
   1345 EA                 3398 	mov	a,r2
   1346 75 F0 03           3399 	mov	b,#0x03
   1349 A4                 3400 	mul	ab
   134A 24rEA              3401 	add	a,#_iterateStateMachine_targetHierarchy_4_19
   134C F5 82              3402 	mov	dpl,a
   134E E4                 3403 	clr	a
   134F 34s00              3404 	addc	a,#(_iterateStateMachine_targetHierarchy_4_19 >> 8)
   1351 F5 83              3405 	mov	dph,a
   1353 E0                 3406 	movx	a,@dptr
   1354 F8                 3407 	mov	r0,a
   1355 A3                 3408 	inc	dptr
   1356 E0                 3409 	movx	a,@dptr
   1357 F9                 3410 	mov	r1,a
   1358 A3                 3411 	inc	dptr
   1359 E0                 3412 	movx	a,@dptr
   135A FC                 3413 	mov	r4,a
   135B ED                 3414 	mov	a,r5
   135C B5 00 0A           3415 	cjne	a,ar0,00245$
   135F EE                 3416 	mov	a,r6
   1360 B5 01 06           3417 	cjne	a,ar1,00245$
   1363 EF                 3418 	mov	a,r7
   1364 B5 04 02           3419 	cjne	a,ar4,00245$
   1367 80 04              3420 	sjmp	00246$
   1369                    3421 00245$:
   1369 D0 04              3422 	pop	ar4
   136B 80 65              3423 	sjmp	00207$
   136D                    3424 00246$:
   136D D0 04              3425 	pop	ar4
                           3426 ;	D:/EiqEnergy/Projects/Software/_SoftwareLibraries/StateMachines/stateMachine_G4.c:513: LCA = sourceHierarchy[exitIndex] ;
   136F 90s01r1B           3427 	mov	dptr,#_iterateStateMachine_LCA_4_19
   1372 ED                 3428 	mov	a,r5
   1373 F0                 3429 	movx	@dptr,a
   1374 A3                 3430 	inc	dptr
   1375 EE                 3431 	mov	a,r6
   1376 F0                 3432 	movx	@dptr,a
   1377 A3                 3433 	inc	dptr
   1378 EF                 3434 	mov	a,r7
   1379 F0                 3435 	movx	@dptr,a
                           3436 ;	D:/EiqEnergy/Projects/Software/_SoftwareLibraries/StateMachines/stateMachine_G4.c:515: entryIndex-- ;
   137A 1A                 3437 	dec	r2
   137B 90s01r1E           3438 	mov	dptr,#_iterateStateMachine_entryIndex_4_19
   137E EA                 3439 	mov	a,r2
   137F F0                 3440 	movx	@dptr,a
                           3441 ;	D:/EiqEnergy/Projects/Software/_SoftwareLibraries/StateMachines/stateMachine_G4.c:516: exitIndex-- ;
   1380 1B                 3442 	dec	r3
                           3443 ;	D:/EiqEnergy/Projects/Software/_SoftwareLibraries/StateMachines/stateMachine_G4.c:519: printf("\t\t\t\t\tCurrent LCA candidate: %s\n", LCA->stateName) ;
   1381 90s01r1B           3444 	mov	dptr,#_iterateStateMachine_LCA_4_19
   1384 E0                 3445 	movx	a,@dptr
   1385 FD                 3446 	mov	r5,a
   1386 A3                 3447 	inc	dptr
   1387 E0                 3448 	movx	a,@dptr
   1388 FE                 3449 	mov	r6,a
   1389 A3                 3450 	inc	dptr
   138A E0                 3451 	movx	a,@dptr
   138B FF                 3452 	mov	r7,a
   138C 74 06              3453 	mov	a,#0x06
   138E 2D                 3454 	add	a,r5
   138F FD                 3455 	mov	r5,a
   1390 E4                 3456 	clr	a
   1391 3E                 3457 	addc	a,r6
   1392 FE                 3458 	mov	r6,a
   1393 8D 82              3459 	mov	dpl,r5
   1395 8E 83              3460 	mov	dph,r6
   1397 8F F0              3461 	mov	b,r7
   1399 12s00r00           3462 	lcall	__gptrget
   139C FD                 3463 	mov	r5,a
   139D A3                 3464 	inc	dptr
   139E 12s00r00           3465 	lcall	__gptrget
   13A1 FE                 3466 	mov	r6,a
   13A2 A3                 3467 	inc	dptr
   13A3 12s00r00           3468 	lcall	__gptrget
   13A6 FF                 3469 	mov	r7,a
   13A7 C0 02              3470 	push	ar2
   13A9 C0 03              3471 	push	ar3
   13AB C0 04              3472 	push	ar4
   13AD C0 05              3473 	push	ar5
   13AF C0 06              3474 	push	ar6
   13B1 C0 07              3475 	push	ar7
   13B3 74r58              3476 	mov	a,#__str_23
   13B5 C0 E0              3477 	push	acc
   13B7 74s02              3478 	mov	a,#(__str_23 >> 8)
   13B9 C0 E0              3479 	push	acc
   13BB 74 80              3480 	mov	a,#0x80
   13BD C0 E0              3481 	push	acc
   13BF 12s00r00           3482 	lcall	_printf
   13C2 E5 81              3483 	mov	a,sp
   13C4 24 FA              3484 	add	a,#0xfa
   13C6 F5 81              3485 	mov	sp,a
   13C8 D0 04              3486 	pop	ar4
   13CA D0 03              3487 	pop	ar3
   13CC D0 02              3488 	pop	ar2
                           3489 ;	D:/EiqEnergy/Projects/Software/_SoftwareLibraries/StateMachines/stateMachine_G4.c:522: LCAindex++ ;
   13CE 0C                 3490 	inc	r4
   13CF 02s13r2D           3491 	ljmp	00141$
   13D2                    3492 00207$:
   13D2 90s01r1E           3493 	mov	dptr,#_iterateStateMachine_entryIndex_4_19
   13D5 EA                 3494 	mov	a,r2
   13D6 F0                 3495 	movx	@dptr,a
                           3496 ;	D:/EiqEnergy/Projects/Software/_SoftwareLibraries/StateMachines/stateMachine_G4.c:526: printf("\t\t\t\t\tLCA of %s and %s is: %s\n", source->stateName, target->stateName, LCA->stateName) ;
   13D7 90s01r1B           3497 	mov	dptr,#_iterateStateMachine_LCA_4_19
   13DA E0                 3498 	movx	a,@dptr
   13DB FC                 3499 	mov	r4,a
   13DC A3                 3500 	inc	dptr
   13DD E0                 3501 	movx	a,@dptr
   13DE FD                 3502 	mov	r5,a
   13DF A3                 3503 	inc	dptr
   13E0 E0                 3504 	movx	a,@dptr
   13E1 FE                 3505 	mov	r6,a
   13E2 74 06              3506 	mov	a,#0x06
   13E4 2C                 3507 	add	a,r4
   13E5 FC                 3508 	mov	r4,a
   13E6 E4                 3509 	clr	a
   13E7 3D                 3510 	addc	a,r5
   13E8 FD                 3511 	mov	r5,a
   13E9 8C 82              3512 	mov	dpl,r4
   13EB 8D 83              3513 	mov	dph,r5
   13ED 8E F0              3514 	mov	b,r6
   13EF 12s00r00           3515 	lcall	__gptrget
   13F2 FC                 3516 	mov	r4,a
   13F3 A3                 3517 	inc	dptr
   13F4 12s00r00           3518 	lcall	__gptrget
   13F7 FD                 3519 	mov	r5,a
   13F8 A3                 3520 	inc	dptr
   13F9 12s00r00           3521 	lcall	__gptrget
   13FC FE                 3522 	mov	r6,a
   13FD 74 06              3523 	mov	a,#0x06
   13FF 25*0C              3524 	add	a,_iterateStateMachine_sloc0_1_0
   1401 FF                 3525 	mov	r7,a
   1402 E4                 3526 	clr	a
   1403 35*0D              3527 	addc	a,(_iterateStateMachine_sloc0_1_0 + 1)
   1405 F8                 3528 	mov	r0,a
   1406 A9*0E              3529 	mov	r1,(_iterateStateMachine_sloc0_1_0 + 2)
   1408 8F 82              3530 	mov	dpl,r7
   140A 88 83              3531 	mov	dph,r0
   140C 89 F0              3532 	mov	b,r1
   140E 12s00r00           3533 	lcall	__gptrget
   1411 F5*19              3534 	mov	_iterateStateMachine_sloc5_1_0,a
   1413 A3                 3535 	inc	dptr
   1414 12s00r00           3536 	lcall	__gptrget
   1417 F5*1A              3537 	mov	(_iterateStateMachine_sloc5_1_0 + 1),a
   1419 A3                 3538 	inc	dptr
   141A 12s00r00           3539 	lcall	__gptrget
   141D F5*1B              3540 	mov	(_iterateStateMachine_sloc5_1_0 + 2),a
   141F 74 06              3541 	mov	a,#0x06
   1421 25*13              3542 	add	a,_iterateStateMachine_sloc3_1_0
   1423 FF                 3543 	mov	r7,a
   1424 E4                 3544 	clr	a
   1425 35*14              3545 	addc	a,(_iterateStateMachine_sloc3_1_0 + 1)
   1427 F8                 3546 	mov	r0,a
   1428 A9*15              3547 	mov	r1,(_iterateStateMachine_sloc3_1_0 + 2)
   142A 8F 82              3548 	mov	dpl,r7
   142C 88 83              3549 	mov	dph,r0
   142E 89 F0              3550 	mov	b,r1
   1430 12s00r00           3551 	lcall	__gptrget
   1433 FF                 3552 	mov	r7,a
   1434 A3                 3553 	inc	dptr
   1435 12s00r00           3554 	lcall	__gptrget
   1438 F8                 3555 	mov	r0,a
   1439 A3                 3556 	inc	dptr
   143A 12s00r00           3557 	lcall	__gptrget
   143D F9                 3558 	mov	r1,a
   143E C0 02              3559 	push	ar2
   1440 C0 03              3560 	push	ar3
   1442 C0 04              3561 	push	ar4
   1444 C0 05              3562 	push	ar5
   1446 C0 06              3563 	push	ar6
   1448 C0*19              3564 	push	_iterateStateMachine_sloc5_1_0
   144A C0*1A              3565 	push	(_iterateStateMachine_sloc5_1_0 + 1)
   144C C0*1B              3566 	push	(_iterateStateMachine_sloc5_1_0 + 2)
   144E C0 07              3567 	push	ar7
   1450 C0 00              3568 	push	ar0
   1452 C0 01              3569 	push	ar1
   1454 74r78              3570 	mov	a,#__str_24
   1456 C0 E0              3571 	push	acc
   1458 74s02              3572 	mov	a,#(__str_24 >> 8)
   145A C0 E0              3573 	push	acc
   145C 74 80              3574 	mov	a,#0x80
   145E C0 E0              3575 	push	acc
   1460 12s00r00           3576 	lcall	_printf
   1463 E5 81              3577 	mov	a,sp
   1465 24 F4              3578 	add	a,#0xf4
   1467 F5 81              3579 	mov	sp,a
   1469 D0 03              3580 	pop	ar3
   146B D0 02              3581 	pop	ar2
                           3582 ;	D:/EiqEnergy/Projects/Software/_SoftwareLibraries/StateMachines/stateMachine_G4.c:527: printf("\t\t\t\t\tentryIndex = %d, exitIndex = %d\n", entryIndex, exitIndex) ;
   146D 8B 04              3583 	mov	ar4,r3
   146F 7D 00              3584 	mov	r5,#0x00
   1471 7E 00              3585 	mov	r6,#0x00
   1473 C0 03              3586 	push	ar3
   1475 C0 04              3587 	push	ar4
   1477 C0 05              3588 	push	ar5
   1479 C0 02              3589 	push	ar2
   147B C0 06              3590 	push	ar6
   147D 74r32              3591 	mov	a,#__str_22
   147F C0 E0              3592 	push	acc
   1481 74s02              3593 	mov	a,#(__str_22 >> 8)
   1483 C0 E0              3594 	push	acc
   1485 74 80              3595 	mov	a,#0x80
   1487 C0 E0              3596 	push	acc
   1489 12s00r00           3597 	lcall	_printf
   148C E5 81              3598 	mov	a,sp
   148E 24 F9              3599 	add	a,#0xf9
   1490 F5 81              3600 	mov	sp,a
   1492 D0 03              3601 	pop	ar3
                           3602 ;	D:/EiqEnergy/Projects/Software/_SoftwareLibraries/StateMachines/stateMachine_G4.c:530: sourceIndex	= exitIndex + 1 ;
   1494 EB                 3603 	mov	a,r3
   1495 04                 3604 	inc	a
   1496 FA                 3605 	mov	r2,a
                           3606 ;	D:/EiqEnergy/Projects/Software/_SoftwareLibraries/StateMachines/stateMachine_G4.c:533: while(exitIndex < sourceIndex)
   1497 7B 00              3607 	mov	r3,#0x00
   1499                    3608 00144$:
   1499 C3                 3609 	clr	c
   149A EB                 3610 	mov	a,r3
   149B 9A                 3611 	subb	a,r2
   149C 50 66              3612 	jnc	00146$
                           3613 ;	D:/EiqEnergy/Projects/Software/_SoftwareLibraries/StateMachines/stateMachine_G4.c:536: printf("\t\t\t\t") ;
   149E C0 02              3614 	push	ar2
   14A0 C0 03              3615 	push	ar3
   14A2 74r87              3616 	mov	a,#__str_17
   14A4 C0 E0              3617 	push	acc
   14A6 74s01              3618 	mov	a,#(__str_17 >> 8)
   14A8 C0 E0              3619 	push	acc
   14AA 74 80              3620 	mov	a,#0x80
   14AC C0 E0              3621 	push	acc
   14AE 12s00r00           3622 	lcall	_printf
   14B1 15 81              3623 	dec	sp
   14B3 15 81              3624 	dec	sp
   14B5 15 81              3625 	dec	sp
   14B7 D0 03              3626 	pop	ar3
                           3627 ;	D:/EiqEnergy/Projects/Software/_SoftwareLibraries/StateMachines/stateMachine_G4.c:539: callStateHandler(sm, sourceHierarchy[exitIndex], &exitEvent) ;
   14B9 90s00rAF           3628 	mov	dptr,#_iterateStateMachine_sm_1_1
   14BC E0                 3629 	movx	a,@dptr
   14BD FC                 3630 	mov	r4,a
   14BE A3                 3631 	inc	dptr
   14BF E0                 3632 	movx	a,@dptr
   14C0 FD                 3633 	mov	r5,a
   14C1 A3                 3634 	inc	dptr
   14C2 E0                 3635 	movx	a,@dptr
   14C3 FE                 3636 	mov	r6,a
   14C4 EB                 3637 	mov	a,r3
   14C5 75 F0 03           3638 	mov	b,#0x03
   14C8 A4                 3639 	mul	ab
   14C9 24rB9              3640 	add	a,#_iterateStateMachine_sourceHierarchy_4_19
   14CB F5 82              3641 	mov	dpl,a
   14CD E4                 3642 	clr	a
   14CE 34s00              3643 	addc	a,#(_iterateStateMachine_sourceHierarchy_4_19 >> 8)
   14D0 F5 83              3644 	mov	dph,a
   14D2 E0                 3645 	movx	a,@dptr
   14D3 FF                 3646 	mov	r7,a
   14D4 A3                 3647 	inc	dptr
   14D5 E0                 3648 	movx	a,@dptr
   14D6 F8                 3649 	mov	r0,a
   14D7 A3                 3650 	inc	dptr
   14D8 E0                 3651 	movx	a,@dptr
   14D9 F9                 3652 	mov	r1,a
   14DA 90s00rA5           3653 	mov	dptr,#_callStateHandler_PARM_2
   14DD EF                 3654 	mov	a,r7
   14DE F0                 3655 	movx	@dptr,a
   14DF A3                 3656 	inc	dptr
   14E0 E8                 3657 	mov	a,r0
   14E1 F0                 3658 	movx	@dptr,a
   14E2 A3                 3659 	inc	dptr
   14E3 E9                 3660 	mov	a,r1
   14E4 F0                 3661 	movx	@dptr,a
   14E5 90s00rA8           3662 	mov	dptr,#_callStateHandler_PARM_3
   14E8 74r21              3663 	mov	a,#_exitEvent
   14EA F0                 3664 	movx	@dptr,a
   14EB A3                 3665 	inc	dptr
   14EC 74s00              3666 	mov	a,#(_exitEvent >> 8)
   14EE F0                 3667 	movx	@dptr,a
   14EF A3                 3668 	inc	dptr
   14F0 E4                 3669 	clr	a
   14F1 F0                 3670 	movx	@dptr,a
   14F2 8C 82              3671 	mov	dpl,r4
   14F4 8D 83              3672 	mov	dph,r5
   14F6 8E F0              3673 	mov	b,r6
   14F8 C0 03              3674 	push	ar3
   14FA 12s03r58           3675 	lcall	_callStateHandler
   14FD D0 03              3676 	pop	ar3
   14FF D0 02              3677 	pop	ar2
                           3678 ;	D:/EiqEnergy/Projects/Software/_SoftwareLibraries/StateMachines/stateMachine_G4.c:541: exitIndex++ ;
   1501 0B                 3679 	inc	r3
   1502 80 95              3680 	sjmp	00144$
   1504                    3681 00146$:
                           3682 ;	D:/EiqEnergy/Projects/Software/_SoftwareLibraries/StateMachines/stateMachine_G4.c:544: targetIndex = entryIndex + 1 ;
   1504 90s01r1E           3683 	mov	dptr,#_iterateStateMachine_entryIndex_4_19
   1507 E0                 3684 	movx	a,@dptr
   1508 FA                 3685 	mov	r2,a
   1509 0A                 3686 	inc	r2
                           3687 ;	D:/EiqEnergy/Projects/Software/_SoftwareLibraries/StateMachines/stateMachine_G4.c:546: while(targetIndex--)
   150A                    3688 00147$:
   150A 8A 03              3689 	mov	ar3,r2
   150C 1A                 3690 	dec	r2
   150D EB                 3691 	mov	a,r3
   150E 60 61              3692 	jz	00149$
                           3693 ;	D:/EiqEnergy/Projects/Software/_SoftwareLibraries/StateMachines/stateMachine_G4.c:549: printf("\t\t\t\t") ;
   1510 C0 02              3694 	push	ar2
   1512 74r87              3695 	mov	a,#__str_17
   1514 C0 E0              3696 	push	acc
   1516 74s01              3697 	mov	a,#(__str_17 >> 8)
   1518 C0 E0              3698 	push	acc
   151A 74 80              3699 	mov	a,#0x80
   151C C0 E0              3700 	push	acc
   151E 12s00r00           3701 	lcall	_printf
   1521 15 81              3702 	dec	sp
   1523 15 81              3703 	dec	sp
   1525 15 81              3704 	dec	sp
   1527 D0 02              3705 	pop	ar2
                           3706 ;	D:/EiqEnergy/Projects/Software/_SoftwareLibraries/StateMachines/stateMachine_G4.c:551: callStateHandler(sm, targetHierarchy[targetIndex], &enterEvent) ;
   1529 90s00rAF           3707 	mov	dptr,#_iterateStateMachine_sm_1_1
   152C E0                 3708 	movx	a,@dptr
   152D FB                 3709 	mov	r3,a
   152E A3                 3710 	inc	dptr
   152F E0                 3711 	movx	a,@dptr
   1530 FC                 3712 	mov	r4,a
   1531 A3                 3713 	inc	dptr
   1532 E0                 3714 	movx	a,@dptr
   1533 FD                 3715 	mov	r5,a
   1534 EA                 3716 	mov	a,r2
   1535 75 F0 03           3717 	mov	b,#0x03
   1538 A4                 3718 	mul	ab
   1539 24rEA              3719 	add	a,#_iterateStateMachine_targetHierarchy_4_19
   153B F5 82              3720 	mov	dpl,a
   153D E4                 3721 	clr	a
   153E 34s00              3722 	addc	a,#(_iterateStateMachine_targetHierarchy_4_19 >> 8)
   1540 F5 83              3723 	mov	dph,a
   1542 E0                 3724 	movx	a,@dptr
   1543 FE                 3725 	mov	r6,a
   1544 A3                 3726 	inc	dptr
   1545 E0                 3727 	movx	a,@dptr
   1546 FF                 3728 	mov	r7,a
   1547 A3                 3729 	inc	dptr
   1548 E0                 3730 	movx	a,@dptr
   1549 F8                 3731 	mov	r0,a
   154A 90s00rA5           3732 	mov	dptr,#_callStateHandler_PARM_2
   154D EE                 3733 	mov	a,r6
   154E F0                 3734 	movx	@dptr,a
   154F A3                 3735 	inc	dptr
   1550 EF                 3736 	mov	a,r7
   1551 F0                 3737 	movx	@dptr,a
   1552 A3                 3738 	inc	dptr
   1553 E8                 3739 	mov	a,r0
   1554 F0                 3740 	movx	@dptr,a
   1555 90s00rA8           3741 	mov	dptr,#_callStateHandler_PARM_3
   1558 74r20              3742 	mov	a,#_enterEvent
   155A F0                 3743 	movx	@dptr,a
   155B A3                 3744 	inc	dptr
   155C 74s00              3745 	mov	a,#(_enterEvent >> 8)
   155E F0                 3746 	movx	@dptr,a
   155F A3                 3747 	inc	dptr
   1560 E4                 3748 	clr	a
   1561 F0                 3749 	movx	@dptr,a
   1562 8B 82              3750 	mov	dpl,r3
   1564 8C 83              3751 	mov	dph,r4
   1566 8D F0              3752 	mov	b,r5
   1568 C0 02              3753 	push	ar2
   156A 12s03r58           3754 	lcall	_callStateHandler
   156D D0 02              3755 	pop	ar2
   156F 80 99              3756 	sjmp	00147$
   1571                    3757 00149$:
                           3758 ;	D:/EiqEnergy/Projects/Software/_SoftwareLibraries/StateMachines/stateMachine_G4.c:554: sm->currentState = target ;
   1571 90s00rAF           3759 	mov	dptr,#_iterateStateMachine_sm_1_1
   1574 E0                 3760 	movx	a,@dptr
   1575 FA                 3761 	mov	r2,a
   1576 A3                 3762 	inc	dptr
   1577 E0                 3763 	movx	a,@dptr
   1578 FB                 3764 	mov	r3,a
   1579 A3                 3765 	inc	dptr
   157A E0                 3766 	movx	a,@dptr
   157B FC                 3767 	mov	r4,a
   157C 74 05              3768 	mov	a,#0x05
   157E 2A                 3769 	add	a,r2
   157F FA                 3770 	mov	r2,a
   1580 E4                 3771 	clr	a
   1581 3B                 3772 	addc	a,r3
   1582 FB                 3773 	mov	r3,a
   1583 8A 82              3774 	mov	dpl,r2
   1585 8B 83              3775 	mov	dph,r3
   1587 8C F0              3776 	mov	b,r4
   1589 E5*0C              3777 	mov	a,_iterateStateMachine_sloc0_1_0
   158B 12s00r00           3778 	lcall	__gptrput
   158E A3                 3779 	inc	dptr
   158F E5*0D              3780 	mov	a,(_iterateStateMachine_sloc0_1_0 + 1)
   1591 12s00r00           3781 	lcall	__gptrput
   1594 A3                 3782 	inc	dptr
   1595 E5*0E              3783 	mov	a,(_iterateStateMachine_sloc0_1_0 + 2)
   1597 12s00r00           3784 	lcall	__gptrput
   159A                    3785 00163$:
                           3786 ;	D:/EiqEnergy/Projects/Software/_SoftwareLibraries/StateMachines/stateMachine_G4.c:562: sm->forceTransition = true ;
   159A 90s00rAF           3787 	mov	dptr,#_iterateStateMachine_sm_1_1
   159D E0                 3788 	movx	a,@dptr
   159E FA                 3789 	mov	r2,a
   159F A3                 3790 	inc	dptr
   15A0 E0                 3791 	movx	a,@dptr
   15A1 FB                 3792 	mov	r3,a
   15A2 A3                 3793 	inc	dptr
   15A3 E0                 3794 	movx	a,@dptr
   15A4 FC                 3795 	mov	r4,a
   15A5 74 1F              3796 	mov	a,#0x1F
   15A7 2A                 3797 	add	a,r2
   15A8 FA                 3798 	mov	r2,a
   15A9 E4                 3799 	clr	a
   15AA 3B                 3800 	addc	a,r3
   15AB FB                 3801 	mov	r3,a
   15AC 8A 82              3802 	mov	dpl,r2
   15AE 8B 83              3803 	mov	dph,r3
   15B0 8C F0              3804 	mov	b,r4
   15B2 74 01              3805 	mov	a,#0x01
   15B4 12s00r00           3806 	lcall	__gptrput
   15B7                    3807 00167$:
                           3808 ;	D:/EiqEnergy/Projects/Software/_SoftwareLibraries/StateMachines/stateMachine_G4.c:567: printf("\t\tEvent queue empty.\n") ;
   15B7 74r96              3809 	mov	a,#__str_25
   15B9 C0 E0              3810 	push	acc
   15BB 74s02              3811 	mov	a,#(__str_25 >> 8)
   15BD C0 E0              3812 	push	acc
   15BF 74 80              3813 	mov	a,#0x80
   15C1 C0 E0              3814 	push	acc
   15C3 12s00r00           3815 	lcall	_printf
   15C6 15 81              3816 	dec	sp
   15C8 15 81              3817 	dec	sp
   15CA 15 81              3818 	dec	sp
   15CC 22                 3819 	ret
                           3820 	.area CSEG    (CODE)
                           3821 	.area CONST   (CODE)
   0000                    3822 __str_0:
   0000 09                 3823 	.db 0x09
   0001 09                 3824 	.db 0x09
   0002 09                 3825 	.db 0x09
   0003 43 61 6C 6C 69 6E  3826 	.ascii "Calling state: %s, event: %s, "
        67 20 73 74 61 74
        65 3A 20 25 73 2C
        20 65 76 65 6E 74
        3A 20 25 73 2C 20
   0021 00                 3827 	.db 0x00
   0022                    3828 __str_1:
   0022 3C 55 53 45 52 5F  3829 	.ascii "<USER_EVENT>"
        45 56 45 4E 54 3E
   002E 00                 3830 	.db 0x00
   002F                    3831 __str_2:
   002F 72 65 73 70 6F 6E  3832 	.ascii "response: %s "
        73 65 3A 20 25 73
        20
   003C 00                 3833 	.db 0x00
   003D                    3834 __str_3:
   003D 74 6F 20 25 73 20  3835 	.ascii "to %s "
   0043 00                 3836 	.db 0x00
   0044                    3837 __str_4:
   0044 0A                 3838 	.db 0x0A
   0045 00                 3839 	.db 0x00
   0046                    3840 __str_5:
   0046 09                 3841 	.db 0x09
   0047 69 74 65 72 61 74  3842 	.ascii "iterating %s"
        69 6E 67 20 25 73
   0053 0A                 3843 	.db 0x0A
   0054 00                 3844 	.db 0x00
   0055                    3845 __str_6:
   0055 09                 3846 	.db 0x09
   0056 09                 3847 	.db 0x09
   0057 69 6E 69 74 69 61  3848 	.ascii "initializing..."
        6C 69 7A 69 6E 67
        2E 2E 2E
   0066 0A                 3849 	.db 0x0A
   0067 00                 3850 	.db 0x00
   0068                    3851 __str_7:
   0068 09                 3852 	.db 0x09
   0069 09                 3853 	.db 0x09
   006A 50 72 6F 63 65 73  3854 	.ascii "Processing event..."
        73 69 6E 67 20 65
        76 65 6E 74 2E 2E
        2E
   007D 0A                 3855 	.db 0x0A
   007E 00                 3856 	.db 0x00
   007F                    3857 __str_8:
   007F 09                 3858 	.db 0x09
   0080 09                 3859 	.db 0x09
   0081 09                 3860 	.db 0x09
   0082 09                 3861 	.db 0x09
   0083 09                 3862 	.db 0x09
   0084 09                 3863 	.db 0x09
   0085 09                 3864 	.db 0x09
   0086 6D 6F 76 69 6E 67  3865 	.ascii "moving to parent: %s"
        20 74 6F 20 70 61
        72 65 6E 74 3A 20
        25 73
   009A 0A                 3866 	.db 0x0A
   009B 00                 3867 	.db 0x00
   009C                    3868 __str_9:
   009C 3C 72 6F 6F 74 3E  3869 	.ascii "<root>"
   00A2 00                 3870 	.db 0x00
   00A3                    3871 __str_10:
   00A3 09                 3872 	.db 0x09
   00A4 09                 3873 	.db 0x09
   00A5 09                 3874 	.db 0x09
   00A6 09                 3875 	.db 0x09
   00A7 53 65 6C 66 20 74  3876 	.ascii "Self transition."
        72 61 6E 73 69 74
        69 6F 6E 2E
   00B7 0A                 3877 	.db 0x0A
   00B8 00                 3878 	.db 0x00
   00B9                    3879 __str_11:
   00B9 09                 3880 	.db 0x09
   00BA 09                 3881 	.db 0x09
   00BB 09                 3882 	.db 0x09
   00BC 09                 3883 	.db 0x09
   00BD 54 72 61 6E 73 69  3884 	.ascii "Transition to direct child."
        74 69 6F 6E 20 74
        6F 20 64 69 72 65
        63 74 20 63 68 69
        6C 64 2E
   00D8 0A                 3885 	.db 0x0A
   00D9 00                 3886 	.db 0x00
   00DA                    3887 __str_12:
   00DA 09                 3888 	.db 0x09
   00DB 09                 3889 	.db 0x09
   00DC 09                 3890 	.db 0x09
   00DD 09                 3891 	.db 0x09
   00DE 54 72 61 6E 73 69  3892 	.ascii "Transition to direct peer."
        74 69 6F 6E 20 74
        6F 20 64 69 72 65
        63 74 20 70 65 65
        72 2E
   00F8 0A                 3893 	.db 0x0A
   00F9 00                 3894 	.db 0x00
   00FA                    3895 __str_13:
   00FA 09                 3896 	.db 0x09
   00FB 09                 3897 	.db 0x09
   00FC 09                 3898 	.db 0x09
   00FD 09                 3899 	.db 0x09
   00FE 54 72 61 6E 73 69  3900 	.ascii "Transition to direct parent."
        74 69 6F 6E 20 74
        6F 20 64 69 72 65
        63 74 20 70 61 72
        65 6E 74 2E
   011A 0A                 3901 	.db 0x0A
   011B 00                 3902 	.db 0x00
   011C                    3903 __str_14:
   011C 09                 3904 	.db 0x09
   011D 09                 3905 	.db 0x09
   011E 09                 3906 	.db 0x09
   011F 09                 3907 	.db 0x09
   0120 53 63 61 6E 6E 69  3908 	.ascii "Scanning source hierarchy..."
        6E 67 20 73 6F 75
        72 63 65 20 68 69
        65 72 61 72 63 68
        79 2E 2E 2E
   013C 0A                 3909 	.db 0x0A
   013D 00                 3910 	.db 0x00
   013E                    3911 __str_15:
   013E 09                 3912 	.db 0x09
   013F 09                 3913 	.db 0x09
   0140 09                 3914 	.db 0x09
   0141 09                 3915 	.db 0x09
   0142 09                 3916 	.db 0x09
   0143 73 6F 75 72 63 65  3917 	.ascii "sourceHierarchy[%d] = %s"
        48 69 65 72 61 72
        63 68 79 5B 25 64
        5D 20 3D 20 25 73
   015B 0A                 3918 	.db 0x0A
   015C 00                 3919 	.db 0x00
   015D                    3920 __str_16:
   015D 09                 3921 	.db 0x09
   015E 09                 3922 	.db 0x09
   015F 09                 3923 	.db 0x09
   0160 09                 3924 	.db 0x09
   0161 09                 3925 	.db 0x09
   0162 09                 3926 	.db 0x09
   0163 46 6F 75 6E 64 20  3927 	.ascii "Found target as ancestor of source"
        74 61 72 67 65 74
        20 61 73 20 61 6E
        63 65 73 74 6F 72
        20 6F 66 20 73 6F
        75 72 63 65
   0185 0A                 3928 	.db 0x0A
   0186 00                 3929 	.db 0x00
   0187                    3930 __str_17:
   0187 09                 3931 	.db 0x09
   0188 09                 3932 	.db 0x09
   0189 09                 3933 	.db 0x09
   018A 09                 3934 	.db 0x09
   018B 00                 3935 	.db 0x00
   018C                    3936 __str_18:
   018C 09                 3937 	.db 0x09
   018D 09                 3938 	.db 0x09
   018E 09                 3939 	.db 0x09
   018F 09                 3940 	.db 0x09
   0190 53 63 61 6E 6E 69  3941 	.ascii "Scanning target hierarchy..."
        6E 67 20 74 61 72
        67 65 74 20 68 69
        65 72 61 72 63 68
        79 2E 2E 2E
   01AC 0A                 3942 	.db 0x0A
   01AD 00                 3943 	.db 0x00
   01AE                    3944 __str_19:
   01AE 09                 3945 	.db 0x09
   01AF 09                 3946 	.db 0x09
   01B0 09                 3947 	.db 0x09
   01B1 09                 3948 	.db 0x09
   01B2 09                 3949 	.db 0x09
   01B3 74 61 72 67 65 74  3950 	.ascii "targetHierarchy[%d] = %s"
        48 69 65 72 61 72
        63 68 79 5B 25 64
        5D 20 3D 20 25 73
   01CB 0A                 3951 	.db 0x0A
   01CC 00                 3952 	.db 0x00
   01CD                    3953 __str_20:
   01CD 09                 3954 	.db 0x09
   01CE 09                 3955 	.db 0x09
   01CF 09                 3956 	.db 0x09
   01D0 09                 3957 	.db 0x09
   01D1 09                 3958 	.db 0x09
   01D2 09                 3959 	.db 0x09
   01D3 46 6F 75 6E 64 20  3960 	.ascii "Found source as ancestor of target"
        73 6F 75 72 63 65
        20 61 73 20 61 6E
        63 65 73 74 6F 72
        20 6F 66 20 74 61
        72 67 65 74
   01F5 0A                 3961 	.db 0x0A
   01F6 00                 3962 	.db 0x00
   01F7                    3963 __str_21:
   01F7 09                 3964 	.db 0x09
   01F8 09                 3965 	.db 0x09
   01F9 09                 3966 	.db 0x09
   01FA 09                 3967 	.db 0x09
   01FB 53 74 69 6C 6C 20  3968 	.ascii "Still haven't found relationship. Scanning for LCA..."
        68 61 76 65 6E 27
        74 20 66 6F 75 6E
        64 20 72 65 6C 61
        74 69 6F 6E 73 68
        69 70 2E 20 53 63
        61 6E 6E 69 6E 67
        20 66 6F 72 20 4C
        43 41 2E 2E 2E
   0230 0A                 3969 	.db 0x0A
   0231 00                 3970 	.db 0x00
   0232                    3971 __str_22:
   0232 09                 3972 	.db 0x09
   0233 09                 3973 	.db 0x09
   0234 09                 3974 	.db 0x09
   0235 09                 3975 	.db 0x09
   0236 09                 3976 	.db 0x09
   0237 65 6E 74 72 79 49  3977 	.ascii "entryIndex = %d, exitIndex = %d"
        6E 64 65 78 20 3D
        20 25 64 2C 20 65
        78 69 74 49 6E 64
        65 78 20 3D 20 25
        64
   0256 0A                 3978 	.db 0x0A
   0257 00                 3979 	.db 0x00
   0258                    3980 __str_23:
   0258 09                 3981 	.db 0x09
   0259 09                 3982 	.db 0x09
   025A 09                 3983 	.db 0x09
   025B 09                 3984 	.db 0x09
   025C 09                 3985 	.db 0x09
   025D 43 75 72 72 65 6E  3986 	.ascii "Current LCA candidate: %s"
        74 20 4C 43 41 20
        63 61 6E 64 69 64
        61 74 65 3A 20 25
        73
   0276 0A                 3987 	.db 0x0A
   0277 00                 3988 	.db 0x00
   0278                    3989 __str_24:
   0278 09                 3990 	.db 0x09
   0279 09                 3991 	.db 0x09
   027A 09                 3992 	.db 0x09
   027B 09                 3993 	.db 0x09
   027C 09                 3994 	.db 0x09
   027D 4C 43 41 20 6F 66  3995 	.ascii "LCA of %s and %s is: %s"
        20 25 73 20 61 6E
        64 20 25 73 20 69
        73 3A 20 25 73
   0294 0A                 3996 	.db 0x0A
   0295 00                 3997 	.db 0x00
   0296                    3998 __str_25:
   0296 09                 3999 	.db 0x09
   0297 09                 4000 	.db 0x09
   0298 45 76 65 6E 74 20  4001 	.ascii "Event queue empty."
        71 75 65 75 65 20
        65 6D 70 74 79 2E
   02AA 0A                 4002 	.db 0x0A
   02AB 00                 4003 	.db 0x00
   02AC                    4004 __str_26:
   02AC 53 55 42 53 54 41  4005 	.ascii "SUBSTATE_GET_INFO"
        54 45 5F 47 45 54
        5F 49 4E 46 4F
   02BD 00                 4006 	.db 0x00
   02BE                    4007 __str_27:
   02BE 53 55 42 53 54 41  4008 	.ascii "SUBSTATE_ENTRY"
        54 45 5F 45 4E 54
        52 59
   02CC 00                 4009 	.db 0x00
   02CD                    4010 __str_28:
   02CD 53 55 42 53 54 41  4011 	.ascii "SUBSTATE_INITIAL_TRANSITION"
        54 45 5F 49 4E 49
        54 49 41 4C 5F 54
        52 41 4E 53 49 54
        49 4F 4E
   02E8 00                 4012 	.db 0x00
   02E9                    4013 __str_29:
   02E9 53 55 42 53 54 41  4014 	.ascii "SUBSTATE_JUMP_TO_HISTORY_DEFAULT"
        54 45 5F 4A 55 4D
        50 5F 54 4F 5F 48
        49 53 54 4F 52 59
        5F 44 45 46 41 55
        4C 54
   0309 00                 4015 	.db 0x00
   030A                    4016 __str_30:
   030A 53 55 42 53 54 41  4017 	.ascii "SUBSTATE_DO"
        54 45 5F 44 4F
   0315 00                 4018 	.db 0x00
   0316                    4019 __str_31:
   0316 53 55 42 53 54 41  4020 	.ascii "SUBSTATE_EXIT"
        54 45 5F 45 58 49
        54
   0323 00                 4021 	.db 0x00
   0324                    4022 __str_32:
   0324 49 47 4E 4F 52 45  4023 	.ascii "IGNORED"
        44
   032B 00                 4024 	.db 0x00
   032C                    4025 __str_33:
   032C 48 41 4E 44 4C 45  4026 	.ascii "HANDLED"
        44
   0333 00                 4027 	.db 0x00
   0334                    4028 __str_34:
   0334 54 52 41 4E 53 49  4029 	.ascii "TRANSITION"
        54 49 4F 4E
   033E 00                 4030 	.db 0x00
   033F                    4031 __str_35:
   033F 54 52 41 4E 53 49  4032 	.ascii "TRANSITION_TO_HISTORY"
        54 49 4F 4E 5F 54
        4F 5F 48 49 53 54
        4F 52 59
   0354 00                 4033 	.db 0x00
                           4034 	.area XINIT   (CODE)
   0000                    4035 __xinit__eventTypes:
   0000rACs02 80           4036 	.byte __str_26,(__str_26 >> 8),#0x80
   0003rBEs02 80           4037 	.byte __str_27,(__str_27 >> 8),#0x80
   0006rCDs02 80           4038 	.byte __str_28,(__str_28 >> 8),#0x80
   0009rE9s02 80           4039 	.byte __str_29,(__str_29 >> 8),#0x80
   000Cr0As03 80           4040 	.byte __str_30,(__str_30 >> 8),#0x80
   000Fr16s03 80           4041 	.byte __str_31,(__str_31 >> 8),#0x80
   0012                    4042 __xinit__responseTypes:
   0012r24s03 80           4043 	.byte __str_32,(__str_32 >> 8),#0x80
   0015r2Cs03 80           4044 	.byte __str_33,(__str_33 >> 8),#0x80
   0018r34s03 80           4045 	.byte __str_34,(__str_34 >> 8),#0x80
   001Br3Fs03 80           4046 	.byte __str_35,(__str_35 >> 8),#0x80
   001E                    4047 __xinit__initialTransitionEvent:
   001E 02                 4048 	.db #0x02
   001F                    4049 __xinit__jumpToHistoryEvent:
   001F 03                 4050 	.db #0x03
   0020                    4051 __xinit__enterEvent:
   0020 01                 4052 	.db #0x01
   0021                    4053 __xinit__exitEvent:
   0021 05                 4054 	.db #0x05
                           4055 	.area CABS    (ABS,CODE)
